ARM GAS  /var/folders/7c/668hyr3s7rlgsbdftclf3hsr0000gn/T//cczSPkjU.s 			page 1


   1              		.cpu cortex-m7
   2              		.arch armv7e-m
   3              		.fpu fpv5-d16
   4              		.eabi_attribute 28, 1
   5              		.eabi_attribute 20, 1
   6              		.eabi_attribute 21, 1
   7              		.eabi_attribute 23, 3
   8              		.eabi_attribute 24, 1
   9              		.eabi_attribute 25, 1
  10              		.eabi_attribute 26, 1
  11              		.eabi_attribute 30, 2
  12              		.eabi_attribute 34, 1
  13              		.eabi_attribute 18, 4
  14              		.file	"DaisyKeys.cpp"
  15              		.text
  16              	.Ltext0:
  17              		.cfi_sections	.debug_frame
  18              		.section	.text._ZN7daisysp5AdEnvD2Ev,"axG",%progbits,_ZN7daisysp5AdEnvD5Ev,comdat
  19              		.align	1
  20              		.p2align 2,,3
  21              		.weak	_ZN7daisysp5AdEnvD2Ev
  22              		.syntax unified
  23              		.thumb
  24              		.thumb_func
  26              	_ZN7daisysp5AdEnvD2Ev:
  27              	.LVL0:
  28              	.LFB548:
  29              		.file 1 "../DaisyExamples/DaisySP/Source/Control/adenv.h"
   1:../DaisyExamples/DaisySP/Source/Control/adenv.h **** /*
   2:../DaisyExamples/DaisySP/Source/Control/adenv.h **** Copyright (c) 2020 Electrosmith, Corp
   3:../DaisyExamples/DaisySP/Source/Control/adenv.h **** 
   4:../DaisyExamples/DaisySP/Source/Control/adenv.h **** Use of this source code is governed by an MIT-style
   5:../DaisyExamples/DaisySP/Source/Control/adenv.h **** license that can be found in the LICENSE file or at
   6:../DaisyExamples/DaisySP/Source/Control/adenv.h **** https://opensource.org/licenses/MIT.
   7:../DaisyExamples/DaisySP/Source/Control/adenv.h **** */
   8:../DaisyExamples/DaisySP/Source/Control/adenv.h **** 
   9:../DaisyExamples/DaisySP/Source/Control/adenv.h **** #pragma once
  10:../DaisyExamples/DaisySP/Source/Control/adenv.h **** #ifndef ADENV_H
  11:../DaisyExamples/DaisySP/Source/Control/adenv.h **** #define ADENV_H
  12:../DaisyExamples/DaisySP/Source/Control/adenv.h **** #include <stdint.h>
  13:../DaisyExamples/DaisySP/Source/Control/adenv.h **** #ifdef __cplusplus
  14:../DaisyExamples/DaisySP/Source/Control/adenv.h **** 
  15:../DaisyExamples/DaisySP/Source/Control/adenv.h **** namespace daisysp
  16:../DaisyExamples/DaisySP/Source/Control/adenv.h **** {
  17:../DaisyExamples/DaisySP/Source/Control/adenv.h **** /** Distinct stages that the phase of the envelope can be located in.
  18:../DaisyExamples/DaisySP/Source/Control/adenv.h ****     @see AdEnv
  19:../DaisyExamples/DaisySP/Source/Control/adenv.h **** */
  20:../DaisyExamples/DaisySP/Source/Control/adenv.h **** enum AdEnvSegment
  21:../DaisyExamples/DaisySP/Source/Control/adenv.h **** {
  22:../DaisyExamples/DaisySP/Source/Control/adenv.h ****     /** located at phase location 0, and not currently running */
  23:../DaisyExamples/DaisySP/Source/Control/adenv.h ****     ADENV_SEG_IDLE,
  24:../DaisyExamples/DaisySP/Source/Control/adenv.h ****     /** First segment of envelope where phase moves from MIN value to MAX value */
  25:../DaisyExamples/DaisySP/Source/Control/adenv.h ****     ADENV_SEG_ATTACK,
  26:../DaisyExamples/DaisySP/Source/Control/adenv.h ****     /** Second segment of envelope where phase moves from MAX to MIN value */
  27:../DaisyExamples/DaisySP/Source/Control/adenv.h ****     ADENV_SEG_DECAY,
  28:../DaisyExamples/DaisySP/Source/Control/adenv.h ****     /** The final segment of the envelope (currently decay) */
  29:../DaisyExamples/DaisySP/Source/Control/adenv.h ****     ADENV_SEG_LAST,
ARM GAS  /var/folders/7c/668hyr3s7rlgsbdftclf3hsr0000gn/T//cczSPkjU.s 			page 2


  30:../DaisyExamples/DaisySP/Source/Control/adenv.h **** };
  31:../DaisyExamples/DaisySP/Source/Control/adenv.h **** 
  32:../DaisyExamples/DaisySP/Source/Control/adenv.h **** /** Trigger-able envelope with adjustable min/max, and independent per-segment time control.
  33:../DaisyExamples/DaisySP/Source/Control/adenv.h **** 
  34:../DaisyExamples/DaisySP/Source/Control/adenv.h ****     \author shensley
  35:../DaisyExamples/DaisySP/Source/Control/adenv.h ****     \todo - Add Cycling
  36:../DaisyExamples/DaisySP/Source/Control/adenv.h ****     \todo - Implement Curve (its only linear for now).
  37:../DaisyExamples/DaisySP/Source/Control/adenv.h ****     \todo - Maybe make this an ADsr_ that has AD/AR/Asr_ modes.
  38:../DaisyExamples/DaisySP/Source/Control/adenv.h ****  */
  39:../DaisyExamples/DaisySP/Source/Control/adenv.h **** class AdEnv
  40:../DaisyExamples/DaisySP/Source/Control/adenv.h **** {
  41:../DaisyExamples/DaisySP/Source/Control/adenv.h ****   public:
  42:../DaisyExamples/DaisySP/Source/Control/adenv.h ****     AdEnv() {}
  43:../DaisyExamples/DaisySP/Source/Control/adenv.h ****     ~AdEnv() {}
  30              		.loc 1 43 5 view -0
  31              		.cfi_startproc
  32              		@ args = 0, pretend = 0, frame = 0
  33              		@ frame_needed = 0, uses_anonymous_args = 0
  34              		@ link register save eliminated.
  35              		.loc 1 43 15 is_stmt 0 view .LVU1
  36 0000 7047     		bx	lr
  37              		.cfi_endproc
  38              	.LFE548:
  40              		.weak	_ZN7daisysp5AdEnvD1Ev
  41              		.thumb_set _ZN7daisysp5AdEnvD1Ev,_ZN7daisysp5AdEnvD2Ev
  42 0002 00BF     		.section	.text._ZN7daisysp10OscillatorD2Ev,"axG",%progbits,_ZN7daisysp10OscillatorD5Ev,comdat
  43              		.align	1
  44              		.p2align 2,,3
  45              		.weak	_ZN7daisysp10OscillatorD2Ev
  46              		.syntax unified
  47              		.thumb
  48              		.thumb_func
  50              	_ZN7daisysp10OscillatorD2Ev:
  51              	.LVL1:
  52              	.LFB2826:
  53              		.file 2 "../DaisyExamples/DaisySP/Source/Synthesis/oscillator.h"
   1:../DaisyExamples/DaisySP/Source/Synthesis/oscillator.h **** /*
   2:../DaisyExamples/DaisySP/Source/Synthesis/oscillator.h **** Copyright (c) 2020 Electrosmith, Corp
   3:../DaisyExamples/DaisySP/Source/Synthesis/oscillator.h **** 
   4:../DaisyExamples/DaisySP/Source/Synthesis/oscillator.h **** Use of this source code is governed by an MIT-style
   5:../DaisyExamples/DaisySP/Source/Synthesis/oscillator.h **** license that can be found in the LICENSE file or at
   6:../DaisyExamples/DaisySP/Source/Synthesis/oscillator.h **** https://opensource.org/licenses/MIT.
   7:../DaisyExamples/DaisySP/Source/Synthesis/oscillator.h **** */
   8:../DaisyExamples/DaisySP/Source/Synthesis/oscillator.h **** 
   9:../DaisyExamples/DaisySP/Source/Synthesis/oscillator.h **** #pragma once
  10:../DaisyExamples/DaisySP/Source/Synthesis/oscillator.h **** #ifndef DSY_OSCILLATOR_H
  11:../DaisyExamples/DaisySP/Source/Synthesis/oscillator.h **** #define DSY_OSCILLATOR_H
  12:../DaisyExamples/DaisySP/Source/Synthesis/oscillator.h **** #include <stdint.h>
  13:../DaisyExamples/DaisySP/Source/Synthesis/oscillator.h **** #include "Utility/dsp.h"
  14:../DaisyExamples/DaisySP/Source/Synthesis/oscillator.h **** #ifdef __cplusplus
  15:../DaisyExamples/DaisySP/Source/Synthesis/oscillator.h **** 
  16:../DaisyExamples/DaisySP/Source/Synthesis/oscillator.h **** namespace daisysp
  17:../DaisyExamples/DaisySP/Source/Synthesis/oscillator.h **** {
  18:../DaisyExamples/DaisySP/Source/Synthesis/oscillator.h **** /** Synthesis of several waveforms, including polyBLEP bandlimited waveforms.
  19:../DaisyExamples/DaisySP/Source/Synthesis/oscillator.h **** */
  20:../DaisyExamples/DaisySP/Source/Synthesis/oscillator.h **** class Oscillator
  21:../DaisyExamples/DaisySP/Source/Synthesis/oscillator.h **** {
ARM GAS  /var/folders/7c/668hyr3s7rlgsbdftclf3hsr0000gn/T//cczSPkjU.s 			page 3


  22:../DaisyExamples/DaisySP/Source/Synthesis/oscillator.h ****   public:
  23:../DaisyExamples/DaisySP/Source/Synthesis/oscillator.h ****     Oscillator() {}
  24:../DaisyExamples/DaisySP/Source/Synthesis/oscillator.h ****     ~Oscillator() {}
  54              		.loc 2 24 5 is_stmt 1 view -0
  55              		.cfi_startproc
  56              		@ args = 0, pretend = 0, frame = 0
  57              		@ frame_needed = 0, uses_anonymous_args = 0
  58              		@ link register save eliminated.
  59              		.loc 2 24 20 is_stmt 0 view .LVU3
  60 0000 7047     		bx	lr
  61              		.cfi_endproc
  62              	.LFE2826:
  64              		.weak	_ZN7daisysp10OscillatorD1Ev
  65              		.thumb_set _ZN7daisysp10OscillatorD1Ev,_ZN7daisysp10OscillatorD2Ev
  66 0002 00BF     		.section	.text._ZN5daisy6SwitchD2Ev,"axG",%progbits,_ZN5daisy6SwitchD5Ev,comdat
  67              		.align	1
  68              		.p2align 2,,3
  69              		.weak	_ZN5daisy6SwitchD2Ev
  70              		.syntax unified
  71              		.thumb
  72              		.thumb_func
  74              	_ZN5daisy6SwitchD2Ev:
  75              	.LVL2:
  76              	.LFB3767:
  77              		.file 3 "../DaisyExamples/libDaisy/src/hid/switch.h"
   1:../DaisyExamples/libDaisy/src/hid/switch.h **** #pragma once
   2:../DaisyExamples/libDaisy/src/hid/switch.h **** #ifndef DSY_SWITCH_H
   3:../DaisyExamples/libDaisy/src/hid/switch.h **** #define DSY_SWITCH_H
   4:../DaisyExamples/libDaisy/src/hid/switch.h **** #include "daisy_core.h"
   5:../DaisyExamples/libDaisy/src/hid/switch.h **** #include "per/gpio.h"
   6:../DaisyExamples/libDaisy/src/hid/switch.h **** #include "sys/system.h"
   7:../DaisyExamples/libDaisy/src/hid/switch.h **** 
   8:../DaisyExamples/libDaisy/src/hid/switch.h **** namespace daisy
   9:../DaisyExamples/libDaisy/src/hid/switch.h **** {
  10:../DaisyExamples/libDaisy/src/hid/switch.h **** /** 
  11:../DaisyExamples/libDaisy/src/hid/switch.h ****     Generic Class for handling momentary/latching switches \n 
  12:../DaisyExamples/libDaisy/src/hid/switch.h ****     Inspired/influenced by Mutable Instruments (pichenettes) Switch classes
  13:../DaisyExamples/libDaisy/src/hid/switch.h ****     @author Stephen Hensley
  14:../DaisyExamples/libDaisy/src/hid/switch.h ****     @date December 2019
  15:../DaisyExamples/libDaisy/src/hid/switch.h ****     @ingroup controls
  16:../DaisyExamples/libDaisy/src/hid/switch.h **** */
  17:../DaisyExamples/libDaisy/src/hid/switch.h **** class Switch
  18:../DaisyExamples/libDaisy/src/hid/switch.h **** {
  19:../DaisyExamples/libDaisy/src/hid/switch.h ****   public:
  20:../DaisyExamples/libDaisy/src/hid/switch.h ****     /** Specifies the expected behavior of the switch */
  21:../DaisyExamples/libDaisy/src/hid/switch.h ****     enum Type
  22:../DaisyExamples/libDaisy/src/hid/switch.h ****     {
  23:../DaisyExamples/libDaisy/src/hid/switch.h ****         TYPE_TOGGLE,    /**< & */
  24:../DaisyExamples/libDaisy/src/hid/switch.h ****         TYPE_MOMENTARY, /**< & */
  25:../DaisyExamples/libDaisy/src/hid/switch.h ****     };
  26:../DaisyExamples/libDaisy/src/hid/switch.h ****     /** Specifies whether the pressed is HIGH or LOW. */
  27:../DaisyExamples/libDaisy/src/hid/switch.h ****     enum Polarity
  28:../DaisyExamples/libDaisy/src/hid/switch.h ****     {
  29:../DaisyExamples/libDaisy/src/hid/switch.h ****         POLARITY_NORMAL,   /**< & */
  30:../DaisyExamples/libDaisy/src/hid/switch.h ****         POLARITY_INVERTED, /**< & */
  31:../DaisyExamples/libDaisy/src/hid/switch.h ****     };
  32:../DaisyExamples/libDaisy/src/hid/switch.h **** 
ARM GAS  /var/folders/7c/668hyr3s7rlgsbdftclf3hsr0000gn/T//cczSPkjU.s 			page 4


  33:../DaisyExamples/libDaisy/src/hid/switch.h ****     /** Specifies whether to use built-in Pull Up/Down resistors to hold button at a given state wh
  34:../DaisyExamples/libDaisy/src/hid/switch.h ****     enum Pull
  35:../DaisyExamples/libDaisy/src/hid/switch.h ****     {
  36:../DaisyExamples/libDaisy/src/hid/switch.h ****         PULL_UP,   /**< & */
  37:../DaisyExamples/libDaisy/src/hid/switch.h ****         PULL_DOWN, /**< & */
  38:../DaisyExamples/libDaisy/src/hid/switch.h ****         PULL_NONE, /**< & */
  39:../DaisyExamples/libDaisy/src/hid/switch.h ****     };
  40:../DaisyExamples/libDaisy/src/hid/switch.h **** 
  41:../DaisyExamples/libDaisy/src/hid/switch.h ****     Switch() {}
  42:../DaisyExamples/libDaisy/src/hid/switch.h ****     ~Switch() {}
  78              		.loc 3 42 5 is_stmt 1 view -0
  79              		.cfi_startproc
  80              		@ args = 0, pretend = 0, frame = 0
  81              		@ frame_needed = 0, uses_anonymous_args = 0
  82              		@ link register save eliminated.
  83              		.loc 3 42 16 is_stmt 0 view .LVU5
  84 0000 7047     		bx	lr
  85              		.cfi_endproc
  86              	.LFE3767:
  88              		.weak	_ZN5daisy6SwitchD1Ev
  89              		.thumb_set _ZN5daisy6SwitchD1Ev,_ZN5daisy6SwitchD2Ev
  90 0002 00BF     		.section	.text._ZN5daisy9DaisySeedD2Ev,"axG",%progbits,_ZN5daisy9DaisySeedD5Ev,comdat
  91              		.align	1
  92              		.p2align 2,,3
  93              		.weak	_ZN5daisy9DaisySeedD2Ev
  94              		.syntax unified
  95              		.thumb
  96              		.thumb_func
  98              	_ZN5daisy9DaisySeedD2Ev:
  99              	.LVL3:
 100              	.LFB4677:
 101              		.file 4 "../DaisyExamples/libDaisy/src/daisy_seed.h"
   1:../DaisyExamples/libDaisy/src/daisy_seed.h **** #pragma once
   2:../DaisyExamples/libDaisy/src/daisy_seed.h **** #ifndef DSY_SEED_H
   3:../DaisyExamples/libDaisy/src/daisy_seed.h **** #define DSY_SEED_H
   4:../DaisyExamples/libDaisy/src/daisy_seed.h **** 
   5:../DaisyExamples/libDaisy/src/daisy_seed.h **** #include "daisy.h"
   6:../DaisyExamples/libDaisy/src/daisy_seed.h **** 
   7:../DaisyExamples/libDaisy/src/daisy_seed.h **** //Uncomment this out if you're still using the rev2 hardware
   8:../DaisyExamples/libDaisy/src/daisy_seed.h **** //#define SEED_REV2
   9:../DaisyExamples/libDaisy/src/daisy_seed.h **** 
  10:../DaisyExamples/libDaisy/src/daisy_seed.h **** namespace daisy
  11:../DaisyExamples/libDaisy/src/daisy_seed.h **** {
  12:../DaisyExamples/libDaisy/src/daisy_seed.h **** /**
  13:../DaisyExamples/libDaisy/src/daisy_seed.h ****    @brief This is the higher-level interface for the Daisy board. \n 
  14:../DaisyExamples/libDaisy/src/daisy_seed.h ****     All basic peripheral configuration/initialization is setup here. \n
  15:../DaisyExamples/libDaisy/src/daisy_seed.h **** 
  16:../DaisyExamples/libDaisy/src/daisy_seed.h ****    @ingroup boards
  17:../DaisyExamples/libDaisy/src/daisy_seed.h **** */
  18:../DaisyExamples/libDaisy/src/daisy_seed.h **** class DaisySeed
  19:../DaisyExamples/libDaisy/src/daisy_seed.h **** {
  20:../DaisyExamples/libDaisy/src/daisy_seed.h ****   public:
  21:../DaisyExamples/libDaisy/src/daisy_seed.h ****     DaisySeed() {}
  22:../DaisyExamples/libDaisy/src/daisy_seed.h ****     ~DaisySeed() {}
 102              		.loc 4 22 5 is_stmt 1 view -0
 103              		.cfi_startproc
 104              		@ args = 0, pretend = 0, frame = 0
ARM GAS  /var/folders/7c/668hyr3s7rlgsbdftclf3hsr0000gn/T//cczSPkjU.s 			page 5


 105              		@ frame_needed = 0, uses_anonymous_args = 0
 106              		@ link register save eliminated.
 107              	.LBB369:
 108              	.LBI369:
 109              		.file 5 "../DaisyExamples/libDaisy/src/sys/system.h"
   1:../DaisyExamples/libDaisy/src/sys/system.h **** #ifndef DSY_SYSTEM_H
   2:../DaisyExamples/libDaisy/src/sys/system.h **** #define DSY_SYSTEM_H
   3:../DaisyExamples/libDaisy/src/sys/system.h **** 
   4:../DaisyExamples/libDaisy/src/sys/system.h **** #ifndef UNIT_TEST // for unit tests, a dummy implementation is provided below
   5:../DaisyExamples/libDaisy/src/sys/system.h **** 
   6:../DaisyExamples/libDaisy/src/sys/system.h **** #include <cstdint>
   7:../DaisyExamples/libDaisy/src/sys/system.h **** #include "per/tim.h"
   8:../DaisyExamples/libDaisy/src/sys/system.h **** 
   9:../DaisyExamples/libDaisy/src/sys/system.h **** namespace daisy
  10:../DaisyExamples/libDaisy/src/sys/system.h **** {
  11:../DaisyExamples/libDaisy/src/sys/system.h **** /** A handle for interacting with the Core System.
  12:../DaisyExamples/libDaisy/src/sys/system.h ****  ** This includes the Clock tree, MPU, global DMA initialization,
  13:../DaisyExamples/libDaisy/src/sys/system.h ****  ** cache handling, and any other necessary global initiailzation
  14:../DaisyExamples/libDaisy/src/sys/system.h ****  **
  15:../DaisyExamples/libDaisy/src/sys/system.h ****  ** @author shensley
  16:../DaisyExamples/libDaisy/src/sys/system.h ****  ** @ingroup system
  17:../DaisyExamples/libDaisy/src/sys/system.h ****  */
  18:../DaisyExamples/libDaisy/src/sys/system.h **** class System
  19:../DaisyExamples/libDaisy/src/sys/system.h **** {
  20:../DaisyExamples/libDaisy/src/sys/system.h ****   public:
  21:../DaisyExamples/libDaisy/src/sys/system.h ****     /** Contains settings for initializing the System */
  22:../DaisyExamples/libDaisy/src/sys/system.h ****     struct Config
  23:../DaisyExamples/libDaisy/src/sys/system.h ****     {
  24:../DaisyExamples/libDaisy/src/sys/system.h ****         /** Specifies the system clock frequency that feeds APB/AHB clocks, etc. */
  25:../DaisyExamples/libDaisy/src/sys/system.h ****         enum class SysClkFreq
  26:../DaisyExamples/libDaisy/src/sys/system.h ****         {
  27:../DaisyExamples/libDaisy/src/sys/system.h ****             FREQ_400MHZ,
  28:../DaisyExamples/libDaisy/src/sys/system.h ****             FREQ_480MHZ,
  29:../DaisyExamples/libDaisy/src/sys/system.h ****         };
  30:../DaisyExamples/libDaisy/src/sys/system.h **** 
  31:../DaisyExamples/libDaisy/src/sys/system.h ****         /** Method to call on the struct to set to defaults
  32:../DaisyExamples/libDaisy/src/sys/system.h ****          ** CPU Freq set to 400MHz
  33:../DaisyExamples/libDaisy/src/sys/system.h ****          ** Cache Enabled
  34:../DaisyExamples/libDaisy/src/sys/system.h ****          ** */
  35:../DaisyExamples/libDaisy/src/sys/system.h ****         void Defaults()
  36:../DaisyExamples/libDaisy/src/sys/system.h ****         {
  37:../DaisyExamples/libDaisy/src/sys/system.h ****             cpu_freq    = SysClkFreq::FREQ_400MHZ;
  38:../DaisyExamples/libDaisy/src/sys/system.h ****             use_dcache  = true;
  39:../DaisyExamples/libDaisy/src/sys/system.h ****             use_icache  = true;
  40:../DaisyExamples/libDaisy/src/sys/system.h ****             skip_clocks = false;
  41:../DaisyExamples/libDaisy/src/sys/system.h ****         }
  42:../DaisyExamples/libDaisy/src/sys/system.h **** 
  43:../DaisyExamples/libDaisy/src/sys/system.h ****         /** Method to call on the struct to set to boost mode:
  44:../DaisyExamples/libDaisy/src/sys/system.h ****          ** CPU Freq set to 480MHz
  45:../DaisyExamples/libDaisy/src/sys/system.h ****          ** Cache Enabled
  46:../DaisyExamples/libDaisy/src/sys/system.h ****          ** */
  47:../DaisyExamples/libDaisy/src/sys/system.h ****         void Boost()
  48:../DaisyExamples/libDaisy/src/sys/system.h ****         {
  49:../DaisyExamples/libDaisy/src/sys/system.h ****             cpu_freq    = SysClkFreq::FREQ_480MHZ;
  50:../DaisyExamples/libDaisy/src/sys/system.h ****             use_dcache  = true;
  51:../DaisyExamples/libDaisy/src/sys/system.h ****             use_icache  = true;
  52:../DaisyExamples/libDaisy/src/sys/system.h ****             skip_clocks = false;
ARM GAS  /var/folders/7c/668hyr3s7rlgsbdftclf3hsr0000gn/T//cczSPkjU.s 			page 6


  53:../DaisyExamples/libDaisy/src/sys/system.h ****         }
  54:../DaisyExamples/libDaisy/src/sys/system.h **** 
  55:../DaisyExamples/libDaisy/src/sys/system.h ****         SysClkFreq cpu_freq;
  56:../DaisyExamples/libDaisy/src/sys/system.h ****         bool       use_dcache;
  57:../DaisyExamples/libDaisy/src/sys/system.h ****         bool       use_icache;
  58:../DaisyExamples/libDaisy/src/sys/system.h ****         bool       skip_clocks;
  59:../DaisyExamples/libDaisy/src/sys/system.h ****     };
  60:../DaisyExamples/libDaisy/src/sys/system.h **** 
  61:../DaisyExamples/libDaisy/src/sys/system.h ****     /** Describes the different regions of memory available to the Daisy */
  62:../DaisyExamples/libDaisy/src/sys/system.h ****     enum MemoryRegion
  63:../DaisyExamples/libDaisy/src/sys/system.h ****     {
  64:../DaisyExamples/libDaisy/src/sys/system.h ****         INTERNAL_FLASH = 0,
  65:../DaisyExamples/libDaisy/src/sys/system.h ****         ITCMRAM,
  66:../DaisyExamples/libDaisy/src/sys/system.h ****         DTCMRAM,
  67:../DaisyExamples/libDaisy/src/sys/system.h ****         SRAM_D1,
  68:../DaisyExamples/libDaisy/src/sys/system.h ****         SRAM_D2,
  69:../DaisyExamples/libDaisy/src/sys/system.h ****         SRAM_D3,
  70:../DaisyExamples/libDaisy/src/sys/system.h ****         SDRAM,
  71:../DaisyExamples/libDaisy/src/sys/system.h ****         QSPI,
  72:../DaisyExamples/libDaisy/src/sys/system.h ****         INVALID_ADDRESS,
  73:../DaisyExamples/libDaisy/src/sys/system.h ****     };
  74:../DaisyExamples/libDaisy/src/sys/system.h **** 
  75:../DaisyExamples/libDaisy/src/sys/system.h ****     /** Bootloader struct for controlling bootloading parameters */
  76:../DaisyExamples/libDaisy/src/sys/system.h ****     struct BootInfo
  77:../DaisyExamples/libDaisy/src/sys/system.h ****     {
  78:../DaisyExamples/libDaisy/src/sys/system.h ****         enum class Type : uint32_t
  79:../DaisyExamples/libDaisy/src/sys/system.h ****         {
  80:../DaisyExamples/libDaisy/src/sys/system.h ****             INVALID      = 0x00000000,
  81:../DaisyExamples/libDaisy/src/sys/system.h ****             JUMP         = 0xDEADBEEF,
  82:../DaisyExamples/libDaisy/src/sys/system.h ****             SKIP_TIMEOUT = 0x5AFEB007,
  83:../DaisyExamples/libDaisy/src/sys/system.h ****             INF_TIMEOUT  = 0xB0074EFA,
  84:../DaisyExamples/libDaisy/src/sys/system.h ****         } status;
  85:../DaisyExamples/libDaisy/src/sys/system.h ****         uint32_t data;
  86:../DaisyExamples/libDaisy/src/sys/system.h ****         enum class Version : uint32_t
  87:../DaisyExamples/libDaisy/src/sys/system.h ****         {
  88:../DaisyExamples/libDaisy/src/sys/system.h ****             LT_v6_0 = 0, // Less than v6.0
  89:../DaisyExamples/libDaisy/src/sys/system.h ****             NONE,        // No bootloader present
  90:../DaisyExamples/libDaisy/src/sys/system.h ****             v6_0,        // v6.0
  91:../DaisyExamples/libDaisy/src/sys/system.h ****             v6_1,        // v6.1 or greater
  92:../DaisyExamples/libDaisy/src/sys/system.h ****             LAST
  93:../DaisyExamples/libDaisy/src/sys/system.h ****         } version;
  94:../DaisyExamples/libDaisy/src/sys/system.h ****     };
  95:../DaisyExamples/libDaisy/src/sys/system.h **** 
  96:../DaisyExamples/libDaisy/src/sys/system.h ****     System() {}
  97:../DaisyExamples/libDaisy/src/sys/system.h ****     ~System() {}
 110              		.loc 5 97 5 view .LVU7
 111              		.loc 5 97 5 is_stmt 0 view .LVU8
 112              	.LBE369:
 113              	.LBB370:
 114              	.LBI370:
 115              		.file 6 "../DaisyExamples/libDaisy/src/hid/usb.h"
   1:../DaisyExamples/libDaisy/src/hid/usb.h **** #pragma once
   2:../DaisyExamples/libDaisy/src/hid/usb.h **** #ifndef DSY_HID_USB_H
   3:../DaisyExamples/libDaisy/src/hid/usb.h **** #define DSY_HID_USB_H
   4:../DaisyExamples/libDaisy/src/hid/usb.h **** #include <stdint.h>
   5:../DaisyExamples/libDaisy/src/hid/usb.h **** #include <stdlib.h>
   6:../DaisyExamples/libDaisy/src/hid/usb.h **** 
ARM GAS  /var/folders/7c/668hyr3s7rlgsbdftclf3hsr0000gn/T//cczSPkjU.s 			page 7


   7:../DaisyExamples/libDaisy/src/hid/usb.h **** namespace daisy
   8:../DaisyExamples/libDaisy/src/hid/usb.h **** /** @addtogroup human_interface
   9:../DaisyExamples/libDaisy/src/hid/usb.h ****     @{
  10:../DaisyExamples/libDaisy/src/hid/usb.h **** */
  11:../DaisyExamples/libDaisy/src/hid/usb.h **** 
  12:../DaisyExamples/libDaisy/src/hid/usb.h **** {
  13:../DaisyExamples/libDaisy/src/hid/usb.h **** /** 
  14:../DaisyExamples/libDaisy/src/hid/usb.h ****     @brief Interface for initializing and using the USB Peripherals on the daisy
  15:../DaisyExamples/libDaisy/src/hid/usb.h ****     @author Stephen Hensley
  16:../DaisyExamples/libDaisy/src/hid/usb.h ****     @date December 2019
  17:../DaisyExamples/libDaisy/src/hid/usb.h **** */
  18:../DaisyExamples/libDaisy/src/hid/usb.h **** class UsbHandle
  19:../DaisyExamples/libDaisy/src/hid/usb.h **** {
  20:../DaisyExamples/libDaisy/src/hid/usb.h ****   public:
  21:../DaisyExamples/libDaisy/src/hid/usb.h ****     /** Return values for USBHandle Functions */
  22:../DaisyExamples/libDaisy/src/hid/usb.h ****     enum class Result
  23:../DaisyExamples/libDaisy/src/hid/usb.h ****     {
  24:../DaisyExamples/libDaisy/src/hid/usb.h ****         OK,
  25:../DaisyExamples/libDaisy/src/hid/usb.h ****         ERR,
  26:../DaisyExamples/libDaisy/src/hid/usb.h ****     };
  27:../DaisyExamples/libDaisy/src/hid/usb.h **** 
  28:../DaisyExamples/libDaisy/src/hid/usb.h ****     /** Specified which of the two USB Peripherals to initialize. */
  29:../DaisyExamples/libDaisy/src/hid/usb.h ****     enum UsbPeriph
  30:../DaisyExamples/libDaisy/src/hid/usb.h ****     {
  31:../DaisyExamples/libDaisy/src/hid/usb.h ****         FS_INTERNAL, /**< Internal pin */
  32:../DaisyExamples/libDaisy/src/hid/usb.h ****         FS_EXTERNAL, /**< FS External D+ pin is Pin 38 (GPIO32). FS External D- pin is Pin 37 (GPIO
  33:../DaisyExamples/libDaisy/src/hid/usb.h ****         FS_BOTH,     /**< Both */
  34:../DaisyExamples/libDaisy/src/hid/usb.h ****     };
  35:../DaisyExamples/libDaisy/src/hid/usb.h **** 
  36:../DaisyExamples/libDaisy/src/hid/usb.h **** 
  37:../DaisyExamples/libDaisy/src/hid/usb.h ****     /** Function called upon reception of a buffer */
  38:../DaisyExamples/libDaisy/src/hid/usb.h ****     typedef void (*ReceiveCallback)(uint8_t* buff, uint32_t* len);
  39:../DaisyExamples/libDaisy/src/hid/usb.h **** 
  40:../DaisyExamples/libDaisy/src/hid/usb.h ****     UsbHandle() {}
  41:../DaisyExamples/libDaisy/src/hid/usb.h **** 
  42:../DaisyExamples/libDaisy/src/hid/usb.h ****     ~UsbHandle() {}
 116              		.loc 6 42 5 is_stmt 1 view .LVU9
 117              		.loc 6 42 5 is_stmt 0 view .LVU10
 118              	.LBE370:
 119              	.LBB371:
 120              	.LBI371:
 121              		.file 7 "../DaisyExamples/libDaisy/src/per/adc.h"
   1:../DaisyExamples/libDaisy/src/per/adc.h **** #pragma once
   2:../DaisyExamples/libDaisy/src/per/adc.h **** #ifndef DSY_ADC_H
   3:../DaisyExamples/libDaisy/src/per/adc.h **** #define DSY_ADC_H /**< Macro */
   4:../DaisyExamples/libDaisy/src/per/adc.h **** #include <stdint.h>
   5:../DaisyExamples/libDaisy/src/per/adc.h **** #include <stdlib.h>
   6:../DaisyExamples/libDaisy/src/per/adc.h **** #include "daisy_core.h"
   7:../DaisyExamples/libDaisy/src/per/adc.h **** #include "per/gpio.h"
   8:../DaisyExamples/libDaisy/src/per/adc.h **** 
   9:../DaisyExamples/libDaisy/src/per/adc.h **** #define DSY_ADC_MAX_CHANNELS 16 /**< Maximum number of ADC channels */
  10:../DaisyExamples/libDaisy/src/per/adc.h **** 
  11:../DaisyExamples/libDaisy/src/per/adc.h **** namespace daisy
  12:../DaisyExamples/libDaisy/src/per/adc.h **** {
  13:../DaisyExamples/libDaisy/src/per/adc.h **** /** @addtogroup per_analog
  14:../DaisyExamples/libDaisy/src/per/adc.h ****     @{
  15:../DaisyExamples/libDaisy/src/per/adc.h **** */
ARM GAS  /var/folders/7c/668hyr3s7rlgsbdftclf3hsr0000gn/T//cczSPkjU.s 			page 8


  16:../DaisyExamples/libDaisy/src/per/adc.h **** 
  17:../DaisyExamples/libDaisy/src/per/adc.h **** /* While there may not be many configuration options here,
  18:../DaisyExamples/libDaisy/src/per/adc.h **** using a struct like this allows us to add more configuration
  19:../DaisyExamples/libDaisy/src/per/adc.h **** later without breaking existing functionality.
  20:../DaisyExamples/libDaisy/src/per/adc.h **** */
  21:../DaisyExamples/libDaisy/src/per/adc.h **** 
  22:../DaisyExamples/libDaisy/src/per/adc.h **** /** @brief   Configuration Structure for an ADC Channel 
  23:../DaisyExamples/libDaisy/src/per/adc.h ****  *  @details This can be used to configure a a single input, 
  24:../DaisyExamples/libDaisy/src/per/adc.h ****  *           or a multiplexed input, allowing up to 8 inputs on 
  25:../DaisyExamples/libDaisy/src/per/adc.h ****  *           one channel.
  26:../DaisyExamples/libDaisy/src/per/adc.h ****  *  @note    Sharing data lines to multiple muxes _is_ possible, but
  27:../DaisyExamples/libDaisy/src/per/adc.h ****  *           each channel sharing data lines must be set to the maximum
  28:../DaisyExamples/libDaisy/src/per/adc.h ****  *           number of channels, even if some multiplexers have fewer
  29:../DaisyExamples/libDaisy/src/per/adc.h ****  *           inputs connected.
  30:../DaisyExamples/libDaisy/src/per/adc.h **** */
  31:../DaisyExamples/libDaisy/src/per/adc.h **** struct AdcChannelConfig
  32:../DaisyExamples/libDaisy/src/per/adc.h **** {
  33:../DaisyExamples/libDaisy/src/per/adc.h ****     /** Which pin to use for multiplexing */
  34:../DaisyExamples/libDaisy/src/per/adc.h ****     enum MuxPin
  35:../DaisyExamples/libDaisy/src/per/adc.h ****     {
  36:../DaisyExamples/libDaisy/src/per/adc.h ****         MUX_SEL_0,    /**< & */
  37:../DaisyExamples/libDaisy/src/per/adc.h ****         MUX_SEL_1,    /**< & */
  38:../DaisyExamples/libDaisy/src/per/adc.h ****         MUX_SEL_2,    /**< & */
  39:../DaisyExamples/libDaisy/src/per/adc.h ****         MUX_SEL_LAST, /**< & */
  40:../DaisyExamples/libDaisy/src/per/adc.h ****     };
  41:../DaisyExamples/libDaisy/src/per/adc.h **** 
  42:../DaisyExamples/libDaisy/src/per/adc.h ****     /** \brief per channel conversion speed added to fixed time based on bitdepth, etc. */
  43:../DaisyExamples/libDaisy/src/per/adc.h ****     enum ConversionSpeed
  44:../DaisyExamples/libDaisy/src/per/adc.h ****     {
  45:../DaisyExamples/libDaisy/src/per/adc.h ****         SPEED_1CYCLES_5,
  46:../DaisyExamples/libDaisy/src/per/adc.h ****         SPEED_2CYCLES_5,
  47:../DaisyExamples/libDaisy/src/per/adc.h ****         SPEED_8CYCLES_5,
  48:../DaisyExamples/libDaisy/src/per/adc.h ****         SPEED_16CYCLES_5,
  49:../DaisyExamples/libDaisy/src/per/adc.h ****         SPEED_32CYCLES_5,
  50:../DaisyExamples/libDaisy/src/per/adc.h ****         SPEED_64CYCLES_5,
  51:../DaisyExamples/libDaisy/src/per/adc.h ****         SPEED_387CYCLES_5,
  52:../DaisyExamples/libDaisy/src/per/adc.h ****         SPEED_810CYCLES_5,
  53:../DaisyExamples/libDaisy/src/per/adc.h ****     };
  54:../DaisyExamples/libDaisy/src/per/adc.h **** 
  55:../DaisyExamples/libDaisy/src/per/adc.h ****     /** Initializes a single ADC pin as an ADC. 
  56:../DaisyExamples/libDaisy/src/per/adc.h ****     \param pin Pin to init.
  57:../DaisyExamples/libDaisy/src/per/adc.h ****     \param speed conversion speed for this pin defaults to 8.5 cycles
  58:../DaisyExamples/libDaisy/src/per/adc.h ****      */
  59:../DaisyExamples/libDaisy/src/per/adc.h ****     void InitSingle(dsy_gpio_pin pin, ConversionSpeed speed = SPEED_8CYCLES_5);
  60:../DaisyExamples/libDaisy/src/per/adc.h **** 
  61:../DaisyExamples/libDaisy/src/per/adc.h ****     /** 
  62:../DaisyExamples/libDaisy/src/per/adc.h ****     Initializes a single ADC pin as a Multiplexed ADC.
  63:../DaisyExamples/libDaisy/src/per/adc.h ****     Requires a CD405X Multiplexer connected to the pin.
  64:../DaisyExamples/libDaisy/src/per/adc.h ****     You only need to supply the mux pins that are required,
  65:../DaisyExamples/libDaisy/src/per/adc.h ****     e.g. a 4052 mux would only require mux_0 and mux_1.
  66:../DaisyExamples/libDaisy/src/per/adc.h ****     Internal Callbacks handle the pin addressing.
  67:../DaisyExamples/libDaisy/src/per/adc.h ****     \param adc_pin &
  68:../DaisyExamples/libDaisy/src/per/adc.h ****     \param mux_channels must be 1-8
  69:../DaisyExamples/libDaisy/src/per/adc.h ****     \param mux_0 First mux pin
  70:../DaisyExamples/libDaisy/src/per/adc.h ****     \param mux_1 Second mux pin
  71:../DaisyExamples/libDaisy/src/per/adc.h ****     \param mux_2 Third mux pin
  72:../DaisyExamples/libDaisy/src/per/adc.h ****     \param speed conversion speed for this pin defaults to 8.5 cycles
ARM GAS  /var/folders/7c/668hyr3s7rlgsbdftclf3hsr0000gn/T//cczSPkjU.s 			page 9


  73:../DaisyExamples/libDaisy/src/per/adc.h ****     */
  74:../DaisyExamples/libDaisy/src/per/adc.h ****     void InitMux(dsy_gpio_pin    adc_pin,
  75:../DaisyExamples/libDaisy/src/per/adc.h ****                  size_t          mux_channels,
  76:../DaisyExamples/libDaisy/src/per/adc.h ****                  dsy_gpio_pin    mux_0,
  77:../DaisyExamples/libDaisy/src/per/adc.h ****                  dsy_gpio_pin    mux_1 = {DSY_GPIOX, 0},
  78:../DaisyExamples/libDaisy/src/per/adc.h ****                  dsy_gpio_pin    mux_2 = {DSY_GPIOX, 0},
  79:../DaisyExamples/libDaisy/src/per/adc.h ****                  ConversionSpeed speed = SPEED_8CYCLES_5);
  80:../DaisyExamples/libDaisy/src/per/adc.h **** 
  81:../DaisyExamples/libDaisy/src/per/adc.h ****     dsy_gpio        pin_;                   /**< & */
  82:../DaisyExamples/libDaisy/src/per/adc.h ****     dsy_gpio        mux_pin_[MUX_SEL_LAST]; /**< & */
  83:../DaisyExamples/libDaisy/src/per/adc.h ****     uint8_t         mux_channels_;          /**< & */
  84:../DaisyExamples/libDaisy/src/per/adc.h ****     ConversionSpeed speed_;
  85:../DaisyExamples/libDaisy/src/per/adc.h **** };
  86:../DaisyExamples/libDaisy/src/per/adc.h **** 
  87:../DaisyExamples/libDaisy/src/per/adc.h **** /**
  88:../DaisyExamples/libDaisy/src/per/adc.h ****    @brief Handler for analog to digital conversion
  89:../DaisyExamples/libDaisy/src/per/adc.h **** */
  90:../DaisyExamples/libDaisy/src/per/adc.h **** class AdcHandle
  91:../DaisyExamples/libDaisy/src/per/adc.h **** {
  92:../DaisyExamples/libDaisy/src/per/adc.h ****   public:
  93:../DaisyExamples/libDaisy/src/per/adc.h ****     /** Supported oversampling amounts */
  94:../DaisyExamples/libDaisy/src/per/adc.h ****     enum OverSampling
  95:../DaisyExamples/libDaisy/src/per/adc.h ****     {
  96:../DaisyExamples/libDaisy/src/per/adc.h ****         OVS_NONE, /**< & */
  97:../DaisyExamples/libDaisy/src/per/adc.h ****         OVS_4,    /**< & */
  98:../DaisyExamples/libDaisy/src/per/adc.h ****         OVS_8,    /**< & */
  99:../DaisyExamples/libDaisy/src/per/adc.h ****         OVS_16,   /**< & */
 100:../DaisyExamples/libDaisy/src/per/adc.h ****         OVS_32,   /**< & */
 101:../DaisyExamples/libDaisy/src/per/adc.h ****         OVS_64,   /**< & */
 102:../DaisyExamples/libDaisy/src/per/adc.h ****         OVS_128,  /**< & */
 103:../DaisyExamples/libDaisy/src/per/adc.h ****         OVS_256,  /**< & */
 104:../DaisyExamples/libDaisy/src/per/adc.h ****         OVS_512,  /**< & */
 105:../DaisyExamples/libDaisy/src/per/adc.h ****         OVS_1024, /**< & */
 106:../DaisyExamples/libDaisy/src/per/adc.h ****         OVS_LAST, /**< & */
 107:../DaisyExamples/libDaisy/src/per/adc.h ****     };
 108:../DaisyExamples/libDaisy/src/per/adc.h **** 
 109:../DaisyExamples/libDaisy/src/per/adc.h ****     AdcHandle() {}
 110:../DaisyExamples/libDaisy/src/per/adc.h ****     ~AdcHandle() {}
 122              		.loc 7 110 5 is_stmt 1 view .LVU11
 123              		.loc 7 110 5 is_stmt 0 view .LVU12
 124              	.LBE371:
 125              	.LBB372:
 126              	.LBI372:
 127              		.file 8 "../DaisyExamples/libDaisy/src/hid/audio.h"
   1:../DaisyExamples/libDaisy/src/hid/audio.h **** #ifndef DSY_AUDIO_H
   2:../DaisyExamples/libDaisy/src/hid/audio.h **** #define DSY_AUDIO_H /**< & */
   3:../DaisyExamples/libDaisy/src/hid/audio.h **** 
   4:../DaisyExamples/libDaisy/src/hid/audio.h **** #include "per/sai.h"
   5:../DaisyExamples/libDaisy/src/hid/audio.h **** 
   6:../DaisyExamples/libDaisy/src/hid/audio.h **** namespace daisy
   7:../DaisyExamples/libDaisy/src/hid/audio.h **** {
   8:../DaisyExamples/libDaisy/src/hid/audio.h **** /** @brief Audio Engine Handle
   9:../DaisyExamples/libDaisy/src/hid/audio.h ****  *  @ingroup audio 
  10:../DaisyExamples/libDaisy/src/hid/audio.h ****  *  @details This class allows for higher level access to an audio engine.
  11:../DaisyExamples/libDaisy/src/hid/audio.h ****  *           If you're using a SOM like the DaisySeed or DaisyPatchSM (or any 
  12:../DaisyExamples/libDaisy/src/hid/audio.h ****  *            board that includes one of those objects) then the intialization
  13:../DaisyExamples/libDaisy/src/hid/audio.h ****  *            is already taken  care of.
ARM GAS  /var/folders/7c/668hyr3s7rlgsbdftclf3hsr0000gn/T//cczSPkjU.s 			page 10


  14:../DaisyExamples/libDaisy/src/hid/audio.h ****  *           If you're setting up your own custom hardware, or need to make changes
  15:../DaisyExamples/libDaisy/src/hid/audio.h ****  *           you will have to take the following steps:
  16:../DaisyExamples/libDaisy/src/hid/audio.h ****  *             1. Create and Initialize an SaiHandle or two depending on your requirements
  17:../DaisyExamples/libDaisy/src/hid/audio.h ****  *             2. Initialize the Audio Handle with the desired settings and the Initialized SaiHand
  18:../DaisyExamples/libDaisy/src/hid/audio.h ****  *             3. If the connected codec requires special configuration or initialization, do so
  19:../DaisyExamples/libDaisy/src/hid/audio.h ****  *             4. Write a callback method using either the AudioCallback or the InterleavingAudioCa
  20:../DaisyExamples/libDaisy/src/hid/audio.h ****  *             5. Start the Audio using one of the StartAudio function
  21:../DaisyExamples/libDaisy/src/hid/audio.h ****  */
  22:../DaisyExamples/libDaisy/src/hid/audio.h **** class AudioHandle
  23:../DaisyExamples/libDaisy/src/hid/audio.h **** {
  24:../DaisyExamples/libDaisy/src/hid/audio.h ****   public:
  25:../DaisyExamples/libDaisy/src/hid/audio.h ****     /** Manually configurable details about the Audio Engine */
  26:../DaisyExamples/libDaisy/src/hid/audio.h ****     /** TODO: Figure out how to get samplerate in here. */
  27:../DaisyExamples/libDaisy/src/hid/audio.h ****     struct Config
  28:../DaisyExamples/libDaisy/src/hid/audio.h ****     {
  29:../DaisyExamples/libDaisy/src/hid/audio.h ****         /** number of samples to process per callback */
  30:../DaisyExamples/libDaisy/src/hid/audio.h ****         size_t blocksize;
  31:../DaisyExamples/libDaisy/src/hid/audio.h **** 
  32:../DaisyExamples/libDaisy/src/hid/audio.h ****         /**< Sample rate of audio */
  33:../DaisyExamples/libDaisy/src/hid/audio.h ****         SaiHandle::Config::SampleRate samplerate;
  34:../DaisyExamples/libDaisy/src/hid/audio.h **** 
  35:../DaisyExamples/libDaisy/src/hid/audio.h ****         /** factor for adjustment before and after callback for hardware that may have extra headro
  36:../DaisyExamples/libDaisy/src/hid/audio.h ****         float postgain;
  37:../DaisyExamples/libDaisy/src/hid/audio.h **** 
  38:../DaisyExamples/libDaisy/src/hid/audio.h ****         /** factor for additional one-sided compensation to audio path for hardware that may
  39:../DaisyExamples/libDaisy/src/hid/audio.h ****          *  have unequal input/output ranges
  40:../DaisyExamples/libDaisy/src/hid/audio.h ****          */
  41:../DaisyExamples/libDaisy/src/hid/audio.h ****         float output_compensation;
  42:../DaisyExamples/libDaisy/src/hid/audio.h **** 
  43:../DaisyExamples/libDaisy/src/hid/audio.h ****         /** Sets default values for config struct */
  44:../DaisyExamples/libDaisy/src/hid/audio.h ****         Config()
  45:../DaisyExamples/libDaisy/src/hid/audio.h ****         : blocksize(48),
  46:../DaisyExamples/libDaisy/src/hid/audio.h ****           samplerate(SaiHandle::Config::SampleRate::SAI_48KHZ),
  47:../DaisyExamples/libDaisy/src/hid/audio.h ****           postgain(1.f),
  48:../DaisyExamples/libDaisy/src/hid/audio.h ****           output_compensation(1.f)
  49:../DaisyExamples/libDaisy/src/hid/audio.h ****         {
  50:../DaisyExamples/libDaisy/src/hid/audio.h ****         }
  51:../DaisyExamples/libDaisy/src/hid/audio.h ****     };
  52:../DaisyExamples/libDaisy/src/hid/audio.h **** 
  53:../DaisyExamples/libDaisy/src/hid/audio.h ****     enum class Result
  54:../DaisyExamples/libDaisy/src/hid/audio.h ****     {
  55:../DaisyExamples/libDaisy/src/hid/audio.h ****         OK,
  56:../DaisyExamples/libDaisy/src/hid/audio.h ****         ERR,
  57:../DaisyExamples/libDaisy/src/hid/audio.h ****     };
  58:../DaisyExamples/libDaisy/src/hid/audio.h **** 
  59:../DaisyExamples/libDaisy/src/hid/audio.h ****     /** Non-Interleaving input buffer
  60:../DaisyExamples/libDaisy/src/hid/audio.h ****      * Buffer arranged by float[chn][sample] 
  61:../DaisyExamples/libDaisy/src/hid/audio.h ****      * const so that the user can't modify the input
  62:../DaisyExamples/libDaisy/src/hid/audio.h ****      */
  63:../DaisyExamples/libDaisy/src/hid/audio.h ****     typedef const float* const* InputBuffer;
  64:../DaisyExamples/libDaisy/src/hid/audio.h **** 
  65:../DaisyExamples/libDaisy/src/hid/audio.h ****     /** Non-Interleaving output buffer
  66:../DaisyExamples/libDaisy/src/hid/audio.h ****      * Arranged by float[chn][sample] 
  67:../DaisyExamples/libDaisy/src/hid/audio.h ****      */
  68:../DaisyExamples/libDaisy/src/hid/audio.h ****     typedef float** OutputBuffer;
  69:../DaisyExamples/libDaisy/src/hid/audio.h **** 
  70:../DaisyExamples/libDaisy/src/hid/audio.h ****     /** Type for a Non-Interleaving audio callback 
ARM GAS  /var/folders/7c/668hyr3s7rlgsbdftclf3hsr0000gn/T//cczSPkjU.s 			page 11


  71:../DaisyExamples/libDaisy/src/hid/audio.h ****      * Non-Interleaving audio callbacks in daisy will be of this type
  72:../DaisyExamples/libDaisy/src/hid/audio.h ****      */
  73:../DaisyExamples/libDaisy/src/hid/audio.h ****     typedef void (*AudioCallback)(InputBuffer  in,
  74:../DaisyExamples/libDaisy/src/hid/audio.h ****                                   OutputBuffer out,
  75:../DaisyExamples/libDaisy/src/hid/audio.h ****                                   size_t       size);
  76:../DaisyExamples/libDaisy/src/hid/audio.h **** 
  77:../DaisyExamples/libDaisy/src/hid/audio.h ****     /** Interleaving Input buffer
  78:../DaisyExamples/libDaisy/src/hid/audio.h ****      ** audio is prepared as { L0, R0, L1, R1, . . . LN, RN }]
  79:../DaisyExamples/libDaisy/src/hid/audio.h ****      ** this is const, as the user shouldn't modify it
  80:../DaisyExamples/libDaisy/src/hid/audio.h ****     */
  81:../DaisyExamples/libDaisy/src/hid/audio.h ****     typedef const float* InterleavingInputBuffer;
  82:../DaisyExamples/libDaisy/src/hid/audio.h **** 
  83:../DaisyExamples/libDaisy/src/hid/audio.h ****     /** Interleaving Output buffer 
  84:../DaisyExamples/libDaisy/src/hid/audio.h ****      ** audio is prepared as { L0, R0, L1, R1, . . . LN, RN }
  85:../DaisyExamples/libDaisy/src/hid/audio.h ****     */
  86:../DaisyExamples/libDaisy/src/hid/audio.h ****     typedef float* InterleavingOutputBuffer;
  87:../DaisyExamples/libDaisy/src/hid/audio.h **** 
  88:../DaisyExamples/libDaisy/src/hid/audio.h ****     /** Interleaving Audio Callback 
  89:../DaisyExamples/libDaisy/src/hid/audio.h ****      * Interleaving audio callbacks in daisy must be of this type
  90:../DaisyExamples/libDaisy/src/hid/audio.h ****      */
  91:../DaisyExamples/libDaisy/src/hid/audio.h ****     typedef void (*InterleavingAudioCallback)(InterleavingInputBuffer  in,
  92:../DaisyExamples/libDaisy/src/hid/audio.h ****                                               InterleavingOutputBuffer out,
  93:../DaisyExamples/libDaisy/src/hid/audio.h ****                                               size_t                   size);
  94:../DaisyExamples/libDaisy/src/hid/audio.h **** 
  95:../DaisyExamples/libDaisy/src/hid/audio.h ****     AudioHandle() : pimpl_(nullptr) {}
  96:../DaisyExamples/libDaisy/src/hid/audio.h ****     ~AudioHandle() {}
 128              		.loc 8 96 5 is_stmt 1 view .LVU13
 129              		.loc 8 96 5 is_stmt 0 view .LVU14
 130              	.LBE372:
 131              		.loc 4 22 19 view .LVU15
 132 0000 7047     		bx	lr
 133              		.cfi_endproc
 134              	.LFE4677:
 136              		.weak	_ZN5daisy9DaisySeedD1Ev
 137              		.thumb_set _ZN5daisy9DaisySeedD1Ev,_ZN5daisy9DaisySeedD2Ev
 138 0002 00BF     		.section	.text._ZN5daisy8DaisyPodD2Ev,"axG",%progbits,_ZN5daisy8DaisyPodD5Ev,comdat
 139              		.align	1
 140              		.p2align 2,,3
 141              		.weak	_ZN5daisy8DaisyPodD2Ev
 142              		.syntax unified
 143              		.thumb
 144              		.thumb_func
 146              	_ZN5daisy8DaisyPodD2Ev:
 147              	.LVL4:
 148              	.LFB4686:
 149              		.file 9 "../DaisyExamples/libDaisy/src/daisy_pod.h"
   1:../DaisyExamples/libDaisy/src/daisy_pod.h **** #pragma once
   2:../DaisyExamples/libDaisy/src/daisy_pod.h **** #ifndef DSY_POD_BSP_H
   3:../DaisyExamples/libDaisy/src/daisy_pod.h **** #define DSY_POD_BSP_H
   4:../DaisyExamples/libDaisy/src/daisy_pod.h **** 
   5:../DaisyExamples/libDaisy/src/daisy_pod.h **** #include "daisy_seed.h"
   6:../DaisyExamples/libDaisy/src/daisy_pod.h **** 
   7:../DaisyExamples/libDaisy/src/daisy_pod.h **** namespace daisy
   8:../DaisyExamples/libDaisy/src/daisy_pod.h **** {
   9:../DaisyExamples/libDaisy/src/daisy_pod.h **** /**
  10:../DaisyExamples/libDaisy/src/daisy_pod.h ****     @brief Class that handles initializing all of the hardware specific to the Daisy Patch Board. \
  11:../DaisyExamples/libDaisy/src/daisy_pod.h ****     Helper funtions are also in place to provide easy access to built-in controls and peripherals.
ARM GAS  /var/folders/7c/668hyr3s7rlgsbdftclf3hsr0000gn/T//cczSPkjU.s 			page 12


  12:../DaisyExamples/libDaisy/src/daisy_pod.h ****     @author Stephen Hensley
  13:../DaisyExamples/libDaisy/src/daisy_pod.h ****     @date November 2019
  14:../DaisyExamples/libDaisy/src/daisy_pod.h ****     @ingroup boards
  15:../DaisyExamples/libDaisy/src/daisy_pod.h **** */
  16:../DaisyExamples/libDaisy/src/daisy_pod.h **** class DaisyPod
  17:../DaisyExamples/libDaisy/src/daisy_pod.h **** {
  18:../DaisyExamples/libDaisy/src/daisy_pod.h ****   public:
  19:../DaisyExamples/libDaisy/src/daisy_pod.h ****     /** Switches */
  20:../DaisyExamples/libDaisy/src/daisy_pod.h ****     enum Sw
  21:../DaisyExamples/libDaisy/src/daisy_pod.h ****     {
  22:../DaisyExamples/libDaisy/src/daisy_pod.h ****         BUTTON_1,    /** & */
  23:../DaisyExamples/libDaisy/src/daisy_pod.h ****         BUTTON_2,    /** & */
  24:../DaisyExamples/libDaisy/src/daisy_pod.h ****         BUTTON_LAST, /** &  */
  25:../DaisyExamples/libDaisy/src/daisy_pod.h ****     };
  26:../DaisyExamples/libDaisy/src/daisy_pod.h **** 
  27:../DaisyExamples/libDaisy/src/daisy_pod.h ****     /** Knobs */
  28:../DaisyExamples/libDaisy/src/daisy_pod.h ****     enum Knob
  29:../DaisyExamples/libDaisy/src/daisy_pod.h ****     {
  30:../DaisyExamples/libDaisy/src/daisy_pod.h ****         KNOB_1,    /** &  */
  31:../DaisyExamples/libDaisy/src/daisy_pod.h ****         KNOB_2,    /** & */
  32:../DaisyExamples/libDaisy/src/daisy_pod.h ****         KNOB_LAST, /** & */
  33:../DaisyExamples/libDaisy/src/daisy_pod.h ****     };
  34:../DaisyExamples/libDaisy/src/daisy_pod.h **** 
  35:../DaisyExamples/libDaisy/src/daisy_pod.h ****     DaisyPod() {}
  36:../DaisyExamples/libDaisy/src/daisy_pod.h ****     ~DaisyPod() {}
 150              		.loc 9 36 5 is_stmt 1 view -0
 151              		.cfi_startproc
 152              		@ args = 0, pretend = 0, frame = 0
 153              		@ frame_needed = 0, uses_anonymous_args = 0
 154              		@ link register save eliminated.
 155              	.LBB373:
 156              	.LBI373:
 157              		.file 10 "../DaisyExamples/libDaisy/src/hid/midi.h"
   1:../DaisyExamples/libDaisy/src/hid/midi.h **** #pragma once
   2:../DaisyExamples/libDaisy/src/hid/midi.h **** #ifndef DSY_MIDI_H
   3:../DaisyExamples/libDaisy/src/hid/midi.h **** #define DSY_MIDI_H
   4:../DaisyExamples/libDaisy/src/hid/midi.h **** 
   5:../DaisyExamples/libDaisy/src/hid/midi.h **** #include <stdint.h>
   6:../DaisyExamples/libDaisy/src/hid/midi.h **** #include <stdlib.h>
   7:../DaisyExamples/libDaisy/src/hid/midi.h **** #include <algorithm>
   8:../DaisyExamples/libDaisy/src/hid/midi.h **** #include "per/uart.h"
   9:../DaisyExamples/libDaisy/src/hid/midi.h **** #include "util/ringbuffer.h"
  10:../DaisyExamples/libDaisy/src/hid/midi.h **** #include "util/FIFO.h"
  11:../DaisyExamples/libDaisy/src/hid/midi.h **** #include "hid/midi_parser.h"
  12:../DaisyExamples/libDaisy/src/hid/midi.h **** #include "hid/usb_midi.h"
  13:../DaisyExamples/libDaisy/src/hid/midi.h **** #include "sys/dma.h"
  14:../DaisyExamples/libDaisy/src/hid/midi.h **** #include "sys/system.h"
  15:../DaisyExamples/libDaisy/src/hid/midi.h **** 
  16:../DaisyExamples/libDaisy/src/hid/midi.h **** namespace daisy
  17:../DaisyExamples/libDaisy/src/hid/midi.h **** {
  18:../DaisyExamples/libDaisy/src/hid/midi.h **** /** @brief   Transport layer for sending and receiving MIDI data over UART
  19:../DaisyExamples/libDaisy/src/hid/midi.h ****  *  @details This is the mode of communication used for TRS and DIN MIDI
  20:../DaisyExamples/libDaisy/src/hid/midi.h ****  *           There is an additional 2kB of RAM data used within this class
  21:../DaisyExamples/libDaisy/src/hid/midi.h ****  *           for processing bulk data from the UART peripheral
  22:../DaisyExamples/libDaisy/src/hid/midi.h ****  *  @ingroup midi
  23:../DaisyExamples/libDaisy/src/hid/midi.h **** */
  24:../DaisyExamples/libDaisy/src/hid/midi.h **** class MidiUartTransport
ARM GAS  /var/folders/7c/668hyr3s7rlgsbdftclf3hsr0000gn/T//cczSPkjU.s 			page 13


  25:../DaisyExamples/libDaisy/src/hid/midi.h **** {
  26:../DaisyExamples/libDaisy/src/hid/midi.h ****   public:
  27:../DaisyExamples/libDaisy/src/hid/midi.h ****     typedef void (*MidiRxParseCallback)(uint8_t* data,
  28:../DaisyExamples/libDaisy/src/hid/midi.h ****                                         size_t   size,
  29:../DaisyExamples/libDaisy/src/hid/midi.h ****                                         void*    context);
  30:../DaisyExamples/libDaisy/src/hid/midi.h **** 
  31:../DaisyExamples/libDaisy/src/hid/midi.h ****     MidiUartTransport() {}
  32:../DaisyExamples/libDaisy/src/hid/midi.h ****     ~MidiUartTransport() {}
  33:../DaisyExamples/libDaisy/src/hid/midi.h **** 
  34:../DaisyExamples/libDaisy/src/hid/midi.h ****     /** @brief Configuration structure for UART MIDI */
  35:../DaisyExamples/libDaisy/src/hid/midi.h ****     struct Config
  36:../DaisyExamples/libDaisy/src/hid/midi.h ****     {
  37:../DaisyExamples/libDaisy/src/hid/midi.h ****         UartHandler::Config::Peripheral periph;
  38:../DaisyExamples/libDaisy/src/hid/midi.h ****         dsy_gpio_pin                    rx;
  39:../DaisyExamples/libDaisy/src/hid/midi.h ****         dsy_gpio_pin                    tx;
  40:../DaisyExamples/libDaisy/src/hid/midi.h **** 
  41:../DaisyExamples/libDaisy/src/hid/midi.h ****         /** Pointer to buffer for DMA UART rx byte transfer in background.
  42:../DaisyExamples/libDaisy/src/hid/midi.h ****          *
  43:../DaisyExamples/libDaisy/src/hid/midi.h ****          *  @details By default this uses a shared buffer in DMA_BUFFER_MEM_SECTION,
  44:../DaisyExamples/libDaisy/src/hid/midi.h ****          *           which can only be utilized for a single UART peripheral. To
  45:../DaisyExamples/libDaisy/src/hid/midi.h ****          *           use MIDI with multiple UART peripherals, you must provide your own
  46:../DaisyExamples/libDaisy/src/hid/midi.h ****          *           buffer, allocated to a DMA-capable memory section.
  47:../DaisyExamples/libDaisy/src/hid/midi.h ****          */
  48:../DaisyExamples/libDaisy/src/hid/midi.h ****         uint8_t* rx_buffer;
  49:../DaisyExamples/libDaisy/src/hid/midi.h **** 
  50:../DaisyExamples/libDaisy/src/hid/midi.h ****         /** Size in bytes of rx_buffer.
  51:../DaisyExamples/libDaisy/src/hid/midi.h ****          *
  52:../DaisyExamples/libDaisy/src/hid/midi.h ****          *  @details This size determines the maximum Rx bytes readable by the UART in the backgrou
  53:../DaisyExamples/libDaisy/src/hid/midi.h ****          *           By default it's set to the size of the default shared rx_buffer (256 bytes).
  54:../DaisyExamples/libDaisy/src/hid/midi.h ****          *           While much smaller sizes can be used, data can get missed if the buffer is too
  55:../DaisyExamples/libDaisy/src/hid/midi.h ****          */
  56:../DaisyExamples/libDaisy/src/hid/midi.h ****         size_t rx_buffer_size;
  57:../DaisyExamples/libDaisy/src/hid/midi.h **** 
  58:../DaisyExamples/libDaisy/src/hid/midi.h ****         Config();
  59:../DaisyExamples/libDaisy/src/hid/midi.h ****     };
  60:../DaisyExamples/libDaisy/src/hid/midi.h **** 
  61:../DaisyExamples/libDaisy/src/hid/midi.h ****     /** @brief Initialization of UART using config struct */
  62:../DaisyExamples/libDaisy/src/hid/midi.h ****     inline void Init(Config config)
  63:../DaisyExamples/libDaisy/src/hid/midi.h ****     {
  64:../DaisyExamples/libDaisy/src/hid/midi.h ****         UartHandler::Config uart_config;
  65:../DaisyExamples/libDaisy/src/hid/midi.h **** 
  66:../DaisyExamples/libDaisy/src/hid/midi.h ****         //defaults
  67:../DaisyExamples/libDaisy/src/hid/midi.h ****         uart_config.baudrate   = 31250;
  68:../DaisyExamples/libDaisy/src/hid/midi.h ****         uart_config.stopbits   = UartHandler::Config::StopBits::BITS_1;
  69:../DaisyExamples/libDaisy/src/hid/midi.h ****         uart_config.parity     = UartHandler::Config::Parity::NONE;
  70:../DaisyExamples/libDaisy/src/hid/midi.h ****         uart_config.mode       = UartHandler::Config::Mode::TX_RX;
  71:../DaisyExamples/libDaisy/src/hid/midi.h ****         uart_config.wordlength = UartHandler::Config::WordLength::BITS_8;
  72:../DaisyExamples/libDaisy/src/hid/midi.h **** 
  73:../DaisyExamples/libDaisy/src/hid/midi.h ****         //user settings
  74:../DaisyExamples/libDaisy/src/hid/midi.h ****         uart_config.periph        = config.periph;
  75:../DaisyExamples/libDaisy/src/hid/midi.h ****         uart_config.pin_config.rx = config.rx;
  76:../DaisyExamples/libDaisy/src/hid/midi.h ****         uart_config.pin_config.tx = config.tx;
  77:../DaisyExamples/libDaisy/src/hid/midi.h **** 
  78:../DaisyExamples/libDaisy/src/hid/midi.h ****         rx_buffer      = config.rx_buffer;
  79:../DaisyExamples/libDaisy/src/hid/midi.h ****         rx_buffer_size = config.rx_buffer_size;
  80:../DaisyExamples/libDaisy/src/hid/midi.h **** 
  81:../DaisyExamples/libDaisy/src/hid/midi.h ****         /** zero the buffer to ensure emptiness regardless of source memory */
ARM GAS  /var/folders/7c/668hyr3s7rlgsbdftclf3hsr0000gn/T//cczSPkjU.s 			page 14


  82:../DaisyExamples/libDaisy/src/hid/midi.h ****         std::fill(rx_buffer, rx_buffer + rx_buffer_size, 0);
  83:../DaisyExamples/libDaisy/src/hid/midi.h **** 
  84:../DaisyExamples/libDaisy/src/hid/midi.h ****         uart_.Init(uart_config);
  85:../DaisyExamples/libDaisy/src/hid/midi.h ****     }
  86:../DaisyExamples/libDaisy/src/hid/midi.h **** 
  87:../DaisyExamples/libDaisy/src/hid/midi.h ****     /** @brief Start the UART peripheral in listening mode.
  88:../DaisyExamples/libDaisy/src/hid/midi.h ****      *  This will fill an internal data structure in the background */
  89:../DaisyExamples/libDaisy/src/hid/midi.h ****     inline void StartRx(MidiRxParseCallback parse_callback, void* context)
  90:../DaisyExamples/libDaisy/src/hid/midi.h ****     {
  91:../DaisyExamples/libDaisy/src/hid/midi.h ****         parse_context_  = context;
  92:../DaisyExamples/libDaisy/src/hid/midi.h ****         parse_callback_ = parse_callback;
  93:../DaisyExamples/libDaisy/src/hid/midi.h ****         dsy_dma_clear_cache_for_buffer((uint8_t*)this,
  94:../DaisyExamples/libDaisy/src/hid/midi.h ****                                        sizeof(MidiUartTransport));
  95:../DaisyExamples/libDaisy/src/hid/midi.h ****         uart_.DmaListenStart(
  96:../DaisyExamples/libDaisy/src/hid/midi.h ****             rx_buffer, rx_buffer_size, MidiUartTransport::rxCallback, this);
  97:../DaisyExamples/libDaisy/src/hid/midi.h ****     }
  98:../DaisyExamples/libDaisy/src/hid/midi.h **** 
  99:../DaisyExamples/libDaisy/src/hid/midi.h ****     /** @brief returns whether the UART peripheral is actively listening in the background or not *
 100:../DaisyExamples/libDaisy/src/hid/midi.h ****     inline bool RxActive() { return uart_.IsListening(); }
 101:../DaisyExamples/libDaisy/src/hid/midi.h **** 
 102:../DaisyExamples/libDaisy/src/hid/midi.h ****     /** @brief This is a no-op for UART transport - Rx is via DMA callback with circular buffer */
 103:../DaisyExamples/libDaisy/src/hid/midi.h ****     inline void FlushRx() {}
 104:../DaisyExamples/libDaisy/src/hid/midi.h **** 
 105:../DaisyExamples/libDaisy/src/hid/midi.h ****     /** @brief sends the buffer of bytes out of the UART peripheral */
 106:../DaisyExamples/libDaisy/src/hid/midi.h ****     inline void Tx(uint8_t* buff, size_t size) { uart_.PollTx(buff, size); }
 107:../DaisyExamples/libDaisy/src/hid/midi.h **** 
 108:../DaisyExamples/libDaisy/src/hid/midi.h ****   private:
 109:../DaisyExamples/libDaisy/src/hid/midi.h ****     UartHandler         uart_;
 110:../DaisyExamples/libDaisy/src/hid/midi.h ****     uint8_t*            rx_buffer;
 111:../DaisyExamples/libDaisy/src/hid/midi.h ****     size_t              rx_buffer_size;
 112:../DaisyExamples/libDaisy/src/hid/midi.h ****     void*               parse_context_;
 113:../DaisyExamples/libDaisy/src/hid/midi.h ****     MidiRxParseCallback parse_callback_;
 114:../DaisyExamples/libDaisy/src/hid/midi.h **** 
 115:../DaisyExamples/libDaisy/src/hid/midi.h ****     /** Static callback for Uart MIDI that occurs when
 116:../DaisyExamples/libDaisy/src/hid/midi.h ****          *  new data is available from the peripheral.
 117:../DaisyExamples/libDaisy/src/hid/midi.h ****          *  The new data is transferred from the peripheral to the
 118:../DaisyExamples/libDaisy/src/hid/midi.h ****          *  MIDI instance's byte FIFO that feeds the MIDI parser.
 119:../DaisyExamples/libDaisy/src/hid/midi.h ****          *
 120:../DaisyExamples/libDaisy/src/hid/midi.h ****          *  TODO: Handle UartHandler errors better/at all.
 121:../DaisyExamples/libDaisy/src/hid/midi.h ****          *  (If there is a UART error, there's not really any recovery
 122:../DaisyExamples/libDaisy/src/hid/midi.h ****          *  option at the moment)
 123:../DaisyExamples/libDaisy/src/hid/midi.h ****          */
 124:../DaisyExamples/libDaisy/src/hid/midi.h ****     static void rxCallback(uint8_t*            data,
 125:../DaisyExamples/libDaisy/src/hid/midi.h ****                            size_t              size,
 126:../DaisyExamples/libDaisy/src/hid/midi.h ****                            void*               context,
 127:../DaisyExamples/libDaisy/src/hid/midi.h ****                            UartHandler::Result res)
 128:../DaisyExamples/libDaisy/src/hid/midi.h ****     {
 129:../DaisyExamples/libDaisy/src/hid/midi.h ****         /** Read context as transport type */
 130:../DaisyExamples/libDaisy/src/hid/midi.h ****         MidiUartTransport* transport
 131:../DaisyExamples/libDaisy/src/hid/midi.h ****             = reinterpret_cast<MidiUartTransport*>(context);
 132:../DaisyExamples/libDaisy/src/hid/midi.h ****         if(res == UartHandler::Result::OK)
 133:../DaisyExamples/libDaisy/src/hid/midi.h ****         {
 134:../DaisyExamples/libDaisy/src/hid/midi.h ****             if(transport->parse_callback_)
 135:../DaisyExamples/libDaisy/src/hid/midi.h ****             {
 136:../DaisyExamples/libDaisy/src/hid/midi.h ****                 transport->parse_callback_(
 137:../DaisyExamples/libDaisy/src/hid/midi.h ****                     data, size, transport->parse_context_);
 138:../DaisyExamples/libDaisy/src/hid/midi.h ****             }
ARM GAS  /var/folders/7c/668hyr3s7rlgsbdftclf3hsr0000gn/T//cczSPkjU.s 			page 15


 139:../DaisyExamples/libDaisy/src/hid/midi.h ****         }
 140:../DaisyExamples/libDaisy/src/hid/midi.h ****     }
 141:../DaisyExamples/libDaisy/src/hid/midi.h **** };
 142:../DaisyExamples/libDaisy/src/hid/midi.h **** 
 143:../DaisyExamples/libDaisy/src/hid/midi.h **** /**
 144:../DaisyExamples/libDaisy/src/hid/midi.h ****     @brief Simple MIDI Handler \n
 145:../DaisyExamples/libDaisy/src/hid/midi.h ****     Parses bytes from an input into valid MidiEvents. \n
 146:../DaisyExamples/libDaisy/src/hid/midi.h ****     The MidiEvents fill a FIFO queue that the user can pop messages from.
 147:../DaisyExamples/libDaisy/src/hid/midi.h ****     @author shensley
 148:../DaisyExamples/libDaisy/src/hid/midi.h ****     @date March 2020
 149:../DaisyExamples/libDaisy/src/hid/midi.h ****     @ingroup midi
 150:../DaisyExamples/libDaisy/src/hid/midi.h **** */
 151:../DaisyExamples/libDaisy/src/hid/midi.h **** template <typename Transport>
 152:../DaisyExamples/libDaisy/src/hid/midi.h **** class MidiHandler
 153:../DaisyExamples/libDaisy/src/hid/midi.h **** {
 154:../DaisyExamples/libDaisy/src/hid/midi.h ****   public:
 155:../DaisyExamples/libDaisy/src/hid/midi.h ****     MidiHandler() {}
 156:../DaisyExamples/libDaisy/src/hid/midi.h ****     ~MidiHandler() {}
 158              		.loc 10 156 5 view .LVU17
 159              	.LBB374:
 160              	.LBI374:
 161              		.file 11 "../DaisyExamples/libDaisy/src/util/FIFO.h"
   1:../DaisyExamples/libDaisy/src/util/FIFO.h **** #pragma once
   2:../DaisyExamples/libDaisy/src/util/FIFO.h **** 
   3:../DaisyExamples/libDaisy/src/util/FIFO.h **** #include <stdint.h>
   4:../DaisyExamples/libDaisy/src/util/FIFO.h **** #include <stddef.h>
   5:../DaisyExamples/libDaisy/src/util/FIFO.h **** #include <initializer_list>
   6:../DaisyExamples/libDaisy/src/util/FIFO.h **** 
   7:../DaisyExamples/libDaisy/src/util/FIFO.h **** namespace daisy
   8:../DaisyExamples/libDaisy/src/util/FIFO.h **** {
   9:../DaisyExamples/libDaisy/src/util/FIFO.h **** /** Capacity-independent base class for FIFO. Use FIFO instead. */
  10:../DaisyExamples/libDaisy/src/util/FIFO.h **** template <typename T>
  11:../DaisyExamples/libDaisy/src/util/FIFO.h **** class FIFOBase
  12:../DaisyExamples/libDaisy/src/util/FIFO.h **** {
  13:../DaisyExamples/libDaisy/src/util/FIFO.h ****   protected:
  14:../DaisyExamples/libDaisy/src/util/FIFO.h ****     FIFOBase(T* buffer, size_t bufferSize)
  15:../DaisyExamples/libDaisy/src/util/FIFO.h ****     : buffer_(buffer), bufferSize_(bufferSize), bufferIn_(0), bufferOut_(0)
  16:../DaisyExamples/libDaisy/src/util/FIFO.h ****     {
  17:../DaisyExamples/libDaisy/src/util/FIFO.h ****     }
  18:../DaisyExamples/libDaisy/src/util/FIFO.h **** 
  19:../DaisyExamples/libDaisy/src/util/FIFO.h ****     FIFOBase(T* buffer, size_t bufferSize, std::initializer_list<T> valuesToAdd)
  20:../DaisyExamples/libDaisy/src/util/FIFO.h ****     : buffer_(buffer), bufferSize_(bufferSize), bufferIn_(0), bufferOut_(0)
  21:../DaisyExamples/libDaisy/src/util/FIFO.h ****     {
  22:../DaisyExamples/libDaisy/src/util/FIFO.h ****         PushBack(valuesToAdd);
  23:../DaisyExamples/libDaisy/src/util/FIFO.h ****     }
  24:../DaisyExamples/libDaisy/src/util/FIFO.h **** 
  25:../DaisyExamples/libDaisy/src/util/FIFO.h ****   public:
  26:../DaisyExamples/libDaisy/src/util/FIFO.h ****     /** Copies all elements from another FIFO */
  27:../DaisyExamples/libDaisy/src/util/FIFO.h ****     FIFOBase<T>& operator=(const FIFOBase<T>& other)
  28:../DaisyExamples/libDaisy/src/util/FIFO.h ****     {
  29:../DaisyExamples/libDaisy/src/util/FIFO.h ****         bufferIn_ = bufferOut_ = 0;
  30:../DaisyExamples/libDaisy/src/util/FIFO.h ****         if(!other.IsEmpty())
  31:../DaisyExamples/libDaisy/src/util/FIFO.h ****         {
  32:../DaisyExamples/libDaisy/src/util/FIFO.h ****             int readPtr = other.bufferOut_;
  33:../DaisyExamples/libDaisy/src/util/FIFO.h ****             while((readPtr != other.bufferIn_) && (bufferIn_ < bufferSize_))
  34:../DaisyExamples/libDaisy/src/util/FIFO.h ****             {
  35:../DaisyExamples/libDaisy/src/util/FIFO.h ****                 buffer_[bufferIn_++] = other.buffer_[readPtr++];
ARM GAS  /var/folders/7c/668hyr3s7rlgsbdftclf3hsr0000gn/T//cczSPkjU.s 			page 16


  36:../DaisyExamples/libDaisy/src/util/FIFO.h ****                 if(readPtr >= other.bufferSize_)
  37:../DaisyExamples/libDaisy/src/util/FIFO.h ****                     readPtr -= other.bufferSize_;
  38:../DaisyExamples/libDaisy/src/util/FIFO.h ****             }
  39:../DaisyExamples/libDaisy/src/util/FIFO.h ****         }
  40:../DaisyExamples/libDaisy/src/util/FIFO.h ****         return *this;
  41:../DaisyExamples/libDaisy/src/util/FIFO.h ****     }
  42:../DaisyExamples/libDaisy/src/util/FIFO.h ****     ~FIFOBase() {}
  43:../DaisyExamples/libDaisy/src/util/FIFO.h **** 
  44:../DaisyExamples/libDaisy/src/util/FIFO.h ****     /** Removes all elements from the FIFO */
  45:../DaisyExamples/libDaisy/src/util/FIFO.h ****     void Clear() { bufferIn_ = bufferOut_ = 0; }
  46:../DaisyExamples/libDaisy/src/util/FIFO.h **** 
  47:../DaisyExamples/libDaisy/src/util/FIFO.h ****     /** Adds an element to the back of the buffer, returning true on
  48:../DaisyExamples/libDaisy/src/util/FIFO.h ****         success */
  49:../DaisyExamples/libDaisy/src/util/FIFO.h ****     bool PushBack(const T& elementToAdd)
  50:../DaisyExamples/libDaisy/src/util/FIFO.h ****     {
  51:../DaisyExamples/libDaisy/src/util/FIFO.h ****         if(!IsFull())
  52:../DaisyExamples/libDaisy/src/util/FIFO.h ****         {
  53:../DaisyExamples/libDaisy/src/util/FIFO.h ****             buffer_[bufferIn_++] = elementToAdd;
  54:../DaisyExamples/libDaisy/src/util/FIFO.h ****             if(bufferIn_ >= bufferSize_)
  55:../DaisyExamples/libDaisy/src/util/FIFO.h ****                 bufferIn_ -= bufferSize_;
  56:../DaisyExamples/libDaisy/src/util/FIFO.h ****             return true;
  57:../DaisyExamples/libDaisy/src/util/FIFO.h ****         }
  58:../DaisyExamples/libDaisy/src/util/FIFO.h ****         return false;
  59:../DaisyExamples/libDaisy/src/util/FIFO.h ****     }
  60:../DaisyExamples/libDaisy/src/util/FIFO.h **** 
  61:../DaisyExamples/libDaisy/src/util/FIFO.h ****     /** Adds multiple elements and returns the number of elements that were added */
  62:../DaisyExamples/libDaisy/src/util/FIFO.h ****     int PushBack(std::initializer_list<T> valuesToAdd)
  63:../DaisyExamples/libDaisy/src/util/FIFO.h ****     {
  64:../DaisyExamples/libDaisy/src/util/FIFO.h ****         int numAdded = 0;
  65:../DaisyExamples/libDaisy/src/util/FIFO.h ****         for(const auto& v : valuesToAdd)
  66:../DaisyExamples/libDaisy/src/util/FIFO.h ****         {
  67:../DaisyExamples/libDaisy/src/util/FIFO.h ****             if(IsFull())
  68:../DaisyExamples/libDaisy/src/util/FIFO.h ****                 return numAdded;
  69:../DaisyExamples/libDaisy/src/util/FIFO.h **** 
  70:../DaisyExamples/libDaisy/src/util/FIFO.h ****             PushBack(v);
  71:../DaisyExamples/libDaisy/src/util/FIFO.h ****             numAdded++;
  72:../DaisyExamples/libDaisy/src/util/FIFO.h ****         }
  73:../DaisyExamples/libDaisy/src/util/FIFO.h ****         return numAdded;
  74:../DaisyExamples/libDaisy/src/util/FIFO.h ****     }
  75:../DaisyExamples/libDaisy/src/util/FIFO.h **** 
  76:../DaisyExamples/libDaisy/src/util/FIFO.h ****     /** returns a reference to the last element */
  77:../DaisyExamples/libDaisy/src/util/FIFO.h ****     T& Back()
  78:../DaisyExamples/libDaisy/src/util/FIFO.h ****     {
  79:../DaisyExamples/libDaisy/src/util/FIFO.h ****         if(IsEmpty())
  80:../DaisyExamples/libDaisy/src/util/FIFO.h ****             // invalid, but better not pass a temporary T() object as a reference...
  81:../DaisyExamples/libDaisy/src/util/FIFO.h ****             return buffer_[0];
  82:../DaisyExamples/libDaisy/src/util/FIFO.h ****         int idx = bufferIn_ - 1;
  83:../DaisyExamples/libDaisy/src/util/FIFO.h ****         if(idx < 0)
  84:../DaisyExamples/libDaisy/src/util/FIFO.h ****             idx += bufferSize_;
  85:../DaisyExamples/libDaisy/src/util/FIFO.h ****         return buffer_[idx];
  86:../DaisyExamples/libDaisy/src/util/FIFO.h ****     }
  87:../DaisyExamples/libDaisy/src/util/FIFO.h **** 
  88:../DaisyExamples/libDaisy/src/util/FIFO.h ****     /** returns a reference to the last element */
  89:../DaisyExamples/libDaisy/src/util/FIFO.h ****     const T& Back() const
  90:../DaisyExamples/libDaisy/src/util/FIFO.h ****     {
  91:../DaisyExamples/libDaisy/src/util/FIFO.h ****         if(IsEmpty())
  92:../DaisyExamples/libDaisy/src/util/FIFO.h ****             // invalid, but better not pass a temporary T() object as a reference...
ARM GAS  /var/folders/7c/668hyr3s7rlgsbdftclf3hsr0000gn/T//cczSPkjU.s 			page 17


  93:../DaisyExamples/libDaisy/src/util/FIFO.h ****             return buffer_[0];
  94:../DaisyExamples/libDaisy/src/util/FIFO.h ****         int idx = bufferIn_ - 1;
  95:../DaisyExamples/libDaisy/src/util/FIFO.h ****         if(idx < 0)
  96:../DaisyExamples/libDaisy/src/util/FIFO.h ****             idx += bufferSize_;
  97:../DaisyExamples/libDaisy/src/util/FIFO.h ****         return buffer_[idx];
  98:../DaisyExamples/libDaisy/src/util/FIFO.h ****     }
  99:../DaisyExamples/libDaisy/src/util/FIFO.h **** 
 100:../DaisyExamples/libDaisy/src/util/FIFO.h ****     /** removes and returns an element from the front of the buffer */
 101:../DaisyExamples/libDaisy/src/util/FIFO.h ****     T PopFront()
 102:../DaisyExamples/libDaisy/src/util/FIFO.h ****     {
 103:../DaisyExamples/libDaisy/src/util/FIFO.h ****         if(IsEmpty())
 104:../DaisyExamples/libDaisy/src/util/FIFO.h ****             return T();
 105:../DaisyExamples/libDaisy/src/util/FIFO.h ****         else
 106:../DaisyExamples/libDaisy/src/util/FIFO.h ****         {
 107:../DaisyExamples/libDaisy/src/util/FIFO.h ****             const auto result = buffer_[bufferOut_];
 108:../DaisyExamples/libDaisy/src/util/FIFO.h ****             bufferOut_++;
 109:../DaisyExamples/libDaisy/src/util/FIFO.h ****             if(bufferOut_ >= bufferSize_)
 110:../DaisyExamples/libDaisy/src/util/FIFO.h ****                 bufferOut_ -= bufferSize_;
 111:../DaisyExamples/libDaisy/src/util/FIFO.h ****             return result;
 112:../DaisyExamples/libDaisy/src/util/FIFO.h ****         }
 113:../DaisyExamples/libDaisy/src/util/FIFO.h ****     }
 114:../DaisyExamples/libDaisy/src/util/FIFO.h **** 
 115:../DaisyExamples/libDaisy/src/util/FIFO.h ****     /** returns a copy of the first element */
 116:../DaisyExamples/libDaisy/src/util/FIFO.h ****     T& Front()
 117:../DaisyExamples/libDaisy/src/util/FIFO.h ****     {
 118:../DaisyExamples/libDaisy/src/util/FIFO.h ****         if(IsEmpty())
 119:../DaisyExamples/libDaisy/src/util/FIFO.h ****             // invalid, but better not pass a temporary T() object as a reference...
 120:../DaisyExamples/libDaisy/src/util/FIFO.h ****             return buffer_[0];
 121:../DaisyExamples/libDaisy/src/util/FIFO.h ****         return buffer_[bufferOut_];
 122:../DaisyExamples/libDaisy/src/util/FIFO.h ****     }
 123:../DaisyExamples/libDaisy/src/util/FIFO.h **** 
 124:../DaisyExamples/libDaisy/src/util/FIFO.h ****     /** returns a reference to the first element */
 125:../DaisyExamples/libDaisy/src/util/FIFO.h ****     const T& Front() const
 126:../DaisyExamples/libDaisy/src/util/FIFO.h ****     {
 127:../DaisyExamples/libDaisy/src/util/FIFO.h ****         if(IsEmpty())
 128:../DaisyExamples/libDaisy/src/util/FIFO.h ****             // invalid, but better not pass a temporary T() object as a reference...
 129:../DaisyExamples/libDaisy/src/util/FIFO.h ****             return buffer_[0];
 130:../DaisyExamples/libDaisy/src/util/FIFO.h ****         return buffer_[bufferOut_];
 131:../DaisyExamples/libDaisy/src/util/FIFO.h ****     }
 132:../DaisyExamples/libDaisy/src/util/FIFO.h **** 
 133:../DaisyExamples/libDaisy/src/util/FIFO.h ****     /** Returns true if the buffer contains an element equal to the provided value */
 134:../DaisyExamples/libDaisy/src/util/FIFO.h ****     bool Contains(const T& element)
 135:../DaisyExamples/libDaisy/src/util/FIFO.h ****     {
 136:../DaisyExamples/libDaisy/src/util/FIFO.h ****         auto idx = bufferOut_;
 137:../DaisyExamples/libDaisy/src/util/FIFO.h ****         while(idx != bufferIn_)
 138:../DaisyExamples/libDaisy/src/util/FIFO.h ****         {
 139:../DaisyExamples/libDaisy/src/util/FIFO.h ****             if(buffer_[idx] == element)
 140:../DaisyExamples/libDaisy/src/util/FIFO.h ****                 return true;
 141:../DaisyExamples/libDaisy/src/util/FIFO.h ****             idx++;
 142:../DaisyExamples/libDaisy/src/util/FIFO.h ****             if(idx >= bufferSize_)
 143:../DaisyExamples/libDaisy/src/util/FIFO.h ****                 idx -= bufferSize_;
 144:../DaisyExamples/libDaisy/src/util/FIFO.h ****         }
 145:../DaisyExamples/libDaisy/src/util/FIFO.h ****         return false;
 146:../DaisyExamples/libDaisy/src/util/FIFO.h ****     }
 147:../DaisyExamples/libDaisy/src/util/FIFO.h **** 
 148:../DaisyExamples/libDaisy/src/util/FIFO.h ****     /** Returns the number of elements in the buffer that are equal to the provided value */
 149:../DaisyExamples/libDaisy/src/util/FIFO.h ****     size_t CountEqualTo(const T& element)
ARM GAS  /var/folders/7c/668hyr3s7rlgsbdftclf3hsr0000gn/T//cczSPkjU.s 			page 18


 150:../DaisyExamples/libDaisy/src/util/FIFO.h ****     {
 151:../DaisyExamples/libDaisy/src/util/FIFO.h ****         size_t result = 0;
 152:../DaisyExamples/libDaisy/src/util/FIFO.h ****         size_t idx    = bufferOut_;
 153:../DaisyExamples/libDaisy/src/util/FIFO.h ****         while(idx != bufferIn_)
 154:../DaisyExamples/libDaisy/src/util/FIFO.h ****         {
 155:../DaisyExamples/libDaisy/src/util/FIFO.h ****             if(buffer_[idx] == element)
 156:../DaisyExamples/libDaisy/src/util/FIFO.h ****                 result++;
 157:../DaisyExamples/libDaisy/src/util/FIFO.h ****             idx++;
 158:../DaisyExamples/libDaisy/src/util/FIFO.h ****             if(idx >= bufferSize_)
 159:../DaisyExamples/libDaisy/src/util/FIFO.h ****                 idx -= bufferSize_;
 160:../DaisyExamples/libDaisy/src/util/FIFO.h ****         }
 161:../DaisyExamples/libDaisy/src/util/FIFO.h ****         return result;
 162:../DaisyExamples/libDaisy/src/util/FIFO.h ****     }
 163:../DaisyExamples/libDaisy/src/util/FIFO.h **** 
 164:../DaisyExamples/libDaisy/src/util/FIFO.h ****     /** returns true, if the buffer is empty */
 165:../DaisyExamples/libDaisy/src/util/FIFO.h ****     bool IsEmpty() const { return bufferIn_ == bufferOut_; }
 166:../DaisyExamples/libDaisy/src/util/FIFO.h **** 
 167:../DaisyExamples/libDaisy/src/util/FIFO.h ****     /** returns true, if the buffer is Full */
 168:../DaisyExamples/libDaisy/src/util/FIFO.h ****     bool IsFull() const { return GetNumElements() == bufferSize_ - 1; }
 169:../DaisyExamples/libDaisy/src/util/FIFO.h **** 
 170:../DaisyExamples/libDaisy/src/util/FIFO.h ****     /** returns the number of elements in the buffer */
 171:../DaisyExamples/libDaisy/src/util/FIFO.h ****     size_t GetNumElements() const
 172:../DaisyExamples/libDaisy/src/util/FIFO.h ****     {
 173:../DaisyExamples/libDaisy/src/util/FIFO.h ****         int32_t numElements = bufferIn_ - bufferOut_;
 174:../DaisyExamples/libDaisy/src/util/FIFO.h ****         if(numElements < 0)
 175:../DaisyExamples/libDaisy/src/util/FIFO.h ****             numElements += bufferSize_;
 176:../DaisyExamples/libDaisy/src/util/FIFO.h ****         return size_t(numElements);
 177:../DaisyExamples/libDaisy/src/util/FIFO.h ****     }
 178:../DaisyExamples/libDaisy/src/util/FIFO.h **** 
 179:../DaisyExamples/libDaisy/src/util/FIFO.h ****     /** inserts an element "idx" positions behind the first element and returns true if successful 
 180:../DaisyExamples/libDaisy/src/util/FIFO.h ****     bool Insert(size_t idx, const T& element)
 181:../DaisyExamples/libDaisy/src/util/FIFO.h ****     {
 182:../DaisyExamples/libDaisy/src/util/FIFO.h ****         if(idx > GetNumElements())
 183:../DaisyExamples/libDaisy/src/util/FIFO.h ****             return false;
 184:../DaisyExamples/libDaisy/src/util/FIFO.h ****         if(IsFull())
 185:../DaisyExamples/libDaisy/src/util/FIFO.h ****             return false;
 186:../DaisyExamples/libDaisy/src/util/FIFO.h ****         if(idx == GetNumElements())
 187:../DaisyExamples/libDaisy/src/util/FIFO.h ****         {
 188:../DaisyExamples/libDaisy/src/util/FIFO.h ****             PushBack(element);
 189:../DaisyExamples/libDaisy/src/util/FIFO.h ****             return true;
 190:../DaisyExamples/libDaisy/src/util/FIFO.h ****         }
 191:../DaisyExamples/libDaisy/src/util/FIFO.h ****         // copy last element
 192:../DaisyExamples/libDaisy/src/util/FIFO.h ****         PushBack(Back());
 193:../DaisyExamples/libDaisy/src/util/FIFO.h ****         // move remaining elements: n => n+1
 194:../DaisyExamples/libDaisy/src/util/FIFO.h ****         for(int i = GetNumElements() - 2; i > int(idx); i--)
 195:../DaisyExamples/libDaisy/src/util/FIFO.h ****             (*this)[i] = (*this)[i - 1];
 196:../DaisyExamples/libDaisy/src/util/FIFO.h ****         // insert element
 197:../DaisyExamples/libDaisy/src/util/FIFO.h ****         (*this)[idx] = element;
 198:../DaisyExamples/libDaisy/src/util/FIFO.h ****         return true;
 199:../DaisyExamples/libDaisy/src/util/FIFO.h ****     }
 200:../DaisyExamples/libDaisy/src/util/FIFO.h **** 
 201:../DaisyExamples/libDaisy/src/util/FIFO.h ****     /** removes the element "idx" positions behind the first element 
 202:../DaisyExamples/libDaisy/src/util/FIFO.h ****      *  and returns true if successful */
 203:../DaisyExamples/libDaisy/src/util/FIFO.h ****     bool Remove(size_t idx)
 204:../DaisyExamples/libDaisy/src/util/FIFO.h ****     {
 205:../DaisyExamples/libDaisy/src/util/FIFO.h ****         if(idx >= GetNumElements())
 206:../DaisyExamples/libDaisy/src/util/FIFO.h ****             return false;
ARM GAS  /var/folders/7c/668hyr3s7rlgsbdftclf3hsr0000gn/T//cczSPkjU.s 			page 19


 207:../DaisyExamples/libDaisy/src/util/FIFO.h **** 
 208:../DaisyExamples/libDaisy/src/util/FIFO.h ****         size_t index = bufferOut_ + idx;
 209:../DaisyExamples/libDaisy/src/util/FIFO.h ****         if(index >= bufferSize_)
 210:../DaisyExamples/libDaisy/src/util/FIFO.h ****             index -= bufferSize_;
 211:../DaisyExamples/libDaisy/src/util/FIFO.h ****         size_t nextIndex = index + 1;
 212:../DaisyExamples/libDaisy/src/util/FIFO.h ****         if(nextIndex >= bufferSize_)
 213:../DaisyExamples/libDaisy/src/util/FIFO.h ****             nextIndex -= bufferSize_;
 214:../DaisyExamples/libDaisy/src/util/FIFO.h **** 
 215:../DaisyExamples/libDaisy/src/util/FIFO.h ****         while(nextIndex != bufferIn_)
 216:../DaisyExamples/libDaisy/src/util/FIFO.h ****         {
 217:../DaisyExamples/libDaisy/src/util/FIFO.h ****             buffer_[index] = buffer_[nextIndex];
 218:../DaisyExamples/libDaisy/src/util/FIFO.h ****             index++;
 219:../DaisyExamples/libDaisy/src/util/FIFO.h ****             nextIndex++;
 220:../DaisyExamples/libDaisy/src/util/FIFO.h ****             if(index >= bufferSize_)
 221:../DaisyExamples/libDaisy/src/util/FIFO.h ****                 index -= bufferSize_;
 222:../DaisyExamples/libDaisy/src/util/FIFO.h ****             if(nextIndex >= bufferSize_)
 223:../DaisyExamples/libDaisy/src/util/FIFO.h ****                 nextIndex -= bufferSize_;
 224:../DaisyExamples/libDaisy/src/util/FIFO.h ****         }
 225:../DaisyExamples/libDaisy/src/util/FIFO.h **** 
 226:../DaisyExamples/libDaisy/src/util/FIFO.h ****         int32_t nextBufferIn = int32_t(bufferIn_) - 1;
 227:../DaisyExamples/libDaisy/src/util/FIFO.h ****         if(nextBufferIn < 0)
 228:../DaisyExamples/libDaisy/src/util/FIFO.h ****             nextBufferIn += bufferSize_;
 229:../DaisyExamples/libDaisy/src/util/FIFO.h ****         bufferIn_ = size_t(nextBufferIn);
 230:../DaisyExamples/libDaisy/src/util/FIFO.h **** 
 231:../DaisyExamples/libDaisy/src/util/FIFO.h ****         return true;
 232:../DaisyExamples/libDaisy/src/util/FIFO.h ****     }
 233:../DaisyExamples/libDaisy/src/util/FIFO.h **** 
 234:../DaisyExamples/libDaisy/src/util/FIFO.h ****     /** removes all elements from the buffer for which
 235:../DaisyExamples/libDaisy/src/util/FIFO.h ****         (buffer(index) == element) returns true and returns the number of
 236:../DaisyExamples/libDaisy/src/util/FIFO.h ****         elements that were removed. */
 237:../DaisyExamples/libDaisy/src/util/FIFO.h ****     size_t RemoveAllEqualTo(const T& element)
 238:../DaisyExamples/libDaisy/src/util/FIFO.h ****     {
 239:../DaisyExamples/libDaisy/src/util/FIFO.h ****         size_t numRemoved = 0;
 240:../DaisyExamples/libDaisy/src/util/FIFO.h ****         int    idx        = GetNumElements() - 1;
 241:../DaisyExamples/libDaisy/src/util/FIFO.h ****         while(idx >= 0)
 242:../DaisyExamples/libDaisy/src/util/FIFO.h ****         {
 243:../DaisyExamples/libDaisy/src/util/FIFO.h ****             if((*this)[idx] == element)
 244:../DaisyExamples/libDaisy/src/util/FIFO.h ****             {
 245:../DaisyExamples/libDaisy/src/util/FIFO.h ****                 numRemoved++;
 246:../DaisyExamples/libDaisy/src/util/FIFO.h ****                 Remove(idx);
 247:../DaisyExamples/libDaisy/src/util/FIFO.h ****                 // was that the last element?
 248:../DaisyExamples/libDaisy/src/util/FIFO.h ****                 if(idx == int(GetNumElements()) - 1)
 249:../DaisyExamples/libDaisy/src/util/FIFO.h ****                     idx--;
 250:../DaisyExamples/libDaisy/src/util/FIFO.h ****             }
 251:../DaisyExamples/libDaisy/src/util/FIFO.h ****             else
 252:../DaisyExamples/libDaisy/src/util/FIFO.h ****                 idx--;
 253:../DaisyExamples/libDaisy/src/util/FIFO.h ****         }
 254:../DaisyExamples/libDaisy/src/util/FIFO.h ****         return numRemoved;
 255:../DaisyExamples/libDaisy/src/util/FIFO.h ****     }
 256:../DaisyExamples/libDaisy/src/util/FIFO.h **** 
 257:../DaisyExamples/libDaisy/src/util/FIFO.h ****     /** returns the element "idx" positions behind the first element */
 258:../DaisyExamples/libDaisy/src/util/FIFO.h ****     T& operator[](size_t idx)
 259:../DaisyExamples/libDaisy/src/util/FIFO.h ****     {
 260:../DaisyExamples/libDaisy/src/util/FIFO.h ****         if(idx >= GetNumElements())
 261:../DaisyExamples/libDaisy/src/util/FIFO.h ****             // invalid, but better not pass a temporary T() object as a reference...
 262:../DaisyExamples/libDaisy/src/util/FIFO.h ****             return buffer_[0];
 263:../DaisyExamples/libDaisy/src/util/FIFO.h **** 
ARM GAS  /var/folders/7c/668hyr3s7rlgsbdftclf3hsr0000gn/T//cczSPkjU.s 			page 20


 264:../DaisyExamples/libDaisy/src/util/FIFO.h ****         size_t index = bufferOut_ + idx;
 265:../DaisyExamples/libDaisy/src/util/FIFO.h ****         if(index >= bufferSize_)
 266:../DaisyExamples/libDaisy/src/util/FIFO.h ****             index -= bufferSize_;
 267:../DaisyExamples/libDaisy/src/util/FIFO.h ****         return buffer_[index];
 268:../DaisyExamples/libDaisy/src/util/FIFO.h ****     }
 269:../DaisyExamples/libDaisy/src/util/FIFO.h **** 
 270:../DaisyExamples/libDaisy/src/util/FIFO.h ****     /** returns the element "idx" positions behind the first element */
 271:../DaisyExamples/libDaisy/src/util/FIFO.h ****     const T& operator[](size_t idx) const
 272:../DaisyExamples/libDaisy/src/util/FIFO.h ****     {
 273:../DaisyExamples/libDaisy/src/util/FIFO.h ****         if(idx >= GetNumElements())
 274:../DaisyExamples/libDaisy/src/util/FIFO.h ****             // invalid, but better not pass a temporary T() object as a reference...
 275:../DaisyExamples/libDaisy/src/util/FIFO.h ****             return buffer_[0];
 276:../DaisyExamples/libDaisy/src/util/FIFO.h **** 
 277:../DaisyExamples/libDaisy/src/util/FIFO.h ****         size_t index = bufferOut_ + idx;
 278:../DaisyExamples/libDaisy/src/util/FIFO.h ****         if(index >= bufferSize_)
 279:../DaisyExamples/libDaisy/src/util/FIFO.h ****             index -= bufferSize_;
 280:../DaisyExamples/libDaisy/src/util/FIFO.h ****         return buffer_[index];
 281:../DaisyExamples/libDaisy/src/util/FIFO.h ****     }
 282:../DaisyExamples/libDaisy/src/util/FIFO.h **** 
 283:../DaisyExamples/libDaisy/src/util/FIFO.h ****     /** returns the total capacity */
 284:../DaisyExamples/libDaisy/src/util/FIFO.h ****     size_t GetCapacity() const { return bufferSize_ - 1; }
 285:../DaisyExamples/libDaisy/src/util/FIFO.h **** 
 286:../DaisyExamples/libDaisy/src/util/FIFO.h ****   private:
 287:../DaisyExamples/libDaisy/src/util/FIFO.h ****     FIFOBase(const FIFOBase<T>&) {} // non copyable
 288:../DaisyExamples/libDaisy/src/util/FIFO.h **** 
 289:../DaisyExamples/libDaisy/src/util/FIFO.h ****   private:
 290:../DaisyExamples/libDaisy/src/util/FIFO.h ****     T*           buffer_;
 291:../DaisyExamples/libDaisy/src/util/FIFO.h ****     const size_t bufferSize_;
 292:../DaisyExamples/libDaisy/src/util/FIFO.h ****     size_t       bufferIn_;
 293:../DaisyExamples/libDaisy/src/util/FIFO.h ****     size_t       bufferOut_;
 294:../DaisyExamples/libDaisy/src/util/FIFO.h **** };
 295:../DaisyExamples/libDaisy/src/util/FIFO.h **** 
 296:../DaisyExamples/libDaisy/src/util/FIFO.h **** /** A simple FIFO ring buffer with a fixed size. */
 297:../DaisyExamples/libDaisy/src/util/FIFO.h **** template <typename T, size_t capacity>
 298:../DaisyExamples/libDaisy/src/util/FIFO.h **** class FIFO : public FIFOBase<T>
 162              		.loc 11 298 7 view .LVU18
 163              	.LBB375:
 164              	.LBI375:
  42:../DaisyExamples/libDaisy/src/util/FIFO.h **** 
 165              		.loc 11 42 5 view .LVU19
  42:../DaisyExamples/libDaisy/src/util/FIFO.h **** 
 166              		.loc 11 42 5 is_stmt 0 view .LVU20
 167              	.LBE375:
 168              	.LBE374:
 169              	.LBB376:
 170              	.LBI376:
 171              		.file 12 "../DaisyExamples/libDaisy/src/hid/midi_parser.h"
   1:../DaisyExamples/libDaisy/src/hid/midi_parser.h **** #pragma once
   2:../DaisyExamples/libDaisy/src/hid/midi_parser.h **** #ifndef DSY_MIDI_PARSER_H
   3:../DaisyExamples/libDaisy/src/hid/midi_parser.h **** #define DSY_MIDI_PARSER_H
   4:../DaisyExamples/libDaisy/src/hid/midi_parser.h **** 
   5:../DaisyExamples/libDaisy/src/hid/midi_parser.h **** #include <stdint.h>
   6:../DaisyExamples/libDaisy/src/hid/midi_parser.h **** #include <stdlib.h>
   7:../DaisyExamples/libDaisy/src/hid/midi_parser.h **** #include "hid/MidiEvent.h"
   8:../DaisyExamples/libDaisy/src/hid/midi_parser.h **** 
   9:../DaisyExamples/libDaisy/src/hid/midi_parser.h **** namespace daisy
  10:../DaisyExamples/libDaisy/src/hid/midi_parser.h **** {
ARM GAS  /var/folders/7c/668hyr3s7rlgsbdftclf3hsr0000gn/T//cczSPkjU.s 			page 21


  11:../DaisyExamples/libDaisy/src/hid/midi_parser.h **** /** @brief   Utility class for parsing raw byte streams into MIDI messages
  12:../DaisyExamples/libDaisy/src/hid/midi_parser.h ****  *  @details Implemented as a state machine designed to parse one byte at a time
  13:../DaisyExamples/libDaisy/src/hid/midi_parser.h ****  *  @ingroup midi
  14:../DaisyExamples/libDaisy/src/hid/midi_parser.h ****  */
  15:../DaisyExamples/libDaisy/src/hid/midi_parser.h **** class MidiParser
  16:../DaisyExamples/libDaisy/src/hid/midi_parser.h **** {
  17:../DaisyExamples/libDaisy/src/hid/midi_parser.h ****   public:
  18:../DaisyExamples/libDaisy/src/hid/midi_parser.h ****     MidiParser(){};
  19:../DaisyExamples/libDaisy/src/hid/midi_parser.h ****     ~MidiParser() {}
 172              		.loc 12 19 5 is_stmt 1 view .LVU21
 173              		.loc 12 19 5 is_stmt 0 view .LVU22
 174              	.LBE376:
 175              	.LBB377:
 176              	.LBI377:
  32:../DaisyExamples/libDaisy/src/hid/midi.h **** 
 177              		.loc 10 32 5 is_stmt 1 view .LVU23
  32:../DaisyExamples/libDaisy/src/hid/midi.h **** 
 178              		.loc 10 32 5 is_stmt 0 view .LVU24
 179              	.LBE377:
 180              	.LBE373:
 181              	.LBB378:
 182              	.LBI378:
 183              		.file 13 "../DaisyExamples/libDaisy/src/hid/rgb_led.h"
   1:../DaisyExamples/libDaisy/src/hid/rgb_led.h **** #pragma once
   2:../DaisyExamples/libDaisy/src/hid/rgb_led.h **** #ifndef DSY_RGB_LED_H
   3:../DaisyExamples/libDaisy/src/hid/rgb_led.h **** #define DSY_RGB_LED_H
   4:../DaisyExamples/libDaisy/src/hid/rgb_led.h **** #include "hid/led.h"
   5:../DaisyExamples/libDaisy/src/hid/rgb_led.h **** #include "util/color.h"
   6:../DaisyExamples/libDaisy/src/hid/rgb_led.h **** 
   7:../DaisyExamples/libDaisy/src/hid/rgb_led.h **** namespace daisy
   8:../DaisyExamples/libDaisy/src/hid/rgb_led.h **** {
   9:../DaisyExamples/libDaisy/src/hid/rgb_led.h **** /** @addtogroup feedback
  10:../DaisyExamples/libDaisy/src/hid/rgb_led.h ****     @{
  11:../DaisyExamples/libDaisy/src/hid/rgb_led.h **** */
  12:../DaisyExamples/libDaisy/src/hid/rgb_led.h **** 
  13:../DaisyExamples/libDaisy/src/hid/rgb_led.h **** /** 3x LEDs configured as an RGB for ease of use. */
  14:../DaisyExamples/libDaisy/src/hid/rgb_led.h **** class RgbLed
  15:../DaisyExamples/libDaisy/src/hid/rgb_led.h **** {
  16:../DaisyExamples/libDaisy/src/hid/rgb_led.h ****   public:
  17:../DaisyExamples/libDaisy/src/hid/rgb_led.h ****     RgbLed() {}
  18:../DaisyExamples/libDaisy/src/hid/rgb_led.h ****     ~RgbLed() {}
 184              		.loc 13 18 5 is_stmt 1 view .LVU25
 185              	.LBB379:
 186              	.LBI379:
 187              		.file 14 "../DaisyExamples/libDaisy/src/hid/led.h"
   1:../DaisyExamples/libDaisy/src/hid/led.h **** 
   2:../DaisyExamples/libDaisy/src/hid/led.h **** #pragma once
   3:../DaisyExamples/libDaisy/src/hid/led.h **** #ifndef DSY_LED_H
   4:../DaisyExamples/libDaisy/src/hid/led.h **** #define DSY_LED_H
   5:../DaisyExamples/libDaisy/src/hid/led.h **** #include "daisy_core.h"
   6:../DaisyExamples/libDaisy/src/hid/led.h **** #include "per/gpio.h"
   7:../DaisyExamples/libDaisy/src/hid/led.h **** 
   8:../DaisyExamples/libDaisy/src/hid/led.h **** /* TODO - Get this set up to work with the dev_leddriver stuff as well
   9:../DaisyExamples/libDaisy/src/hid/led.h **** - Setup Hardware PWM for pins that have it
  10:../DaisyExamples/libDaisy/src/hid/led.h **** */
  11:../DaisyExamples/libDaisy/src/hid/led.h **** 
  12:../DaisyExamples/libDaisy/src/hid/led.h **** namespace daisy
ARM GAS  /var/folders/7c/668hyr3s7rlgsbdftclf3hsr0000gn/T//cczSPkjU.s 			page 22


  13:../DaisyExamples/libDaisy/src/hid/led.h **** {
  14:../DaisyExamples/libDaisy/src/hid/led.h **** /**
  15:../DaisyExamples/libDaisy/src/hid/led.h ****     @brief LED Class providing simple Software PWM ability, etc \n 
  16:../DaisyExamples/libDaisy/src/hid/led.h ****     Eventually this will work with hardware PWM, and external LED Driver devices as well.
  17:../DaisyExamples/libDaisy/src/hid/led.h ****     @author shensley
  18:../DaisyExamples/libDaisy/src/hid/led.h ****     @date March 2020
  19:../DaisyExamples/libDaisy/src/hid/led.h ****     @ingroup feedback
  20:../DaisyExamples/libDaisy/src/hid/led.h **** */
  21:../DaisyExamples/libDaisy/src/hid/led.h **** class Led
  22:../DaisyExamples/libDaisy/src/hid/led.h **** {
  23:../DaisyExamples/libDaisy/src/hid/led.h ****   public:
  24:../DaisyExamples/libDaisy/src/hid/led.h ****     Led() {}
  25:../DaisyExamples/libDaisy/src/hid/led.h ****     ~Led() {}
 188              		.loc 14 25 5 view .LVU26
 189              		.loc 14 25 5 is_stmt 0 view .LVU27
 190              	.LBE379:
 191              	.LBB380:
 192              	.LBI380:
 193              		.loc 14 25 5 is_stmt 1 view .LVU28
 194              		.loc 14 25 5 is_stmt 0 view .LVU29
 195              	.LBE380:
 196              	.LBB381:
 197              	.LBI381:
 198              		.loc 14 25 5 is_stmt 1 view .LVU30
 199              		.loc 14 25 5 is_stmt 0 view .LVU31
 200              	.LBE381:
 201              	.LBE378:
 202              	.LBB382:
 203              	.LBI382:
 204              		.loc 13 18 5 is_stmt 1 view .LVU32
 205              	.LBB383:
 206              	.LBI383:
 207              		.loc 14 25 5 view .LVU33
 208              		.loc 14 25 5 is_stmt 0 view .LVU34
 209              	.LBE383:
 210              	.LBB384:
 211              	.LBI384:
 212              		.loc 14 25 5 is_stmt 1 view .LVU35
 213              		.loc 14 25 5 is_stmt 0 view .LVU36
 214              	.LBE384:
 215              	.LBB385:
 216              	.LBI385:
 217              		.loc 14 25 5 is_stmt 1 view .LVU37
 218              		.loc 14 25 5 is_stmt 0 view .LVU38
 219              	.LBE385:
 220              	.LBE382:
 221              	.LBB386:
 222              	.LBI386:
 223              		.loc 3 42 5 is_stmt 1 view .LVU39
 224              		.loc 3 42 5 is_stmt 0 view .LVU40
 225              	.LBE386:
 226              	.LBB387:
 227              	.LBI387:
 228              		.loc 3 42 5 is_stmt 1 view .LVU41
 229              		.loc 3 42 5 is_stmt 0 view .LVU42
 230              	.LBE387:
 231              	.LBB388:
ARM GAS  /var/folders/7c/668hyr3s7rlgsbdftclf3hsr0000gn/T//cczSPkjU.s 			page 23


 232              	.LBI388:
 233              		.file 15 "../DaisyExamples/libDaisy/src/hid/ctrl.h"
   1:../DaisyExamples/libDaisy/src/hid/ctrl.h **** #pragma once
   2:../DaisyExamples/libDaisy/src/hid/ctrl.h **** #ifndef DSY_KNOB_H
   3:../DaisyExamples/libDaisy/src/hid/ctrl.h **** #define DSY_KNOB_H /**< & */
   4:../DaisyExamples/libDaisy/src/hid/ctrl.h **** #include <stdint.h>
   5:../DaisyExamples/libDaisy/src/hid/ctrl.h **** 
   6:../DaisyExamples/libDaisy/src/hid/ctrl.h **** #ifdef __cplusplus
   7:../DaisyExamples/libDaisy/src/hid/ctrl.h **** namespace daisy
   8:../DaisyExamples/libDaisy/src/hid/ctrl.h **** {
   9:../DaisyExamples/libDaisy/src/hid/ctrl.h **** /**
  10:../DaisyExamples/libDaisy/src/hid/ctrl.h ****     @brief Hardware Interface for control inputs \n 
  11:../DaisyExamples/libDaisy/src/hid/ctrl.h ****     Primarily designed for ADC input controls such as \n 
  12:../DaisyExamples/libDaisy/src/hid/ctrl.h ****     potentiometers, and control voltage. \n 
  13:../DaisyExamples/libDaisy/src/hid/ctrl.h ****     @author Stephen Hensley
  14:../DaisyExamples/libDaisy/src/hid/ctrl.h ****     @date November 2019
  15:../DaisyExamples/libDaisy/src/hid/ctrl.h ****     @ingroup controls
  16:../DaisyExamples/libDaisy/src/hid/ctrl.h **** */
  17:../DaisyExamples/libDaisy/src/hid/ctrl.h **** class AnalogControl
  18:../DaisyExamples/libDaisy/src/hid/ctrl.h **** {
  19:../DaisyExamples/libDaisy/src/hid/ctrl.h ****   public:
  20:../DaisyExamples/libDaisy/src/hid/ctrl.h ****     /** Constructor */
  21:../DaisyExamples/libDaisy/src/hid/ctrl.h ****     AnalogControl() {}
  22:../DaisyExamples/libDaisy/src/hid/ctrl.h ****     /** destructor */
  23:../DaisyExamples/libDaisy/src/hid/ctrl.h ****     ~AnalogControl() {}
 234              		.loc 15 23 5 is_stmt 1 view .LVU43
 235              		.loc 15 23 5 is_stmt 0 view .LVU44
 236              	.LBE388:
 237              	.LBB389:
 238              	.LBI389:
 239              		.loc 15 23 5 is_stmt 1 view .LVU45
 240              		.loc 15 23 5 is_stmt 0 view .LVU46
 241              	.LBE389:
 242              	.LBB390:
 243              	.LBI390:
 244              		.file 16 "../DaisyExamples/libDaisy/src/hid/encoder.h"
   1:../DaisyExamples/libDaisy/src/hid/encoder.h **** #pragma once
   2:../DaisyExamples/libDaisy/src/hid/encoder.h **** #ifndef DSY_ENCODER_H
   3:../DaisyExamples/libDaisy/src/hid/encoder.h **** #define DSY_ENCODER_H
   4:../DaisyExamples/libDaisy/src/hid/encoder.h **** #include "daisy_core.h"
   5:../DaisyExamples/libDaisy/src/hid/encoder.h **** #include "per/gpio.h"
   6:../DaisyExamples/libDaisy/src/hid/encoder.h **** #include "hid/switch.h"
   7:../DaisyExamples/libDaisy/src/hid/encoder.h **** 
   8:../DaisyExamples/libDaisy/src/hid/encoder.h **** namespace daisy
   9:../DaisyExamples/libDaisy/src/hid/encoder.h **** {
  10:../DaisyExamples/libDaisy/src/hid/encoder.h **** /** 
  11:../DaisyExamples/libDaisy/src/hid/encoder.h ****     @brief Generic Class for handling Quadrature Encoders \n 
  12:../DaisyExamples/libDaisy/src/hid/encoder.h ****     Inspired/influenced by Mutable Instruments (pichenettes) Encoder classes
  13:../DaisyExamples/libDaisy/src/hid/encoder.h ****     @author Stephen Hensley
  14:../DaisyExamples/libDaisy/src/hid/encoder.h ****     @date December 2019
  15:../DaisyExamples/libDaisy/src/hid/encoder.h ****     @ingroup controls
  16:../DaisyExamples/libDaisy/src/hid/encoder.h **** */
  17:../DaisyExamples/libDaisy/src/hid/encoder.h **** class Encoder
  18:../DaisyExamples/libDaisy/src/hid/encoder.h **** {
  19:../DaisyExamples/libDaisy/src/hid/encoder.h ****   public:
  20:../DaisyExamples/libDaisy/src/hid/encoder.h ****     Encoder() {}
  21:../DaisyExamples/libDaisy/src/hid/encoder.h ****     ~Encoder() {}
ARM GAS  /var/folders/7c/668hyr3s7rlgsbdftclf3hsr0000gn/T//cczSPkjU.s 			page 24


 245              		.loc 16 21 5 is_stmt 1 view .LVU47
 246              	.LBB391:
 247              	.LBI391:
 248              		.loc 3 42 5 view .LVU48
 249              		.loc 3 42 5 is_stmt 0 view .LVU49
 250              	.LBE391:
 251              	.LBE390:
 252              	.LBB392:
 253              	.LBI392:
 254              		.loc 4 22 5 is_stmt 1 view .LVU50
 255              	.LBB393:
 256              	.LBI393:
 257              		.loc 5 97 5 view .LVU51
 258              		.loc 5 97 5 is_stmt 0 view .LVU52
 259              	.LBE393:
 260              	.LBB394:
 261              	.LBI394:
 262              		.loc 6 42 5 is_stmt 1 view .LVU53
 263              		.loc 6 42 5 is_stmt 0 view .LVU54
 264              	.LBE394:
 265              	.LBB395:
 266              	.LBI395:
 267              		.loc 7 110 5 is_stmt 1 view .LVU55
 268              		.loc 7 110 5 is_stmt 0 view .LVU56
 269              	.LBE395:
 270              	.LBB396:
 271              	.LBI396:
 272              		.loc 8 96 5 is_stmt 1 view .LVU57
 273              		.loc 8 96 5 is_stmt 0 view .LVU58
 274              	.LBE396:
 275              	.LBE392:
 276              		.loc 9 36 18 view .LVU59
 277 0000 7047     		bx	lr
 278              		.cfi_endproc
 279              	.LFE4686:
 281              		.weak	_ZN5daisy8DaisyPodD1Ev
 282              		.thumb_set _ZN5daisy8DaisyPodD1Ev,_ZN5daisy8DaisyPodD2Ev
 283 0002 00BF     		.section	.text._Z11NextSamplesRf,"ax",%progbits
 284              		.align	1
 285              		.p2align 2,,3
 286              		.global	_Z11NextSamplesRf
 287              		.syntax unified
 288              		.thumb
 289              		.thumb_func
 291              	_Z11NextSamplesRf:
 292              	.LVL5:
 293              	.LFB4689:
 294              		.file 17 "DaisyKeys.cpp"
   1:DaisyKeys.cpp **** #include "daisysp.h"
   2:DaisyKeys.cpp **** #include "daisy_pod.h"
   3:DaisyKeys.cpp **** 
   4:DaisyKeys.cpp **** #include "daisy_seed.h"
   5:DaisyKeys.cpp **** 
   6:DaisyKeys.cpp **** using namespace daisysp;
   7:DaisyKeys.cpp **** using namespace daisy;
   8:DaisyKeys.cpp **** // Use the daisy namespace to prevent having to type
   9:DaisyKeys.cpp **** // daisy:: before all libdaisy functions
ARM GAS  /var/folders/7c/668hyr3s7rlgsbdftclf3hsr0000gn/T//cczSPkjU.s 			page 25


  10:DaisyKeys.cpp **** // Declare a DaisySeed object called hardware
  11:DaisyKeys.cpp **** 
  12:DaisyKeys.cpp **** static DaisyPod   pod;
  13:DaisyKeys.cpp **** static DaisySeed hw;
  14:DaisyKeys.cpp **** static Oscillator osc;
  15:DaisyKeys.cpp **** static AdEnv      ad;
  16:DaisyKeys.cpp **** 
  17:DaisyKeys.cpp **** int   wave, mode;
  18:DaisyKeys.cpp **** float vibrato, oscFreq;
  19:DaisyKeys.cpp **** 
  20:DaisyKeys.cpp **** Switch button3;
  21:DaisyKeys.cpp **** 
  22:DaisyKeys.cpp **** void Controls();
  23:DaisyKeys.cpp **** 
  24:DaisyKeys.cpp **** void NextSamples(float &sig)
  25:DaisyKeys.cpp **** {
 295              		.loc 17 25 1 is_stmt 1 view -0
 296              		.cfi_startproc
 297              		@ args = 0, pretend = 0, frame = 0
 298              		@ frame_needed = 0, uses_anonymous_args = 0
  26:DaisyKeys.cpp ****     float ad_out = ad.Process();
 299              		.loc 17 26 5 view .LVU61
  25:DaisyKeys.cpp ****     float ad_out = ad.Process();
 300              		.loc 17 25 1 is_stmt 0 view .LVU62
 301 0000 38B5     		push	{r3, r4, r5, lr}
 302              		.cfi_def_cfa_offset 16
 303              		.cfi_offset 3, -16
 304              		.cfi_offset 4, -12
 305              		.cfi_offset 5, -8
 306              		.cfi_offset 14, -4
 307 0002 0546     		mov	r5, r0
 308              		.loc 17 26 30 view .LVU63
 309 0004 0E48     		ldr	r0, .L9
 310              	.LVL6:
 311              	.LBB399:
 312              	.LBB400:
  25:../DaisyExamples/DaisySP/Source/Synthesis/oscillator.h ****     /** Choices for output waveforms, POLYBLEP are appropriately labeled. Others are naive forms.
  26:../DaisyExamples/DaisySP/Source/Synthesis/oscillator.h ****     */
  27:../DaisyExamples/DaisySP/Source/Synthesis/oscillator.h ****     enum
  28:../DaisyExamples/DaisySP/Source/Synthesis/oscillator.h ****     {
  29:../DaisyExamples/DaisySP/Source/Synthesis/oscillator.h ****         WAVE_SIN,
  30:../DaisyExamples/DaisySP/Source/Synthesis/oscillator.h ****         WAVE_TRI,
  31:../DaisyExamples/DaisySP/Source/Synthesis/oscillator.h ****         WAVE_SAW,
  32:../DaisyExamples/DaisySP/Source/Synthesis/oscillator.h ****         WAVE_RAMP,
  33:../DaisyExamples/DaisySP/Source/Synthesis/oscillator.h ****         WAVE_SQUARE,
  34:../DaisyExamples/DaisySP/Source/Synthesis/oscillator.h ****         WAVE_POLYBLEP_TRI,
  35:../DaisyExamples/DaisySP/Source/Synthesis/oscillator.h ****         WAVE_POLYBLEP_SAW,
  36:../DaisyExamples/DaisySP/Source/Synthesis/oscillator.h ****         WAVE_POLYBLEP_SQUARE,
  37:../DaisyExamples/DaisySP/Source/Synthesis/oscillator.h ****         WAVE_LAST,
  38:../DaisyExamples/DaisySP/Source/Synthesis/oscillator.h ****     };
  39:../DaisyExamples/DaisySP/Source/Synthesis/oscillator.h **** 
  40:../DaisyExamples/DaisySP/Source/Synthesis/oscillator.h **** 
  41:../DaisyExamples/DaisySP/Source/Synthesis/oscillator.h ****     /** Initializes the Oscillator
  42:../DaisyExamples/DaisySP/Source/Synthesis/oscillator.h **** 
  43:../DaisyExamples/DaisySP/Source/Synthesis/oscillator.h ****         \param sample_rate - sample rate of the audio engine being run, and the frequency that the 
  44:../DaisyExamples/DaisySP/Source/Synthesis/oscillator.h **** 
  45:../DaisyExamples/DaisySP/Source/Synthesis/oscillator.h ****         Defaults:
ARM GAS  /var/folders/7c/668hyr3s7rlgsbdftclf3hsr0000gn/T//cczSPkjU.s 			page 26


  46:../DaisyExamples/DaisySP/Source/Synthesis/oscillator.h ****         - freq_ = 100 Hz
  47:../DaisyExamples/DaisySP/Source/Synthesis/oscillator.h ****         - amp_ = 0.5
  48:../DaisyExamples/DaisySP/Source/Synthesis/oscillator.h ****         - waveform_ = sine wave.
  49:../DaisyExamples/DaisySP/Source/Synthesis/oscillator.h ****     */
  50:../DaisyExamples/DaisySP/Source/Synthesis/oscillator.h ****     void Init(float sample_rate)
  51:../DaisyExamples/DaisySP/Source/Synthesis/oscillator.h ****     {
  52:../DaisyExamples/DaisySP/Source/Synthesis/oscillator.h ****         sr_        = sample_rate;
  53:../DaisyExamples/DaisySP/Source/Synthesis/oscillator.h ****         sr_recip_  = 1.0f / sample_rate;
  54:../DaisyExamples/DaisySP/Source/Synthesis/oscillator.h ****         freq_      = 100.0f;
  55:../DaisyExamples/DaisySP/Source/Synthesis/oscillator.h ****         amp_       = 0.5f;
  56:../DaisyExamples/DaisySP/Source/Synthesis/oscillator.h ****         pw_        = 0.5f;
  57:../DaisyExamples/DaisySP/Source/Synthesis/oscillator.h ****         phase_     = 0.0f;
  58:../DaisyExamples/DaisySP/Source/Synthesis/oscillator.h ****         phase_inc_ = CalcPhaseInc(freq_);
  59:../DaisyExamples/DaisySP/Source/Synthesis/oscillator.h ****         waveform_  = WAVE_SIN;
  60:../DaisyExamples/DaisySP/Source/Synthesis/oscillator.h ****         eoc_       = true;
  61:../DaisyExamples/DaisySP/Source/Synthesis/oscillator.h ****         eor_       = true;
  62:../DaisyExamples/DaisySP/Source/Synthesis/oscillator.h ****     }
  63:../DaisyExamples/DaisySP/Source/Synthesis/oscillator.h **** 
  64:../DaisyExamples/DaisySP/Source/Synthesis/oscillator.h **** 
  65:../DaisyExamples/DaisySP/Source/Synthesis/oscillator.h ****     /** Changes the frequency of the Oscillator, and recalculates phase increment.
  66:../DaisyExamples/DaisySP/Source/Synthesis/oscillator.h ****     */
  67:../DaisyExamples/DaisySP/Source/Synthesis/oscillator.h ****     inline void SetFreq(const float f)
  68:../DaisyExamples/DaisySP/Source/Synthesis/oscillator.h ****     {
  69:../DaisyExamples/DaisySP/Source/Synthesis/oscillator.h ****         freq_      = f;
 313              		.loc 2 69 20 view .LVU64
 314 0006 0F4C     		ldr	r4, .L9+4
 315              	.LBE400:
 316              	.LBE399:
  25:DaisyKeys.cpp ****     float ad_out = ad.Process();
 317              		.loc 17 25 1 view .LVU65
 318 0008 2DED028B 		vpush.64	{d8}
 319              		.cfi_def_cfa_offset 24
 320              		.cfi_offset 80, -24
 321              		.cfi_offset 81, -20
 322              		.loc 17 26 30 view .LVU66
 323 000c FFF7FEFF 		bl	_ZN7daisysp5AdEnv7ProcessEv
 324              	.LVL7:
  27:DaisyKeys.cpp ****     // vibrato      = lfo.Process();
  28:DaisyKeys.cpp **** 
  29:DaisyKeys.cpp ****     // osc.SetFreq(oscFreq + vibrato);
  30:DaisyKeys.cpp ****     osc.SetFreq(oscFreq);
 325              		.loc 17 30 16 view .LVU67
 326 0010 0D4B     		ldr	r3, .L9+8
  26:DaisyKeys.cpp ****     // vibrato      = lfo.Process();
 327              		.loc 17 26 30 view .LVU68
 328 0012 B0EE408A 		vmov.f32	s16, s0
 329              	.LVL8:
 330              		.loc 17 30 5 is_stmt 1 view .LVU69
 331              	.LBB404:
 332              	.LBB401:
  70:../DaisyExamples/DaisySP/Source/Synthesis/oscillator.h ****         phase_inc_ = CalcPhaseInc(f);
 333              		.loc 2 70 34 is_stmt 0 view .LVU70
 334 0016 2046     		mov	r0, r4
 335              	.LBE401:
 336              	.LBE404:
 337              		.loc 17 30 16 view .LVU71
 338 0018 D3ED007A 		vldr.32	s15, [r3]
ARM GAS  /var/folders/7c/668hyr3s7rlgsbdftclf3hsr0000gn/T//cczSPkjU.s 			page 27


 339              	.LVL9:
 340              	.LBB405:
 341              	.LBI399:
  67:../DaisyExamples/DaisySP/Source/Synthesis/oscillator.h ****     {
 342              		.loc 2 67 17 is_stmt 1 view .LVU72
 343              	.LBB402:
  69:../DaisyExamples/DaisySP/Source/Synthesis/oscillator.h ****         phase_inc_ = CalcPhaseInc(f);
 344              		.loc 2 69 9 view .LVU73
 345              		.loc 2 70 34 is_stmt 0 view .LVU74
 346 001c B0EE670A 		vmov.f32	s0, s15
 347              	.LVL10:
  69:../DaisyExamples/DaisySP/Source/Synthesis/oscillator.h ****         phase_inc_ = CalcPhaseInc(f);
 348              		.loc 2 69 20 view .LVU75
 349 0020 C4ED027A 		vstr.32	s15, [r4, #8]
 350              		.loc 2 70 9 is_stmt 1 view .LVU76
 351              		.loc 2 70 34 is_stmt 0 view .LVU77
 352 0024 FFF7FEFF 		bl	_ZN7daisysp10Oscillator12CalcPhaseIncEf
 353              	.LVL11:
 354              		.loc 2 70 34 view .LVU78
 355              	.LBE402:
 356              	.LBE405:
  31:DaisyKeys.cpp **** 
  32:DaisyKeys.cpp ****     sig = osc.Process();
 357              		.loc 17 32 22 view .LVU79
 358 0028 2046     		mov	r0, r4
 359              	.LBB406:
 360              	.LBB403:
 361              		.loc 2 70 20 view .LVU80
 362 002a 84ED070A 		vstr.32	s0, [r4, #28]
 363              	.LVL12:
 364              		.loc 2 70 20 view .LVU81
 365              	.LBE403:
 366              	.LBE406:
 367              		.loc 17 32 5 is_stmt 1 view .LVU82
 368              		.loc 17 32 22 is_stmt 0 view .LVU83
 369 002e FFF7FEFF 		bl	_ZN7daisysp10Oscillator7ProcessEv
 370              	.LVL13:
  33:DaisyKeys.cpp ****     // sig = flt.Process(sig);
  34:DaisyKeys.cpp ****     sig *= ad_out;
 371              		.loc 17 34 5 is_stmt 1 view .LVU84
 372              		.loc 17 34 9 is_stmt 0 view .LVU85
 373 0032 20EE080A 		vmul.f32	s0, s0, s16
  35:DaisyKeys.cpp **** }
 374              		.loc 17 35 1 view .LVU86
 375 0036 BDEC028B 		vldm	sp!, {d8}
 376              		.cfi_restore 80
 377              		.cfi_restore 81
 378              		.cfi_def_cfa_offset 16
 379              	.LVL14:
  34:DaisyKeys.cpp **** }
 380              		.loc 17 34 9 view .LVU87
 381 003a 85ED000A 		vstr.32	s0, [r5]
 382              		.loc 17 35 1 view .LVU88
 383 003e 38BD     		pop	{r3, r4, r5, pc}
 384              	.LVL15:
 385              	.L10:
 386              		.loc 17 35 1 view .LVU89
ARM GAS  /var/folders/7c/668hyr3s7rlgsbdftclf3hsr0000gn/T//cczSPkjU.s 			page 28


 387              		.align	2
 388              	.L9:
 389 0040 00000000 		.word	.LANCHOR0
 390 0044 00000000 		.word	.LANCHOR2
 391 0048 00000000 		.word	.LANCHOR1
 392              		.cfi_endproc
 393              	.LFE4689:
 395              		.section	.text.startup.main,"ax",%progbits
 396              		.align	1
 397              		.p2align 2,,3
 398              		.global	main
 399              		.syntax unified
 400              		.thumb
 401              		.thumb_func
 403              	main:
 404              	.LFB4691:
  36:DaisyKeys.cpp **** 
  37:DaisyKeys.cpp **** static void AudioCallback(AudioHandle::InterleavingInputBuffer  in,
  38:DaisyKeys.cpp ****                           AudioHandle::InterleavingOutputBuffer out,
  39:DaisyKeys.cpp ****                           size_t                                size)
  40:DaisyKeys.cpp **** {
  41:DaisyKeys.cpp ****     Controls();
  42:DaisyKeys.cpp **** 
  43:DaisyKeys.cpp ****     // button3.Debounce();
  44:DaisyKeys.cpp ****     // hw.SetLed(button3.Pressed());
  45:DaisyKeys.cpp **** 
  46:DaisyKeys.cpp ****     for(size_t i = 0; i < size; i += 2)
  47:DaisyKeys.cpp ****     {
  48:DaisyKeys.cpp ****         float sig;
  49:DaisyKeys.cpp ****         NextSamples(sig);
  50:DaisyKeys.cpp **** 
  51:DaisyKeys.cpp ****         // left out
  52:DaisyKeys.cpp ****         out[i] = sig;
  53:DaisyKeys.cpp **** 
  54:DaisyKeys.cpp ****         // right out
  55:DaisyKeys.cpp ****         out[i + 1] = sig;
  56:DaisyKeys.cpp ****     }
  57:DaisyKeys.cpp **** }
  58:DaisyKeys.cpp **** 
  59:DaisyKeys.cpp **** int main(void){
 405              		.loc 17 59 15 is_stmt 1 view -0
 406              		.cfi_startproc
 407              		@ args = 0, pretend = 0, frame = 8
 408              		@ frame_needed = 0, uses_anonymous_args = 0
  60:DaisyKeys.cpp ****     // global variables
  61:DaisyKeys.cpp ****     float sample_rate;
 409              		.loc 17 61 5 view .LVU91
  62:DaisyKeys.cpp ****     oscFreq = 1000.0f;
 410              		.loc 17 62 5 view .LVU92
  59:DaisyKeys.cpp ****     // global variables
 411              		.loc 17 59 15 is_stmt 0 view .LVU93
 412 0000 F0B5     		push	{r4, r5, r6, r7, lr}
 413              		.cfi_def_cfa_offset 20
 414              		.cfi_offset 4, -20
 415              		.cfi_offset 5, -16
 416              		.cfi_offset 6, -12
 417              		.cfi_offset 7, -8
ARM GAS  /var/folders/7c/668hyr3s7rlgsbdftclf3hsr0000gn/T//cczSPkjU.s 			page 29


 418              		.cfi_offset 14, -4
 419              		.loc 17 62 13 view .LVU94
 420 0002 324B     		ldr	r3, .L14
  63:DaisyKeys.cpp **** 
  64:DaisyKeys.cpp ****     //Init everything
  65:DaisyKeys.cpp ****     pod.Init();
 421              		.loc 17 65 13 view .LVU95
 422 0004 0021     		movs	r1, #0
 423 0006 3248     		ldr	r0, .L14+4
 424              	.LBB425:
 425              	.LBB426:
  55:../DaisyExamples/DaisySP/Source/Synthesis/oscillator.h ****         pw_        = 0.5f;
 426              		.loc 2 55 20 view .LVU96
 427 0008 4FF07C56 		mov	r6, #1056964608
  52:../DaisyExamples/DaisySP/Source/Synthesis/oscillator.h ****         sr_recip_  = 1.0f / sample_rate;
 428              		.loc 2 52 20 view .LVU97
 429 000c 314C     		ldr	r4, .L14+8
  57:../DaisyExamples/DaisySP/Source/Synthesis/oscillator.h ****         phase_inc_ = CalcPhaseInc(freq_);
 430              		.loc 2 57 20 view .LVU98
 431 000e 0027     		movs	r7, #0
 432              	.LBE426:
 433              	.LBE425:
  66:DaisyKeys.cpp ****     pod.SetAudioBlockSize(4);
  67:DaisyKeys.cpp ****     sample_rate = pod.AudioSampleRate();
  68:DaisyKeys.cpp ****     osc.Init(sample_rate);
  69:DaisyKeys.cpp ****     ad.Init(sample_rate);
 434              		.loc 17 69 12 view .LVU99
 435 0010 314D     		ldr	r5, .L14+12
  59:DaisyKeys.cpp ****     // global variables
 436              		.loc 17 59 15 view .LVU100
 437 0012 2DED048B 		vpush.64	{d8, d9}
 438              		.cfi_def_cfa_offset 36
 439              		.cfi_offset 80, -36
 440              		.cfi_offset 81, -32
 441              		.cfi_offset 82, -28
 442              		.cfi_offset 83, -24
  62:DaisyKeys.cpp **** 
 443              		.loc 17 62 13 view .LVU101
 444 0016 9FED319A 		vldr.32	s18, .L14+16
  59:DaisyKeys.cpp ****     // global variables
 445              		.loc 17 59 15 view .LVU102
 446 001a 83B0     		sub	sp, sp, #12
 447              		.cfi_def_cfa_offset 48
 448              	.LBB430:
 449              	.LBB427:
  53:../DaisyExamples/DaisySP/Source/Synthesis/oscillator.h ****         freq_      = 100.0f;
 450              		.loc 2 53 27 view .LVU103
 451 001c F7EE008A 		vmov.f32	s17, #1.0e+0
 452              	.LBE427:
 453              	.LBE430:
  62:DaisyKeys.cpp **** 
 454              		.loc 17 62 13 view .LVU104
 455 0020 83ED009A 		vstr.32	s18, [r3]
  65:DaisyKeys.cpp ****     pod.SetAudioBlockSize(4);
 456              		.loc 17 65 5 is_stmt 1 view .LVU105
  65:DaisyKeys.cpp ****     pod.SetAudioBlockSize(4);
 457              		.loc 17 65 13 is_stmt 0 view .LVU106
ARM GAS  /var/folders/7c/668hyr3s7rlgsbdftclf3hsr0000gn/T//cczSPkjU.s 			page 30


 458 0024 FFF7FEFF 		bl	_ZN5daisy8DaisyPod4InitEb
 459              	.LVL16:
  66:DaisyKeys.cpp ****     sample_rate = pod.AudioSampleRate();
 460              		.loc 17 66 5 is_stmt 1 view .LVU107
  66:DaisyKeys.cpp ****     sample_rate = pod.AudioSampleRate();
 461              		.loc 17 66 26 is_stmt 0 view .LVU108
 462 0028 0421     		movs	r1, #4
 463 002a 2948     		ldr	r0, .L14+4
 464 002c FFF7FEFF 		bl	_ZN5daisy8DaisyPod17SetAudioBlockSizeEj
 465              	.LVL17:
  67:DaisyKeys.cpp ****     osc.Init(sample_rate);
 466              		.loc 17 67 5 is_stmt 1 view .LVU109
  67:DaisyKeys.cpp ****     osc.Init(sample_rate);
 467              		.loc 17 67 38 is_stmt 0 view .LVU110
 468 0030 2748     		ldr	r0, .L14+4
 469 0032 FFF7FEFF 		bl	_ZN5daisy8DaisyPod15AudioSampleRateEv
 470              	.LVL18:
 471 0036 B0EE408A 		vmov.f32	s16, s0
 472              	.LVL19:
  68:DaisyKeys.cpp ****     ad.Init(sample_rate);
 473              		.loc 17 68 5 is_stmt 1 view .LVU111
 474              	.LBB431:
 475              	.LBI425:
  50:../DaisyExamples/DaisySP/Source/Synthesis/oscillator.h ****     {
 476              		.loc 2 50 10 view .LVU112
 477              	.LBB428:
  52:../DaisyExamples/DaisySP/Source/Synthesis/oscillator.h ****         sr_recip_  = 1.0f / sample_rate;
 478              		.loc 2 52 9 view .LVU113
  54:../DaisyExamples/DaisySP/Source/Synthesis/oscillator.h ****         amp_       = 0.5f;
 479              		.loc 2 54 20 is_stmt 0 view .LVU114
 480 003a 9FED290A 		vldr.32	s0, .L14+20
 481              	.LVL20:
  58:../DaisyExamples/DaisySP/Source/Synthesis/oscillator.h ****         waveform_  = WAVE_SIN;
 482              		.loc 2 58 34 view .LVU115
 483 003e 2046     		mov	r0, r4
  55:../DaisyExamples/DaisySP/Source/Synthesis/oscillator.h ****         pw_        = 0.5f;
 484              		.loc 2 55 20 view .LVU116
 485 0040 6660     		str	r6, [r4, #4]	@ float
  53:../DaisyExamples/DaisySP/Source/Synthesis/oscillator.h ****         freq_      = 100.0f;
 486              		.loc 2 53 27 view .LVU117
 487 0042 C8EE887A 		vdiv.f32	s15, s17, s16
  52:../DaisyExamples/DaisySP/Source/Synthesis/oscillator.h ****         sr_recip_  = 1.0f / sample_rate;
 488              		.loc 2 52 20 view .LVU118
 489 0046 84ED048A 		vstr.32	s16, [r4, #16]
  53:../DaisyExamples/DaisySP/Source/Synthesis/oscillator.h ****         freq_      = 100.0f;
 490              		.loc 2 53 9 is_stmt 1 view .LVU119
  54:../DaisyExamples/DaisySP/Source/Synthesis/oscillator.h ****         amp_       = 0.5f;
 491              		.loc 2 54 20 is_stmt 0 view .LVU120
 492 004a 84ED020A 		vstr.32	s0, [r4, #8]
  56:../DaisyExamples/DaisySP/Source/Synthesis/oscillator.h ****         phase_     = 0.0f;
 493              		.loc 2 56 20 view .LVU121
 494 004e E660     		str	r6, [r4, #12]	@ float
  57:../DaisyExamples/DaisySP/Source/Synthesis/oscillator.h ****         phase_inc_ = CalcPhaseInc(freq_);
 495              		.loc 2 57 20 view .LVU122
 496 0050 A761     		str	r7, [r4, #24]	@ float
  53:../DaisyExamples/DaisySP/Source/Synthesis/oscillator.h ****         freq_      = 100.0f;
 497              		.loc 2 53 20 view .LVU123
ARM GAS  /var/folders/7c/668hyr3s7rlgsbdftclf3hsr0000gn/T//cczSPkjU.s 			page 31


 498 0052 C4ED057A 		vstr.32	s15, [r4, #20]
  54:../DaisyExamples/DaisySP/Source/Synthesis/oscillator.h ****         amp_       = 0.5f;
 499              		.loc 2 54 9 is_stmt 1 view .LVU124
  55:../DaisyExamples/DaisySP/Source/Synthesis/oscillator.h ****         pw_        = 0.5f;
 500              		.loc 2 55 9 view .LVU125
  56:../DaisyExamples/DaisySP/Source/Synthesis/oscillator.h ****         phase_     = 0.0f;
 501              		.loc 2 56 9 view .LVU126
  57:../DaisyExamples/DaisySP/Source/Synthesis/oscillator.h ****         phase_inc_ = CalcPhaseInc(freq_);
 502              		.loc 2 57 9 view .LVU127
  58:../DaisyExamples/DaisySP/Source/Synthesis/oscillator.h ****         waveform_  = WAVE_SIN;
 503              		.loc 2 58 9 view .LVU128
  58:../DaisyExamples/DaisySP/Source/Synthesis/oscillator.h ****         waveform_  = WAVE_SIN;
 504              		.loc 2 58 34 is_stmt 0 view .LVU129
 505 0056 FFF7FEFF 		bl	_ZN7daisysp10Oscillator12CalcPhaseIncEf
 506              	.LVL21:
  59:../DaisyExamples/DaisySP/Source/Synthesis/oscillator.h ****         eoc_       = true;
 507              		.loc 2 59 20 view .LVU130
 508 005a 0023     		movs	r3, #0
  58:../DaisyExamples/DaisySP/Source/Synthesis/oscillator.h ****         waveform_  = WAVE_SIN;
 509              		.loc 2 58 34 view .LVU131
 510 005c F0EE407A 		vmov.f32	s15, s0
 511              	.LBE428:
 512              	.LBE431:
 513              		.loc 17 69 12 view .LVU132
 514 0060 2846     		mov	r0, r5
 515 0062 B0EE480A 		vmov.f32	s0, s16
 516              	.LBB432:
 517              	.LBB429:
  59:../DaisyExamples/DaisySP/Source/Synthesis/oscillator.h ****         eoc_       = true;
 518              		.loc 2 59 20 view .LVU133
 519 0066 2370     		strb	r3, [r4]
  61:../DaisyExamples/DaisySP/Source/Synthesis/oscillator.h ****     }
 520              		.loc 2 61 20 view .LVU134
 521 0068 40F20113 		movw	r3, #257
  58:../DaisyExamples/DaisySP/Source/Synthesis/oscillator.h ****         waveform_  = WAVE_SIN;
 522              		.loc 2 58 20 view .LVU135
 523 006c C4ED077A 		vstr.32	s15, [r4, #28]
  59:../DaisyExamples/DaisySP/Source/Synthesis/oscillator.h ****         eoc_       = true;
 524              		.loc 2 59 9 is_stmt 1 view .LVU136
  60:../DaisyExamples/DaisySP/Source/Synthesis/oscillator.h ****         eor_       = true;
 525              		.loc 2 60 9 view .LVU137
  61:../DaisyExamples/DaisySP/Source/Synthesis/oscillator.h ****     }
 526              		.loc 2 61 9 view .LVU138
  61:../DaisyExamples/DaisySP/Source/Synthesis/oscillator.h ****     }
 527              		.loc 2 61 20 is_stmt 0 view .LVU139
 528 0070 2385     		strh	r3, [r4, #40]	@ movhi
 529              	.LVL22:
  61:../DaisyExamples/DaisySP/Source/Synthesis/oscillator.h ****     }
 530              		.loc 2 61 20 view .LVU140
 531              	.LBE429:
 532              	.LBE432:
 533              		.loc 17 69 5 is_stmt 1 view .LVU141
 534              		.loc 17 69 12 is_stmt 0 view .LVU142
 535 0072 FFF7FEFF 		bl	_ZN7daisysp5AdEnv4InitEf
 536              	.LVL23:
  70:DaisyKeys.cpp **** 
  71:DaisyKeys.cpp ****     // Switch button3;
ARM GAS  /var/folders/7c/668hyr3s7rlgsbdftclf3hsr0000gn/T//cczSPkjU.s 			page 32


  72:DaisyKeys.cpp ****     button3.Init(hw.GetPin(7), 1000);
 537              		.loc 17 72 5 is_stmt 1 view .LVU143
 538              		.loc 17 72 17 is_stmt 0 view .LVU144
 539 0076 0720     		movs	r0, #7
 540 0078 FFF7FEFF 		bl	_ZN5daisy9DaisySeed6GetPinEh
 541              	.LVL24:
 542 007c ADF80400 		strh	r0, [sp, #4]	@ movhi
 543 0080 0199     		ldr	r1, [sp, #4]
 544 0082 B0EE490A 		vmov.f32	s0, s18
 545 0086 1748     		ldr	r0, .L14+24
 546 0088 FFF7FEFF 		bl	_ZN5daisy6Switch4InitE12dsy_gpio_pinf
 547              	.LVL25:
  73:DaisyKeys.cpp **** 
  74:DaisyKeys.cpp ****     // Set parameters for oscillator
  75:DaisyKeys.cpp ****     osc.SetWaveform(osc.WAVE_SAW);
 548              		.loc 17 75 5 is_stmt 1 view .LVU145
 549              	.LBB433:
 550              	.LBI433:
  71:../DaisyExamples/DaisySP/Source/Synthesis/oscillator.h ****     }
  72:../DaisyExamples/DaisySP/Source/Synthesis/oscillator.h **** 
  73:../DaisyExamples/DaisySP/Source/Synthesis/oscillator.h **** 
  74:../DaisyExamples/DaisySP/Source/Synthesis/oscillator.h ****     /** Sets the amplitude of the waveform.
  75:../DaisyExamples/DaisySP/Source/Synthesis/oscillator.h ****     */
  76:../DaisyExamples/DaisySP/Source/Synthesis/oscillator.h ****     inline void SetAmp(const float a) { amp_ = a; }
  77:../DaisyExamples/DaisySP/Source/Synthesis/oscillator.h ****     /** Sets the waveform to be synthesized by the Process() function.
  78:../DaisyExamples/DaisySP/Source/Synthesis/oscillator.h ****     */
  79:../DaisyExamples/DaisySP/Source/Synthesis/oscillator.h ****     inline void SetWaveform(const uint8_t wf)
 551              		.loc 2 79 17 view .LVU146
 552              	.LBB434:
  80:../DaisyExamples/DaisySP/Source/Synthesis/oscillator.h ****     {
  81:../DaisyExamples/DaisySP/Source/Synthesis/oscillator.h ****         waveform_ = wf < WAVE_LAST ? wf : WAVE_SIN;
 553              		.loc 2 81 9 view .LVU147
 554              		.loc 2 81 19 is_stmt 0 view .LVU148
 555 008c 0223     		movs	r3, #2
 556              	.LBE434:
 557              	.LBE433:
  76:DaisyKeys.cpp ****     wave = osc.WAVE_SAW;
 558              		.loc 17 76 10 view .LVU149
 559 008e 164A     		ldr	r2, .L14+28
 560              	.LBB436:
 561              	.LBB437:
  70:../DaisyExamples/DaisySP/Source/Synthesis/oscillator.h ****     }
 562              		.loc 2 70 34 view .LVU150
 563 0090 2046     		mov	r0, r4
  69:../DaisyExamples/DaisySP/Source/Synthesis/oscillator.h ****         phase_inc_ = CalcPhaseInc(f);
 564              		.loc 2 69 20 view .LVU151
 565 0092 9FED160A 		vldr.32	s0, .L14+32
 566              	.LBE437:
 567              	.LBE436:
 568              		.loc 17 76 10 view .LVU152
 569 0096 1360     		str	r3, [r2]
 570              	.LBB440:
 571              	.LBB435:
 572              		.loc 2 81 19 view .LVU153
 573 0098 2370     		strb	r3, [r4]
 574              	.LVL26:
 575              		.loc 2 81 19 view .LVU154
ARM GAS  /var/folders/7c/668hyr3s7rlgsbdftclf3hsr0000gn/T//cczSPkjU.s 			page 33


 576              	.LBE435:
 577              	.LBE440:
 578              		.loc 17 76 5 is_stmt 1 view .LVU155
  77:DaisyKeys.cpp ****     osc.SetFreq(440);
 579              		.loc 17 77 5 view .LVU156
 580              	.LBB441:
 581              	.LBI436:
  67:../DaisyExamples/DaisySP/Source/Synthesis/oscillator.h ****     {
 582              		.loc 2 67 17 view .LVU157
 583              	.LBB438:
  69:../DaisyExamples/DaisySP/Source/Synthesis/oscillator.h ****         phase_inc_ = CalcPhaseInc(f);
 584              		.loc 2 69 9 view .LVU158
  70:../DaisyExamples/DaisySP/Source/Synthesis/oscillator.h ****     }
 585              		.loc 2 70 9 view .LVU159
  69:../DaisyExamples/DaisySP/Source/Synthesis/oscillator.h ****         phase_inc_ = CalcPhaseInc(f);
 586              		.loc 2 69 20 is_stmt 0 view .LVU160
 587 009a 84ED020A 		vstr.32	s0, [r4, #8]
  70:../DaisyExamples/DaisySP/Source/Synthesis/oscillator.h ****     }
 588              		.loc 2 70 34 view .LVU161
 589 009e FFF7FEFF 		bl	_ZN7daisysp10Oscillator12CalcPhaseIncEf
 590              	.LVL27:
 591              	.LBE438:
 592              	.LBE441:
 593              	.LBB442:
 594              	.LBB443:
  44:../DaisyExamples/DaisySP/Source/Control/adenv.h ****     /** Initializes the ad envelope.
  45:../DaisyExamples/DaisySP/Source/Control/adenv.h **** 
  46:../DaisyExamples/DaisySP/Source/Control/adenv.h ****         Defaults:
  47:../DaisyExamples/DaisySP/Source/Control/adenv.h ****             - current segment = idle
  48:../DaisyExamples/DaisySP/Source/Control/adenv.h ****             - curve = linear
  49:../DaisyExamples/DaisySP/Source/Control/adenv.h ****             - phase = 0
  50:../DaisyExamples/DaisySP/Source/Control/adenv.h ****             - min = 0
  51:../DaisyExamples/DaisySP/Source/Control/adenv.h ****             - max = 1
  52:../DaisyExamples/DaisySP/Source/Control/adenv.h **** 
  53:../DaisyExamples/DaisySP/Source/Control/adenv.h ****         \param sample_rate      sample rate of the audio engine being run
  54:../DaisyExamples/DaisySP/Source/Control/adenv.h ****     */
  55:../DaisyExamples/DaisySP/Source/Control/adenv.h ****     void Init(float sample_rate);
  56:../DaisyExamples/DaisySP/Source/Control/adenv.h **** 
  57:../DaisyExamples/DaisySP/Source/Control/adenv.h ****     /** Processes the current sample of the envelope. This should be called once
  58:../DaisyExamples/DaisySP/Source/Control/adenv.h ****         per sample period.
  59:../DaisyExamples/DaisySP/Source/Control/adenv.h ****         \return the current envelope value.
  60:../DaisyExamples/DaisySP/Source/Control/adenv.h ****     */
  61:../DaisyExamples/DaisySP/Source/Control/adenv.h ****     float Process();
  62:../DaisyExamples/DaisySP/Source/Control/adenv.h **** 
  63:../DaisyExamples/DaisySP/Source/Control/adenv.h ****     /** Starts or retriggers the envelope.*/
  64:../DaisyExamples/DaisySP/Source/Control/adenv.h ****     inline void Trigger() { trigger_ = 1; }
  65:../DaisyExamples/DaisySP/Source/Control/adenv.h ****     /** Sets the length of time (in seconds) for a specific segment. */
  66:../DaisyExamples/DaisySP/Source/Control/adenv.h ****     inline void SetTime(uint8_t seg, float time) { segment_time_[seg] = time; }
 595              		.loc 1 66 71 view .LVU162
 596 00a2 134A     		ldr	r2, .L14+36
 597              	.LBE443:
 598              	.LBE442:
 599              	.LBB446:
 600              	.LBB447:
 601 00a4 134B     		ldr	r3, .L14+40
 602              	.LBE447:
 603              	.LBE446:
ARM GAS  /var/folders/7c/668hyr3s7rlgsbdftclf3hsr0000gn/T//cczSPkjU.s 			page 34


  78:DaisyKeys.cpp ****     osc.SetAmp(1);
  79:DaisyKeys.cpp **** 
  80:DaisyKeys.cpp ****     //Set envelope parameters
  81:DaisyKeys.cpp ****     ad.SetTime(ADENV_SEG_ATTACK, 0.01);
  82:DaisyKeys.cpp ****     ad.SetTime(ADENV_SEG_DECAY, .2);
  83:DaisyKeys.cpp ****     ad.SetMax(1);
  84:DaisyKeys.cpp ****     ad.SetMin(0);
  85:DaisyKeys.cpp ****     ad.SetCurve(0.5);
  86:DaisyKeys.cpp **** 
  87:DaisyKeys.cpp ****     // start callback
  88:DaisyKeys.cpp ****     pod.StartAdc();
 604              		.loc 17 88 17 view .LVU163
 605 00a6 0A48     		ldr	r0, .L14+4
 606              	.LBB449:
 607              	.LBB450:
  76:../DaisyExamples/DaisySP/Source/Synthesis/oscillator.h ****     /** Sets the waveform to be synthesized by the Process() function.
 608              		.loc 2 76 46 view .LVU164
 609 00a8 C4ED018A 		vstr.32	s17, [r4, #4]
 610              	.LBE450:
 611              	.LBE449:
 612              	.LBB452:
 613              	.LBB453:
  67:../DaisyExamples/DaisySP/Source/Control/adenv.h ****     /** Sets the amount of curve applied. A positve value will create a log
  68:../DaisyExamples/DaisySP/Source/Control/adenv.h ****         curve. Input range: -100 to 100.  (or more)
  69:../DaisyExamples/DaisySP/Source/Control/adenv.h ****     */
  70:../DaisyExamples/DaisySP/Source/Control/adenv.h ****     inline void SetCurve(float scalar) { curve_scalar_ = scalar; }
  71:../DaisyExamples/DaisySP/Source/Control/adenv.h ****     /** Sets the minimum value of the envelope output.
  72:../DaisyExamples/DaisySP/Source/Control/adenv.h ****         Input range: -FLTmax_, to FLTmax_
  73:../DaisyExamples/DaisySP/Source/Control/adenv.h ****     */
  74:../DaisyExamples/DaisySP/Source/Control/adenv.h ****     inline void SetMin(float min) { min_ = min; }
  75:../DaisyExamples/DaisySP/Source/Control/adenv.h ****     /** Sets the maximum value of the envelope output.
  76:../DaisyExamples/DaisySP/Source/Control/adenv.h ****         Input range: -FLTmax_, to FLTmax_
  77:../DaisyExamples/DaisySP/Source/Control/adenv.h ****     */
  78:../DaisyExamples/DaisySP/Source/Control/adenv.h ****     inline void SetMax(float max) { max_ = max; }
 614              		.loc 1 78 42 view .LVU165
 615 00ac C5ED068A 		vstr.32	s17, [r5, #24]
 616              	.LBE453:
 617              	.LBE452:
 618              	.LBB455:
 619              	.LBB439:
  70:../DaisyExamples/DaisySP/Source/Synthesis/oscillator.h ****     }
 620              		.loc 2 70 20 view .LVU166
 621 00b0 84ED070A 		vstr.32	s0, [r4, #28]
 622              	.LVL28:
  70:../DaisyExamples/DaisySP/Source/Synthesis/oscillator.h ****     }
 623              		.loc 2 70 20 view .LVU167
 624              	.LBE439:
 625              	.LBE455:
  78:DaisyKeys.cpp **** 
 626              		.loc 17 78 5 is_stmt 1 view .LVU168
 627              	.LBB456:
 628              	.LBI449:
  76:../DaisyExamples/DaisySP/Source/Synthesis/oscillator.h ****     /** Sets the waveform to be synthesized by the Process() function.
 629              		.loc 2 76 17 view .LVU169
 630              	.LBB451:
  76:../DaisyExamples/DaisySP/Source/Synthesis/oscillator.h ****     /** Sets the waveform to be synthesized by the Process() function.
 631              		.loc 2 76 41 view .LVU170
ARM GAS  /var/folders/7c/668hyr3s7rlgsbdftclf3hsr0000gn/T//cczSPkjU.s 			page 35


  76:../DaisyExamples/DaisySP/Source/Synthesis/oscillator.h ****     /** Sets the waveform to be synthesized by the Process() function.
 632              		.loc 2 76 41 is_stmt 0 view .LVU171
 633              	.LBE451:
 634              	.LBE456:
  81:DaisyKeys.cpp ****     ad.SetTime(ADENV_SEG_DECAY, .2);
 635              		.loc 17 81 5 is_stmt 1 view .LVU172
 636              	.LBB457:
 637              	.LBI442:
  66:../DaisyExamples/DaisySP/Source/Control/adenv.h ****     /** Sets the amount of curve applied. A positve value will create a log
 638              		.loc 1 66 17 view .LVU173
 639              	.LBB444:
  66:../DaisyExamples/DaisySP/Source/Control/adenv.h ****     /** Sets the amount of curve applied. A positve value will create a log
 640              		.loc 1 66 52 view .LVU174
 641              	.LBE444:
 642              	.LBE457:
 643              	.LBB458:
 644              	.LBB459:
  74:../DaisyExamples/DaisySP/Source/Control/adenv.h ****     /** Sets the maximum value of the envelope output.
 645              		.loc 1 74 42 is_stmt 0 view .LVU175
 646 00b4 6F61     		str	r7, [r5, #20]	@ float
 647              	.LBE459:
 648              	.LBE458:
 649              	.LBB461:
 650              	.LBB445:
  66:../DaisyExamples/DaisySP/Source/Control/adenv.h ****     /** Sets the amount of curve applied. A positve value will create a log
 651              		.loc 1 66 71 view .LVU176
 652 00b6 AA60     		str	r2, [r5, #8]	@ float
 653              	.LVL29:
  66:../DaisyExamples/DaisySP/Source/Control/adenv.h ****     /** Sets the amount of curve applied. A positve value will create a log
 654              		.loc 1 66 71 view .LVU177
 655              	.LBE445:
 656              	.LBE461:
  82:DaisyKeys.cpp ****     ad.SetMax(1);
 657              		.loc 17 82 5 is_stmt 1 view .LVU178
 658              	.LBB462:
 659              	.LBI446:
  66:../DaisyExamples/DaisySP/Source/Control/adenv.h ****     /** Sets the amount of curve applied. A positve value will create a log
 660              		.loc 1 66 17 view .LVU179
 661              	.LBB448:
  66:../DaisyExamples/DaisySP/Source/Control/adenv.h ****     /** Sets the amount of curve applied. A positve value will create a log
 662              		.loc 1 66 52 view .LVU180
  66:../DaisyExamples/DaisySP/Source/Control/adenv.h ****     /** Sets the amount of curve applied. A positve value will create a log
 663              		.loc 1 66 71 is_stmt 0 view .LVU181
 664 00b8 EB60     		str	r3, [r5, #12]	@ float
 665              	.LVL30:
  66:../DaisyExamples/DaisySP/Source/Control/adenv.h ****     /** Sets the amount of curve applied. A positve value will create a log
 666              		.loc 1 66 71 view .LVU182
 667              	.LBE448:
 668              	.LBE462:
  83:DaisyKeys.cpp ****     ad.SetMin(0);
 669              		.loc 17 83 5 is_stmt 1 view .LVU183
 670              	.LBB463:
 671              	.LBI452:
 672              		.loc 1 78 17 view .LVU184
 673              	.LBB454:
 674              		.loc 1 78 37 view .LVU185
 675              		.loc 1 78 37 is_stmt 0 view .LVU186
ARM GAS  /var/folders/7c/668hyr3s7rlgsbdftclf3hsr0000gn/T//cczSPkjU.s 			page 36


 676              	.LBE454:
 677              	.LBE463:
  84:DaisyKeys.cpp ****     ad.SetCurve(0.5);
 678              		.loc 17 84 5 is_stmt 1 view .LVU187
 679              	.LBB464:
 680              	.LBI458:
  74:../DaisyExamples/DaisySP/Source/Control/adenv.h ****     /** Sets the maximum value of the envelope output.
 681              		.loc 1 74 17 view .LVU188
 682              	.LBB460:
  74:../DaisyExamples/DaisySP/Source/Control/adenv.h ****     /** Sets the maximum value of the envelope output.
 683              		.loc 1 74 37 view .LVU189
  74:../DaisyExamples/DaisySP/Source/Control/adenv.h ****     /** Sets the maximum value of the envelope output.
 684              		.loc 1 74 37 is_stmt 0 view .LVU190
 685              	.LBE460:
 686              	.LBE464:
  85:DaisyKeys.cpp **** 
 687              		.loc 17 85 5 is_stmt 1 view .LVU191
 688              	.LBB465:
 689              	.LBI465:
  70:../DaisyExamples/DaisySP/Source/Control/adenv.h ****     /** Sets the minimum value of the envelope output.
 690              		.loc 1 70 17 view .LVU192
 691              	.LBB466:
  70:../DaisyExamples/DaisySP/Source/Control/adenv.h ****     /** Sets the minimum value of the envelope output.
 692              		.loc 1 70 42 view .LVU193
  70:../DaisyExamples/DaisySP/Source/Control/adenv.h ****     /** Sets the minimum value of the envelope output.
 693              		.loc 1 70 56 is_stmt 0 view .LVU194
 694 00ba 2E62     		str	r6, [r5, #32]	@ float
 695              	.LVL31:
  70:../DaisyExamples/DaisySP/Source/Control/adenv.h ****     /** Sets the minimum value of the envelope output.
 696              		.loc 1 70 56 view .LVU195
 697              	.LBE466:
 698              	.LBE465:
 699              		.loc 17 88 5 is_stmt 1 view .LVU196
 700              		.loc 17 88 17 is_stmt 0 view .LVU197
 701 00bc FFF7FEFF 		bl	_ZN5daisy8DaisyPod8StartAdcEv
 702              	.LVL32:
  89:DaisyKeys.cpp ****     pod.StartAudio(AudioCallback);
 703              		.loc 17 89 5 is_stmt 1 view .LVU198
 704              		.loc 17 89 19 is_stmt 0 view .LVU199
 705 00c0 0D49     		ldr	r1, .L14+44
 706 00c2 0348     		ldr	r0, .L14+4
 707 00c4 FFF7FEFF 		bl	_ZN5daisy8DaisyPod10StartAudioEPFvPKfPfjE
 708              	.LVL33:
 709              	.L12:
  90:DaisyKeys.cpp **** 
  91:DaisyKeys.cpp **** 
  92:DaisyKeys.cpp ****     while(1) {}
 710              		.loc 17 92 5 is_stmt 1 discriminator 1 view .LVU200
 711              		.loc 17 92 5 discriminator 1 view .LVU201
 712              		.loc 17 92 5 discriminator 1 view .LVU202
 713              		.loc 17 92 5 discriminator 1 view .LVU203
 714 00c8 FEE7     		b	.L12
 715              	.L15:
 716 00ca 00BF     		.align	2
 717              	.L14:
 718 00cc 00000000 		.word	.LANCHOR1
 719 00d0 00000000 		.word	_ZL3pod
ARM GAS  /var/folders/7c/668hyr3s7rlgsbdftclf3hsr0000gn/T//cczSPkjU.s 			page 37


 720 00d4 00000000 		.word	.LANCHOR2
 721 00d8 00000000 		.word	.LANCHOR0
 722 00dc 00007A44 		.word	1148846080
 723 00e0 0000C842 		.word	1120403456
 724 00e4 00000000 		.word	.LANCHOR3
 725 00e8 00000000 		.word	.LANCHOR4
 726 00ec 0000DC43 		.word	1138491392
 727 00f0 0AD7233C 		.word	1008981770
 728 00f4 CDCC4C3E 		.word	1045220557
 729 00f8 00000000 		.word	_ZL13AudioCallbackPKfPfj
 730              		.cfi_endproc
 731              	.LFE4691:
 733              		.section	.text._Z13UpdateButtonsv,"ax",%progbits
 734              		.align	1
 735              		.p2align 2,,3
 736              		.global	_Z13UpdateButtonsv
 737              		.syntax unified
 738              		.thumb
 739              		.thumb_func
 741              	_Z13UpdateButtonsv:
 742              	.LFB4692:
  93:DaisyKeys.cpp **** 
  94:DaisyKeys.cpp **** }
  95:DaisyKeys.cpp **** 
  96:DaisyKeys.cpp **** 
  97:DaisyKeys.cpp **** void UpdateButtons()
  98:DaisyKeys.cpp **** {
 743              		.loc 17 98 1 view -0
 744              		.cfi_startproc
 745              		@ args = 0, pretend = 0, frame = 0
 746              		@ frame_needed = 0, uses_anonymous_args = 0
  99:DaisyKeys.cpp **** 
 100:DaisyKeys.cpp ****     button3.Debounce();
 747              		.loc 17 100 5 view .LVU205
  98:DaisyKeys.cpp **** 
 748              		.loc 17 98 1 is_stmt 0 view .LVU206
 749 0000 08B5     		push	{r3, lr}
 750              		.cfi_def_cfa_offset 8
 751              		.cfi_offset 3, -8
 752              		.cfi_offset 14, -4
 753              		.loc 17 100 21 view .LVU207
 754 0002 1B48     		ldr	r0, .L33
 755 0004 FFF7FEFF 		bl	_ZN5daisy6Switch8DebounceEv
 756              	.LVL34:
 101:DaisyKeys.cpp ****     if(pod.button1.RisingEdge())
 757              		.loc 17 101 5 is_stmt 1 view .LVU208
 758              	.LBB467:
 759              	.LBI467:
  43:../DaisyExamples/libDaisy/src/hid/switch.h **** 
  44:../DaisyExamples/libDaisy/src/hid/switch.h ****     /** 
  45:../DaisyExamples/libDaisy/src/hid/switch.h ****     Initializes the switch object with a given port/pin combo.
  46:../DaisyExamples/libDaisy/src/hid/switch.h ****     \param pin port/pin object to tell the switch which hardware pin to use.
  47:../DaisyExamples/libDaisy/src/hid/switch.h ****     \param update_rate Does nothing. Backwards compatibility until next breaking update.
  48:../DaisyExamples/libDaisy/src/hid/switch.h ****     \param t switch type -- Default: TYPE_MOMENTARY
  49:../DaisyExamples/libDaisy/src/hid/switch.h ****     \param pol switch polarity -- Default: POLARITY_INVERTED
  50:../DaisyExamples/libDaisy/src/hid/switch.h ****     \param pu switch pull up/down -- Default: PULL_UP
  51:../DaisyExamples/libDaisy/src/hid/switch.h ****     */
ARM GAS  /var/folders/7c/668hyr3s7rlgsbdftclf3hsr0000gn/T//cczSPkjU.s 			page 38


  52:../DaisyExamples/libDaisy/src/hid/switch.h ****     void
  53:../DaisyExamples/libDaisy/src/hid/switch.h ****     Init(dsy_gpio_pin pin, float update_rate, Type t, Polarity pol, Pull pu);
  54:../DaisyExamples/libDaisy/src/hid/switch.h **** 
  55:../DaisyExamples/libDaisy/src/hid/switch.h ****     /**
  56:../DaisyExamples/libDaisy/src/hid/switch.h ****        Simplified Init.
  57:../DaisyExamples/libDaisy/src/hid/switch.h ****        \param pin port/pin object to tell the switch which hardware pin to use.
  58:../DaisyExamples/libDaisy/src/hid/switch.h ****        \param update_rate Left for backwards compatibility until next breaking change.
  59:../DaisyExamples/libDaisy/src/hid/switch.h ****     */
  60:../DaisyExamples/libDaisy/src/hid/switch.h ****     void Init(dsy_gpio_pin pin, float update_rate = 0.f);
  61:../DaisyExamples/libDaisy/src/hid/switch.h **** 
  62:../DaisyExamples/libDaisy/src/hid/switch.h ****     /** 
  63:../DaisyExamples/libDaisy/src/hid/switch.h ****     Called at update_rate to debounce and handle timing for the switch.
  64:../DaisyExamples/libDaisy/src/hid/switch.h ****     In order for events not to be missed, its important that the Edge/Pressed checks
  65:../DaisyExamples/libDaisy/src/hid/switch.h ****     be made at the same rate as the debounce function is being called.
  66:../DaisyExamples/libDaisy/src/hid/switch.h ****     */
  67:../DaisyExamples/libDaisy/src/hid/switch.h ****     void Debounce();
  68:../DaisyExamples/libDaisy/src/hid/switch.h **** 
  69:../DaisyExamples/libDaisy/src/hid/switch.h ****     /** \return true if a button was just pressed. */
  70:../DaisyExamples/libDaisy/src/hid/switch.h ****     inline bool RisingEdge() const { return updated_ ? state_ == 0x7f : false; }
 760              		.loc 3 70 17 view .LVU209
 761              	.LBB468:
 762              		.loc 3 70 38 view .LVU210
 763              		.loc 3 70 45 is_stmt 0 view .LVU211
 764 0008 1A4B     		ldr	r3, .L33+4
 765              		.loc 3 70 54 view .LVU212
 766 000a 93F8B420 		ldrb	r2, [r3, #180]	@ zero_extendqisi2
 767 000e 1AB1     		cbz	r2, .L17
 768              	.LVL35:
 769              		.loc 3 70 54 view .LVU213
 770              	.LBE468:
 771              	.LBE467:
 772              		.loc 17 101 5 view .LVU214
 773 0010 93F8BA20 		ldrb	r2, [r3, #186]	@ zero_extendqisi2
 774 0014 7F2A     		cmp	r2, #127
 775 0016 15D0     		beq	.L30
 776              	.L17:
 102:DaisyKeys.cpp ****     {
 103:DaisyKeys.cpp ****         oscFreq = 440.0f;
 104:DaisyKeys.cpp ****         ad.Trigger();
 105:DaisyKeys.cpp ****     }
 106:DaisyKeys.cpp **** 
 107:DaisyKeys.cpp ****     if(pod.button2.RisingEdge())
 777              		.loc 17 107 5 is_stmt 1 view .LVU215
 778              	.LVL36:
 779              	.LBB469:
 780              	.LBI469:
 781              		.loc 3 70 17 view .LVU216
 782              	.LBB470:
 783              		.loc 3 70 38 view .LVU217
 784              		.loc 3 70 54 is_stmt 0 view .LVU218
 785 0018 93F8C420 		ldrb	r2, [r3, #196]	@ zero_extendqisi2
 786 001c 1AB1     		cbz	r2, .L18
 787              	.LVL37:
 788              		.loc 3 70 54 view .LVU219
 789              	.LBE470:
 790              	.LBE469:
 791              		.loc 17 107 5 view .LVU220
ARM GAS  /var/folders/7c/668hyr3s7rlgsbdftclf3hsr0000gn/T//cczSPkjU.s 			page 39


 792 001e 93F8CA30 		ldrb	r3, [r3, #202]	@ zero_extendqisi2
 793 0022 7F2B     		cmp	r3, #127
 794 0024 06D0     		beq	.L31
 795              	.L18:
 108:DaisyKeys.cpp ****     {
 109:DaisyKeys.cpp ****         oscFreq = 220.0f;
 110:DaisyKeys.cpp ****         ad.Trigger();
 111:DaisyKeys.cpp ****     }
 112:DaisyKeys.cpp ****     if(button3.RisingEdge())
 796              		.loc 17 112 5 is_stmt 1 view .LVU221
 797              	.LVL38:
 798              	.LBB471:
 799              	.LBI471:
 800              		.loc 3 70 17 view .LVU222
 801              	.LBB472:
 802              		.loc 3 70 38 view .LVU223
 803              		.loc 3 70 45 is_stmt 0 view .LVU224
 804 0026 124B     		ldr	r3, .L33
 805              		.loc 3 70 54 view .LVU225
 806 0028 1A79     		ldrb	r2, [r3, #4]	@ zero_extendqisi2
 807 002a 12B1     		cbz	r2, .L16
 808              	.LVL39:
 809              		.loc 3 70 54 view .LVU226
 810              	.LBE472:
 811              	.LBE471:
 812              		.loc 17 112 5 view .LVU227
 813 002c 9B7A     		ldrb	r3, [r3, #10]	@ zero_extendqisi2
 814 002e 7F2B     		cmp	r3, #127
 815 0030 12D0     		beq	.L32
 816              	.L16:
 113:DaisyKeys.cpp ****     {
 114:DaisyKeys.cpp **** 
 115:DaisyKeys.cpp ****         oscFreq = 1000.0f;
 116:DaisyKeys.cpp ****         ad.Trigger();
 117:DaisyKeys.cpp ****         hw.SetLed(true);
 118:DaisyKeys.cpp ****     }
 119:DaisyKeys.cpp **** 
 120:DaisyKeys.cpp **** 
 121:DaisyKeys.cpp **** 
 122:DaisyKeys.cpp **** 
 123:DaisyKeys.cpp **** }
 817              		.loc 17 123 1 view .LVU228
 818 0032 08BD     		pop	{r3, pc}
 819              	.L31:
 109:DaisyKeys.cpp ****         ad.Trigger();
 820              		.loc 17 109 9 is_stmt 1 view .LVU229
 109:DaisyKeys.cpp ****         ad.Trigger();
 821              		.loc 17 109 17 is_stmt 0 view .LVU230
 822 0034 1049     		ldr	r1, .L33+8
 823              	.LBB473:
 824              	.LBB474:
  64:../DaisyExamples/DaisySP/Source/Control/adenv.h ****     /** Sets the length of time (in seconds) for a specific segment. */
 825              		.loc 1 64 38 view .LVU231
 826 0036 0122     		movs	r2, #1
 827              	.LBE474:
 828              	.LBE473:
 109:DaisyKeys.cpp ****         ad.Trigger();
ARM GAS  /var/folders/7c/668hyr3s7rlgsbdftclf3hsr0000gn/T//cczSPkjU.s 			page 40


 829              		.loc 17 109 17 view .LVU232
 830 0038 1048     		ldr	r0, .L33+12
 831              	.LBB477:
 832              	.LBB475:
  64:../DaisyExamples/DaisySP/Source/Control/adenv.h ****     /** Sets the length of time (in seconds) for a specific segment. */
 833              		.loc 1 64 38 view .LVU233
 834 003a 114B     		ldr	r3, .L33+16
 835              	.LBE475:
 836              	.LBE477:
 109:DaisyKeys.cpp ****         ad.Trigger();
 837              		.loc 17 109 17 view .LVU234
 838 003c 0860     		str	r0, [r1]	@ float
 110:DaisyKeys.cpp ****     }
 839              		.loc 17 110 9 is_stmt 1 view .LVU235
 840              	.LVL40:
 841              	.LBB478:
 842              	.LBI473:
  64:../DaisyExamples/DaisySP/Source/Control/adenv.h ****     /** Sets the length of time (in seconds) for a specific segment. */
 843              		.loc 1 64 17 view .LVU236
 844              	.LBB476:
  64:../DaisyExamples/DaisySP/Source/Control/adenv.h ****     /** Sets the length of time (in seconds) for a specific segment. */
 845              		.loc 1 64 29 view .LVU237
  64:../DaisyExamples/DaisySP/Source/Control/adenv.h ****     /** Sets the length of time (in seconds) for a specific segment. */
 846              		.loc 1 64 38 is_stmt 0 view .LVU238
 847 003e 83F83420 		strb	r2, [r3, #52]
  64:../DaisyExamples/DaisySP/Source/Control/adenv.h ****     /** Sets the length of time (in seconds) for a specific segment. */
 848              		.loc 1 64 43 view .LVU239
 849 0042 F0E7     		b	.L18
 850              	.LVL41:
 851              	.L30:
  64:../DaisyExamples/DaisySP/Source/Control/adenv.h ****     /** Sets the length of time (in seconds) for a specific segment. */
 852              		.loc 1 64 43 view .LVU240
 853              	.LBE476:
 854              	.LBE478:
 103:DaisyKeys.cpp ****         ad.Trigger();
 855              		.loc 17 103 9 is_stmt 1 view .LVU241
 103:DaisyKeys.cpp ****         ad.Trigger();
 856              		.loc 17 103 17 is_stmt 0 view .LVU242
 857 0044 0C48     		ldr	r0, .L33+8
 858              	.LBB479:
 859              	.LBB480:
  64:../DaisyExamples/DaisySP/Source/Control/adenv.h ****     /** Sets the length of time (in seconds) for a specific segment. */
 860              		.loc 1 64 38 view .LVU243
 861 0046 0121     		movs	r1, #1
 862              	.LBE480:
 863              	.LBE479:
 103:DaisyKeys.cpp ****         ad.Trigger();
 864              		.loc 17 103 17 view .LVU244
 865 0048 DFF840C0 		ldr	ip, .L33+28
 866              	.LBB483:
 867              	.LBB481:
  64:../DaisyExamples/DaisySP/Source/Control/adenv.h ****     /** Sets the length of time (in seconds) for a specific segment. */
 868              		.loc 1 64 38 view .LVU245
 869 004c 0C4A     		ldr	r2, .L33+16
 870              	.LBE481:
 871              	.LBE483:
 103:DaisyKeys.cpp ****         ad.Trigger();
ARM GAS  /var/folders/7c/668hyr3s7rlgsbdftclf3hsr0000gn/T//cczSPkjU.s 			page 41


 872              		.loc 17 103 17 view .LVU246
 873 004e C0F800C0 		str	ip, [r0]	@ float
 104:DaisyKeys.cpp ****     }
 874              		.loc 17 104 9 is_stmt 1 view .LVU247
 875              	.LVL42:
 876              	.LBB484:
 877              	.LBI479:
  64:../DaisyExamples/DaisySP/Source/Control/adenv.h ****     /** Sets the length of time (in seconds) for a specific segment. */
 878              		.loc 1 64 17 view .LVU248
 879              	.LBB482:
  64:../DaisyExamples/DaisySP/Source/Control/adenv.h ****     /** Sets the length of time (in seconds) for a specific segment. */
 880              		.loc 1 64 29 view .LVU249
  64:../DaisyExamples/DaisySP/Source/Control/adenv.h ****     /** Sets the length of time (in seconds) for a specific segment. */
 881              		.loc 1 64 38 is_stmt 0 view .LVU250
 882 0052 82F83410 		strb	r1, [r2, #52]
  64:../DaisyExamples/DaisySP/Source/Control/adenv.h ****     /** Sets the length of time (in seconds) for a specific segment. */
 883              		.loc 1 64 43 view .LVU251
 884 0056 DFE7     		b	.L17
 885              	.LVL43:
 886              	.L32:
  64:../DaisyExamples/DaisySP/Source/Control/adenv.h ****     /** Sets the length of time (in seconds) for a specific segment. */
 887              		.loc 1 64 43 view .LVU252
 888              	.LBE482:
 889              	.LBE484:
 115:DaisyKeys.cpp ****         ad.Trigger();
 890              		.loc 17 115 9 is_stmt 1 view .LVU253
 115:DaisyKeys.cpp ****         ad.Trigger();
 891              		.loc 17 115 17 is_stmt 0 view .LVU254
 892 0058 0A48     		ldr	r0, .L33+20
 893              	.LBB485:
 894              	.LBB486:
  64:../DaisyExamples/DaisySP/Source/Control/adenv.h ****     /** Sets the length of time (in seconds) for a specific segment. */
 895              		.loc 1 64 38 view .LVU255
 896 005a 0121     		movs	r1, #1
 897 005c 084B     		ldr	r3, .L33+16
 898              	.LBE486:
 899              	.LBE485:
 115:DaisyKeys.cpp ****         ad.Trigger();
 900              		.loc 17 115 17 view .LVU256
 901 005e 064A     		ldr	r2, .L33+8
 902              	.LBB489:
 903              	.LBB487:
  64:../DaisyExamples/DaisySP/Source/Control/adenv.h ****     /** Sets the length of time (in seconds) for a specific segment. */
 904              		.loc 1 64 38 view .LVU257
 905 0060 83F83410 		strb	r1, [r3, #52]
 906              	.LBE487:
 907              	.LBE489:
 115:DaisyKeys.cpp ****         ad.Trigger();
 908              		.loc 17 115 17 view .LVU258
 909 0064 1060     		str	r0, [r2]	@ float
 116:DaisyKeys.cpp ****         hw.SetLed(true);
 910              		.loc 17 116 9 is_stmt 1 view .LVU259
 911              	.LVL44:
 912              	.LBB490:
 913              	.LBI485:
  64:../DaisyExamples/DaisySP/Source/Control/adenv.h ****     /** Sets the length of time (in seconds) for a specific segment. */
 914              		.loc 1 64 17 view .LVU260
ARM GAS  /var/folders/7c/668hyr3s7rlgsbdftclf3hsr0000gn/T//cczSPkjU.s 			page 42


 915              	.LBB488:
  64:../DaisyExamples/DaisySP/Source/Control/adenv.h ****     /** Sets the length of time (in seconds) for a specific segment. */
 916              		.loc 1 64 29 view .LVU261
  64:../DaisyExamples/DaisySP/Source/Control/adenv.h ****     /** Sets the length of time (in seconds) for a specific segment. */
 917              		.loc 1 64 29 is_stmt 0 view .LVU262
 918              	.LBE488:
 919              	.LBE490:
 117:DaisyKeys.cpp ****     }
 920              		.loc 17 117 9 is_stmt 1 view .LVU263
 117:DaisyKeys.cpp ****     }
 921              		.loc 17 117 18 is_stmt 0 view .LVU264
 922 0066 0848     		ldr	r0, .L33+24
 923              		.loc 17 123 1 view .LVU265
 924 0068 BDE80840 		pop	{r3, lr}
 925              		.cfi_restore 14
 926              		.cfi_restore 3
 927              		.cfi_def_cfa_offset 0
 117:DaisyKeys.cpp ****     }
 928              		.loc 17 117 18 view .LVU266
 929 006c FFF7FEBF 		b	_ZN5daisy9DaisySeed6SetLedEb
 930              	.LVL45:
 931              	.L34:
 932              		.align	2
 933              	.L33:
 934 0070 00000000 		.word	.LANCHOR3
 935 0074 00000000 		.word	_ZL3pod
 936 0078 00000000 		.word	.LANCHOR1
 937 007c 00005C43 		.word	1130102784
 938 0080 00000000 		.word	.LANCHOR0
 939 0084 00007A44 		.word	1148846080
 940 0088 00000000 		.word	.LANCHOR5
 941 008c 0000DC43 		.word	1138491392
 942              		.cfi_endproc
 943              	.LFE4692:
 945              		.section	.text._ZL13AudioCallbackPKfPfj,"ax",%progbits
 946              		.align	1
 947              		.p2align 2,,3
 948              		.syntax unified
 949              		.thumb
 950              		.thumb_func
 952              	_ZL13AudioCallbackPKfPfj:
 953              	.LVL46:
 954              	.LFB4690:
  40:DaisyKeys.cpp ****     Controls();
 955              		.loc 17 40 1 is_stmt 1 view -0
 956              		.cfi_startproc
 957              		@ args = 0, pretend = 0, frame = 0
 958              		@ frame_needed = 0, uses_anonymous_args = 0
  41:DaisyKeys.cpp **** 
 959              		.loc 17 41 5 view .LVU268
 960              	.LBB499:
 961              	.LBI499:
 124:DaisyKeys.cpp **** 
 125:DaisyKeys.cpp **** void Controls()
 962              		.loc 17 125 6 view .LVU269
 963              	.LBB500:
 126:DaisyKeys.cpp **** {
ARM GAS  /var/folders/7c/668hyr3s7rlgsbdftclf3hsr0000gn/T//cczSPkjU.s 			page 43


 127:DaisyKeys.cpp ****     pod.ProcessAnalogControls();
 964              		.loc 17 127 5 view .LVU270
 965              	.LBE500:
 966              	.LBE499:
  40:DaisyKeys.cpp ****     Controls();
 967              		.loc 17 40 1 is_stmt 0 view .LVU271
 968 0000 2DE9F041 		push	{r4, r5, r6, r7, r8, lr}
 969              		.cfi_def_cfa_offset 24
 970              		.cfi_offset 4, -24
 971              		.cfi_offset 5, -20
 972              		.cfi_offset 6, -16
 973              		.cfi_offset 7, -12
 974              		.cfi_offset 8, -8
 975              		.cfi_offset 14, -4
 976              	.LBB503:
 977              	.LBB501:
 978              		.loc 17 127 30 view .LVU272
 979 0004 1A48     		ldr	r0, .L43
 980              	.LVL47:
 981              		.loc 17 127 30 view .LVU273
 982              	.LBE501:
 983              	.LBE503:
  40:DaisyKeys.cpp ****     Controls();
 984              		.loc 17 40 1 view .LVU274
 985 0006 1746     		mov	r7, r2
 986 0008 0C46     		mov	r4, r1
 987 000a 2DED028B 		vpush.64	{d8}
 988              		.cfi_def_cfa_offset 32
 989              		.cfi_offset 80, -32
 990              		.cfi_offset 81, -28
 991              	.LBB504:
 992              	.LBB502:
 993              		.loc 17 127 30 view .LVU275
 994 000e FFF7FEFF 		bl	_ZN5daisy8DaisyPod21ProcessAnalogControlsEv
 995              	.LVL48:
 128:DaisyKeys.cpp ****     pod.ProcessDigitalControls();
 996              		.loc 17 128 5 is_stmt 1 view .LVU276
 997              		.loc 17 128 31 is_stmt 0 view .LVU277
 998 0012 1748     		ldr	r0, .L43
 999 0014 FFF7FEFF 		bl	_ZN5daisy8DaisyPod22ProcessDigitalControlsEv
 1000              	.LVL49:
 129:DaisyKeys.cpp **** 
 130:DaisyKeys.cpp ****     // UpdateEncoder();
 131:DaisyKeys.cpp **** 
 132:DaisyKeys.cpp ****     // UpdateKnobs();
 133:DaisyKeys.cpp **** 
 134:DaisyKeys.cpp ****     // UpdateLeds();
 135:DaisyKeys.cpp **** 
 136:DaisyKeys.cpp ****     UpdateButtons();
 1001              		.loc 17 136 5 is_stmt 1 view .LVU278
 1002              		.loc 17 136 18 is_stmt 0 view .LVU279
 1003 0018 FFF7FEFF 		bl	_Z13UpdateButtonsv
 1004              	.LVL50:
 1005              		.loc 17 136 18 view .LVU280
 1006              	.LBE502:
 1007              	.LBE504:
 1008              	.LBB505:
ARM GAS  /var/folders/7c/668hyr3s7rlgsbdftclf3hsr0000gn/T//cczSPkjU.s 			page 44


  46:DaisyKeys.cpp ****     {
 1009              		.loc 17 46 25 is_stmt 1 view .LVU281
 1010 001c 1FB3     		cbz	r7, .L35
 1011 001e 013F     		subs	r7, r7, #1
 1012              	.LVL51:
  46:DaisyKeys.cpp ****     {
 1013              		.loc 17 46 25 is_stmt 0 view .LVU282
 1014 0020 0025     		movs	r5, #0
 1015 0022 DFF85880 		ldr	r8, .L43+12
 1016 0026 7F08     		lsrs	r7, r7, #1
 1017              	.LVL52:
  46:DaisyKeys.cpp ****     {
 1018              		.loc 17 46 25 view .LVU283
 1019 0028 124E     		ldr	r6, .L43+4
 1020              	.LVL53:
 1021              	.L37:
 1022              	.LBB506:
  48:DaisyKeys.cpp ****         NextSamples(sig);
 1023              		.loc 17 48 9 is_stmt 1 view .LVU284
  49:DaisyKeys.cpp **** 
 1024              		.loc 17 49 9 view .LVU285
 1025              	.LBB507:
 1026              	.LBI507:
  24:DaisyKeys.cpp **** {
 1027              		.loc 17 24 6 view .LVU286
 1028              	.LBB508:
  26:DaisyKeys.cpp ****     // vibrato      = lfo.Process();
 1029              		.loc 17 26 5 view .LVU287
  26:DaisyKeys.cpp ****     // vibrato      = lfo.Process();
 1030              		.loc 17 26 30 is_stmt 0 view .LVU288
 1031 002a 1348     		ldr	r0, .L43+8
 1032              	.LBE508:
 1033              	.LBE507:
 1034              	.LBE506:
  46:DaisyKeys.cpp ****     {
 1035              		.loc 17 46 25 view .LVU289
 1036 002c 0834     		adds	r4, r4, #8
 1037              	.LBB515:
 1038              	.LBB514:
 1039              	.LBB513:
  26:DaisyKeys.cpp ****     // vibrato      = lfo.Process();
 1040              		.loc 17 26 30 view .LVU290
 1041 002e FFF7FEFF 		bl	_ZN7daisysp5AdEnv7ProcessEv
 1042              	.LVL54:
  30:DaisyKeys.cpp **** 
 1043              		.loc 17 30 16 view .LVU291
 1044 0032 D8ED007A 		vldr.32	s15, [r8]
  26:DaisyKeys.cpp ****     // vibrato      = lfo.Process();
 1045              		.loc 17 26 30 view .LVU292
 1046 0036 B0EE408A 		vmov.f32	s16, s0
 1047              	.LVL55:
  30:DaisyKeys.cpp **** 
 1048              		.loc 17 30 5 is_stmt 1 view .LVU293
 1049              	.LBB509:
 1050              	.LBI509:
  67:../DaisyExamples/DaisySP/Source/Synthesis/oscillator.h ****     {
 1051              		.loc 2 67 17 view .LVU294
ARM GAS  /var/folders/7c/668hyr3s7rlgsbdftclf3hsr0000gn/T//cczSPkjU.s 			page 45


 1052              	.LBB510:
  69:../DaisyExamples/DaisySP/Source/Synthesis/oscillator.h ****         phase_inc_ = CalcPhaseInc(f);
 1053              		.loc 2 69 9 view .LVU295
  70:../DaisyExamples/DaisySP/Source/Synthesis/oscillator.h ****     }
 1054              		.loc 2 70 34 is_stmt 0 view .LVU296
 1055 003a 0E48     		ldr	r0, .L43+4
 1056 003c B0EE670A 		vmov.f32	s0, s15
 1057              	.LVL56:
  69:../DaisyExamples/DaisySP/Source/Synthesis/oscillator.h ****         phase_inc_ = CalcPhaseInc(f);
 1058              		.loc 2 69 20 view .LVU297
 1059 0040 C6ED027A 		vstr.32	s15, [r6, #8]
  70:../DaisyExamples/DaisySP/Source/Synthesis/oscillator.h ****     }
 1060              		.loc 2 70 9 is_stmt 1 view .LVU298
  70:../DaisyExamples/DaisySP/Source/Synthesis/oscillator.h ****     }
 1061              		.loc 2 70 34 is_stmt 0 view .LVU299
 1062 0044 FFF7FEFF 		bl	_ZN7daisysp10Oscillator12CalcPhaseIncEf
 1063              	.LVL57:
  70:../DaisyExamples/DaisySP/Source/Synthesis/oscillator.h ****     }
 1064              		.loc 2 70 34 view .LVU300
 1065              	.LBE510:
 1066              	.LBE509:
  32:DaisyKeys.cpp ****     // sig = flt.Process(sig);
 1067              		.loc 17 32 22 view .LVU301
 1068 0048 0A48     		ldr	r0, .L43+4
 1069              	.LBB512:
 1070              	.LBB511:
  70:../DaisyExamples/DaisySP/Source/Synthesis/oscillator.h ****     }
 1071              		.loc 2 70 20 view .LVU302
 1072 004a 86ED070A 		vstr.32	s0, [r6, #28]
 1073              	.LVL58:
  70:../DaisyExamples/DaisySP/Source/Synthesis/oscillator.h ****     }
 1074              		.loc 2 70 20 view .LVU303
 1075              	.LBE511:
 1076              	.LBE512:
  32:DaisyKeys.cpp ****     // sig = flt.Process(sig);
 1077              		.loc 17 32 5 is_stmt 1 view .LVU304
  32:DaisyKeys.cpp ****     // sig = flt.Process(sig);
 1078              		.loc 17 32 22 is_stmt 0 view .LVU305
 1079 004e FFF7FEFF 		bl	_ZN7daisysp10Oscillator7ProcessEv
 1080              	.LVL59:
  34:DaisyKeys.cpp **** }
 1081              		.loc 17 34 5 is_stmt 1 view .LVU306
  34:DaisyKeys.cpp **** }
 1082              		.loc 17 34 9 is_stmt 0 view .LVU307
 1083 0052 28EE000A 		vmul.f32	s0, s16, s0
 1084              	.LVL60:
  34:DaisyKeys.cpp **** }
 1085              		.loc 17 34 9 view .LVU308
 1086              	.LBE513:
 1087              	.LBE514:
  52:DaisyKeys.cpp **** 
 1088              		.loc 17 52 9 is_stmt 1 view .LVU309
 1089              	.LBE515:
  46:DaisyKeys.cpp ****     {
 1090              		.loc 17 46 25 is_stmt 0 view .LVU310
 1091 0056 BD42     		cmp	r5, r7
 1092 0058 05F10105 		add	r5, r5, #1
ARM GAS  /var/folders/7c/668hyr3s7rlgsbdftclf3hsr0000gn/T//cczSPkjU.s 			page 46


 1093              	.LVL61:
 1094              	.LBB516:
  52:DaisyKeys.cpp **** 
 1095              		.loc 17 52 16 view .LVU311
 1096 005c 04ED020A 		vstr.32	s0, [r4, #-8]
  55:DaisyKeys.cpp ****     }
 1097              		.loc 17 55 9 is_stmt 1 view .LVU312
  55:DaisyKeys.cpp ****     }
 1098              		.loc 17 55 20 is_stmt 0 view .LVU313
 1099 0060 04ED010A 		vstr.32	s0, [r4, #-4]
 1100              	.LVL62:
  55:DaisyKeys.cpp ****     }
 1101              		.loc 17 55 20 view .LVU314
 1102              	.LBE516:
  46:DaisyKeys.cpp ****     {
 1103              		.loc 17 46 5 is_stmt 1 view .LVU315
  46:DaisyKeys.cpp ****     {
 1104              		.loc 17 46 25 view .LVU316
 1105 0064 E1D1     		bne	.L37
 1106              	.L35:
 1107              	.LBE505:
  57:DaisyKeys.cpp **** 
 1108              		.loc 17 57 1 is_stmt 0 view .LVU317
 1109 0066 BDEC028B 		vldm	sp!, {d8}
 1110              		.cfi_restore 80
 1111              		.cfi_restore 81
 1112              		.cfi_def_cfa_offset 24
 1113 006a BDE8F081 		pop	{r4, r5, r6, r7, r8, pc}
 1114              	.L44:
 1115 006e 00BF     		.align	2
 1116              	.L43:
 1117 0070 00000000 		.word	_ZL3pod
 1118 0074 00000000 		.word	.LANCHOR2
 1119 0078 00000000 		.word	.LANCHOR0
 1120 007c 00000000 		.word	.LANCHOR1
 1121              		.cfi_endproc
 1122              	.LFE4690:
 1124              		.section	.text._Z8Controlsv,"ax",%progbits
 1125              		.align	1
 1126              		.p2align 2,,3
 1127              		.global	_Z8Controlsv
 1128              		.syntax unified
 1129              		.thumb
 1130              		.thumb_func
 1132              	_Z8Controlsv:
 1133              	.LFB4693:
 126:DaisyKeys.cpp ****     pod.ProcessAnalogControls();
 1134              		.loc 17 126 1 is_stmt 1 view -0
 1135              		.cfi_startproc
 1136              		@ args = 0, pretend = 0, frame = 0
 1137              		@ frame_needed = 0, uses_anonymous_args = 0
 127:DaisyKeys.cpp ****     pod.ProcessDigitalControls();
 1138              		.loc 17 127 5 view .LVU319
 126:DaisyKeys.cpp ****     pod.ProcessAnalogControls();
 1139              		.loc 17 126 1 is_stmt 0 view .LVU320
 1140 0000 08B5     		push	{r3, lr}
 1141              		.cfi_def_cfa_offset 8
ARM GAS  /var/folders/7c/668hyr3s7rlgsbdftclf3hsr0000gn/T//cczSPkjU.s 			page 47


 1142              		.cfi_offset 3, -8
 1143              		.cfi_offset 14, -4
 127:DaisyKeys.cpp ****     pod.ProcessDigitalControls();
 1144              		.loc 17 127 30 view .LVU321
 1145 0002 0548     		ldr	r0, .L47
 1146 0004 FFF7FEFF 		bl	_ZN5daisy8DaisyPod21ProcessAnalogControlsEv
 1147              	.LVL63:
 128:DaisyKeys.cpp **** 
 1148              		.loc 17 128 5 is_stmt 1 view .LVU322
 128:DaisyKeys.cpp **** 
 1149              		.loc 17 128 31 is_stmt 0 view .LVU323
 1150 0008 0348     		ldr	r0, .L47
 1151 000a FFF7FEFF 		bl	_ZN5daisy8DaisyPod22ProcessDigitalControlsEv
 1152              	.LVL64:
 1153              		.loc 17 136 5 is_stmt 1 view .LVU324
 137:DaisyKeys.cpp **** }...
 1154              		.loc 17 137 1 is_stmt 0 view .LVU325
 1155 000e BDE80840 		pop	{r3, lr}
 1156              		.cfi_restore 14
 1157              		.cfi_restore 3
 1158              		.cfi_def_cfa_offset 0
 136:DaisyKeys.cpp ****     UpdateButtons();
 1159              		.loc 17 136 18 view .LVU326
 1160 0012 FFF7FEBF 		b	_Z13UpdateButtonsv
 1161              	.LVL65:
 1162              	.L48:
 1163 0016 00BF     		.align	2
 1164              	.L47:
 1165 0018 00000000 		.word	_ZL3pod
 1166              		.cfi_endproc
 1167              	.LFE4693:
 1169              		.section	.text.startup._GLOBAL__sub_I_wave,"ax",%progbits
 1170              		.align	1
 1171              		.p2align 2,,3
 1172              		.syntax unified
 1173              		.thumb
 1174              		.thumb_func
 1176              	_GLOBAL__sub_I_wave:
 1177              	.LFB5277:
 1178              		.loc 17 137 1 is_stmt 1 view -0
 1179              		.cfi_startproc
 1180              		@ args = 0, pretend = 0, frame = 0
 1181              		@ frame_needed = 0, uses_anonymous_args = 0
 1182              	.LBB612:
 1183              	.LBI612:
 1184              		.loc 17 137 1 view .LVU328
 1185              	.LVL66:
 1186              	.LBB613:
 1187              	.LBB614:
 1188              	.LBI614:
  35:../DaisyExamples/libDaisy/src/daisy_pod.h ****     ~DaisyPod() {}
 1189              		.loc 9 35 5 view .LVU329
 1190              	.LBB615:
 1191              	.LBB616:
 1192              	.LBI616:
  21:../DaisyExamples/libDaisy/src/daisy_seed.h ****     ~DaisySeed() {}
 1193              		.loc 4 21 5 view .LVU330
ARM GAS  /var/folders/7c/668hyr3s7rlgsbdftclf3hsr0000gn/T//cczSPkjU.s 			page 48


 1194              	.LBB617:
 1195              	.LBB618:
 1196              	.LBI618:
 1197              		.file 18 "../DaisyExamples/libDaisy/src/per/qspi.h"
   1:../DaisyExamples/libDaisy/src/per/qspi.h **** #ifndef DSY_QSPI
   2:../DaisyExamples/libDaisy/src/per/qspi.h **** #define DSY_QSPI /**< Macro */
   3:../DaisyExamples/libDaisy/src/per/qspi.h **** 
   4:../DaisyExamples/libDaisy/src/per/qspi.h **** #ifndef UNIT_TEST // for unit tests, a dummy implementation
   5:../DaisyExamples/libDaisy/src/per/qspi.h **** 
   6:../DaisyExamples/libDaisy/src/per/qspi.h **** #include <cstdint>
   7:../DaisyExamples/libDaisy/src/per/qspi.h **** #include "daisy_core.h" // Added for dsy_gpio_pin typedef
   8:../DaisyExamples/libDaisy/src/per/qspi.h **** 
   9:../DaisyExamples/libDaisy/src/per/qspi.h **** #define DSY_QSPI_TEXT       \
  10:../DaisyExamples/libDaisy/src/per/qspi.h ****     __attribute__((section( \
  11:../DaisyExamples/libDaisy/src/per/qspi.h ****         ".qspiflash_text"))) /**< used for reading memory in memory_mapped mode. */
  12:../DaisyExamples/libDaisy/src/per/qspi.h **** #define DSY_QSPI_DATA       \
  13:../DaisyExamples/libDaisy/src/per/qspi.h ****     __attribute__((section( \
  14:../DaisyExamples/libDaisy/src/per/qspi.h ****         ".qspiflash_data"))) /**< used for reading memory in memory_mapped mode. */
  15:../DaisyExamples/libDaisy/src/per/qspi.h **** #define DSY_QSPI_BSS        \
  16:../DaisyExamples/libDaisy/src/per/qspi.h ****     __attribute__((section( \
  17:../DaisyExamples/libDaisy/src/per/qspi.h ****         ".qspiflash_bss"))) /**< used for reading memory in memory_mapped mode. */
  18:../DaisyExamples/libDaisy/src/per/qspi.h **** 
  19:../DaisyExamples/libDaisy/src/per/qspi.h **** namespace daisy
  20:../DaisyExamples/libDaisy/src/per/qspi.h **** {
  21:../DaisyExamples/libDaisy/src/per/qspi.h **** /** @addtogroup serial
  22:../DaisyExamples/libDaisy/src/per/qspi.h **** @{
  23:../DaisyExamples/libDaisy/src/per/qspi.h **** */
  24:../DaisyExamples/libDaisy/src/per/qspi.h **** 
  25:../DaisyExamples/libDaisy/src/per/qspi.h **** /** 
  26:../DaisyExamples/libDaisy/src/per/qspi.h ****  Driver for QSPI peripheral to interface with external flash memory. \n 
  27:../DaisyExamples/libDaisy/src/per/qspi.h ****     Currently supported QSPI Devices: \n 
  28:../DaisyExamples/libDaisy/src/per/qspi.h ****     * IS25LP080D
  29:../DaisyExamples/libDaisy/src/per/qspi.h **** */
  30:../DaisyExamples/libDaisy/src/per/qspi.h **** class QSPIHandle
  31:../DaisyExamples/libDaisy/src/per/qspi.h **** {
  32:../DaisyExamples/libDaisy/src/per/qspi.h ****   public:
  33:../DaisyExamples/libDaisy/src/per/qspi.h ****     enum Result
  34:../DaisyExamples/libDaisy/src/per/qspi.h ****     {
  35:../DaisyExamples/libDaisy/src/per/qspi.h ****         OK = 0,
  36:../DaisyExamples/libDaisy/src/per/qspi.h ****         ERR
  37:../DaisyExamples/libDaisy/src/per/qspi.h ****     };
  38:../DaisyExamples/libDaisy/src/per/qspi.h **** 
  39:../DaisyExamples/libDaisy/src/per/qspi.h ****     /** Indicates the current status of the module. 
  40:../DaisyExamples/libDaisy/src/per/qspi.h ****          *  Warnings are indicated by a leading W.
  41:../DaisyExamples/libDaisy/src/per/qspi.h ****          *  Errors are indicated by a leading E and cause an immediate exit.
  42:../DaisyExamples/libDaisy/src/per/qspi.h ****          * 
  43:../DaisyExamples/libDaisy/src/per/qspi.h ****          *  \param GOOD - No errors have been reported.
  44:../DaisyExamples/libDaisy/src/per/qspi.h ****          *  \param E_HAL_ERROR - HAL code did not return HAL_OK.
  45:../DaisyExamples/libDaisy/src/per/qspi.h ****          *  \param E_SWITCHING_MODES - An error was encountered while switching QSPI peripheral mod
  46:../DaisyExamples/libDaisy/src/per/qspi.h ****          *  \param E_INVALID_MODE - QSPI should not be written to while the program is executing fr
  47:../DaisyExamples/libDaisy/src/per/qspi.h ****          */
  48:../DaisyExamples/libDaisy/src/per/qspi.h ****     enum Status
  49:../DaisyExamples/libDaisy/src/per/qspi.h ****     {
  50:../DaisyExamples/libDaisy/src/per/qspi.h ****         GOOD = 0,
  51:../DaisyExamples/libDaisy/src/per/qspi.h ****         E_HAL_ERROR,
  52:../DaisyExamples/libDaisy/src/per/qspi.h ****         E_SWITCHING_MODES,
  53:../DaisyExamples/libDaisy/src/per/qspi.h ****         E_INVALID_MODE,
ARM GAS  /var/folders/7c/668hyr3s7rlgsbdftclf3hsr0000gn/T//cczSPkjU.s 			page 49


  54:../DaisyExamples/libDaisy/src/per/qspi.h ****     };
  55:../DaisyExamples/libDaisy/src/per/qspi.h **** 
  56:../DaisyExamples/libDaisy/src/per/qspi.h ****     /** Configuration structure for interfacing with QSPI Driver */
  57:../DaisyExamples/libDaisy/src/per/qspi.h ****     struct Config
  58:../DaisyExamples/libDaisy/src/per/qspi.h ****     {
  59:../DaisyExamples/libDaisy/src/per/qspi.h ****         /** Flash Devices supported. (Both of these are more-or-less the same, just different sizes
  60:../DaisyExamples/libDaisy/src/per/qspi.h ****         enum Device
  61:../DaisyExamples/libDaisy/src/per/qspi.h ****         {
  62:../DaisyExamples/libDaisy/src/per/qspi.h ****             IS25LP080D,  /**< & */
  63:../DaisyExamples/libDaisy/src/per/qspi.h ****             IS25LP064A,  /**< & */
  64:../DaisyExamples/libDaisy/src/per/qspi.h ****             DEVICE_LAST, /**< & */
  65:../DaisyExamples/libDaisy/src/per/qspi.h ****         };
  66:../DaisyExamples/libDaisy/src/per/qspi.h **** 
  67:../DaisyExamples/libDaisy/src/per/qspi.h ****         /** 
  68:../DaisyExamples/libDaisy/src/per/qspi.h ****         Modes of operation.
  69:../DaisyExamples/libDaisy/src/per/qspi.h ****         Memory Mapped mode: QSPI configured so that the QSPI can be
  70:../DaisyExamples/libDaisy/src/per/qspi.h ****         read from starting address 0x90000000. Writing is not
  71:../DaisyExamples/libDaisy/src/per/qspi.h ****         possible in this mode. \n 
  72:../DaisyExamples/libDaisy/src/per/qspi.h ****         Indirect Polling mode: Device driver enabled. 
  73:../DaisyExamples/libDaisy/src/per/qspi.h ****         */
  74:../DaisyExamples/libDaisy/src/per/qspi.h ****         enum Mode
  75:../DaisyExamples/libDaisy/src/per/qspi.h ****         {
  76:../DaisyExamples/libDaisy/src/per/qspi.h ****             MEMORY_MAPPED,    /**< & */
  77:../DaisyExamples/libDaisy/src/per/qspi.h ****             INDIRECT_POLLING, /**< & */
  78:../DaisyExamples/libDaisy/src/per/qspi.h ****             MODE_LAST,
  79:../DaisyExamples/libDaisy/src/per/qspi.h ****         };
  80:../DaisyExamples/libDaisy/src/per/qspi.h **** 
  81:../DaisyExamples/libDaisy/src/per/qspi.h ****         //SCK,  CE# (active low)
  82:../DaisyExamples/libDaisy/src/per/qspi.h ****         struct
  83:../DaisyExamples/libDaisy/src/per/qspi.h ****         {
  84:../DaisyExamples/libDaisy/src/per/qspi.h ****             dsy_gpio_pin io0; /**< & */
  85:../DaisyExamples/libDaisy/src/per/qspi.h ****             dsy_gpio_pin io1; /**< & */
  86:../DaisyExamples/libDaisy/src/per/qspi.h ****             dsy_gpio_pin io2; /**< & */
  87:../DaisyExamples/libDaisy/src/per/qspi.h ****             dsy_gpio_pin io3; /**< & */
  88:../DaisyExamples/libDaisy/src/per/qspi.h ****             dsy_gpio_pin clk; /**< & */
  89:../DaisyExamples/libDaisy/src/per/qspi.h ****             dsy_gpio_pin ncs; /**< & */
  90:../DaisyExamples/libDaisy/src/per/qspi.h ****         } pin_config;
  91:../DaisyExamples/libDaisy/src/per/qspi.h **** 
  92:../DaisyExamples/libDaisy/src/per/qspi.h ****         Device device;
  93:../DaisyExamples/libDaisy/src/per/qspi.h ****         Mode   mode;
  94:../DaisyExamples/libDaisy/src/per/qspi.h ****     };
  95:../DaisyExamples/libDaisy/src/per/qspi.h **** 
  96:../DaisyExamples/libDaisy/src/per/qspi.h ****     /** 
  97:../DaisyExamples/libDaisy/src/per/qspi.h ****         Initializes QSPI peripheral, and Resets, and prepares memory for access.
  98:../DaisyExamples/libDaisy/src/per/qspi.h ****         \param config should be populated with the mode, device and pin_config before calling this 
  99:../DaisyExamples/libDaisy/src/per/qspi.h ****         \return Result::OK or Result::ERR
 100:../DaisyExamples/libDaisy/src/per/qspi.h ****         */
 101:../DaisyExamples/libDaisy/src/per/qspi.h ****     Result Init(const Config& config);
 102:../DaisyExamples/libDaisy/src/per/qspi.h **** 
 103:../DaisyExamples/libDaisy/src/per/qspi.h ****     /** Returns the current config. */
 104:../DaisyExamples/libDaisy/src/per/qspi.h ****     const Config& GetConfig() const;
 105:../DaisyExamples/libDaisy/src/per/qspi.h **** 
 106:../DaisyExamples/libDaisy/src/per/qspi.h ****     // Couldn't this just be called before anything else in init? That
 107:../DaisyExamples/libDaisy/src/per/qspi.h ****     // would make manually calling it unnecessary.
 108:../DaisyExamples/libDaisy/src/per/qspi.h ****     /** 
 109:../DaisyExamples/libDaisy/src/per/qspi.h ****         Deinitializes the peripheral
 110:../DaisyExamples/libDaisy/src/per/qspi.h ****         This should be called before reinitializing QSPI in a different mode.
ARM GAS  /var/folders/7c/668hyr3s7rlgsbdftclf3hsr0000gn/T//cczSPkjU.s 			page 50


 111:../DaisyExamples/libDaisy/src/per/qspi.h ****         \return Result::OK or Result::ERR
 112:../DaisyExamples/libDaisy/src/per/qspi.h ****         */
 113:../DaisyExamples/libDaisy/src/per/qspi.h ****     Result DeInit();
 114:../DaisyExamples/libDaisy/src/per/qspi.h **** 
 115:../DaisyExamples/libDaisy/src/per/qspi.h ****     /** 
 116:../DaisyExamples/libDaisy/src/per/qspi.h ****         Writes a single page to to the specified address on the QSPI chip.
 117:../DaisyExamples/libDaisy/src/per/qspi.h ****         For IS25LP*, page size is 256 bytes.
 118:../DaisyExamples/libDaisy/src/per/qspi.h ****         \param address Address to write to
 119:../DaisyExamples/libDaisy/src/per/qspi.h ****         \param size Buffer size
 120:../DaisyExamples/libDaisy/src/per/qspi.h ****         \param buffer Buffer to write
 121:../DaisyExamples/libDaisy/src/per/qspi.h ****         \return Result::OK or Result::ERR
 122:../DaisyExamples/libDaisy/src/per/qspi.h ****         */
 123:../DaisyExamples/libDaisy/src/per/qspi.h ****     Result WritePage(uint32_t address, uint32_t size, uint8_t* buffer);
 124:../DaisyExamples/libDaisy/src/per/qspi.h **** 
 125:../DaisyExamples/libDaisy/src/per/qspi.h ****     /** 
 126:../DaisyExamples/libDaisy/src/per/qspi.h ****         Writes data in buffer to to the QSPI. Starting at address to address+size 
 127:../DaisyExamples/libDaisy/src/per/qspi.h ****         \param address Address to write to
 128:../DaisyExamples/libDaisy/src/per/qspi.h ****         \param size Buffer size
 129:../DaisyExamples/libDaisy/src/per/qspi.h ****         \param buffer Buffer to write
 130:../DaisyExamples/libDaisy/src/per/qspi.h ****         \return Result::OK or Result::ERR
 131:../DaisyExamples/libDaisy/src/per/qspi.h ****         */
 132:../DaisyExamples/libDaisy/src/per/qspi.h ****     Result Write(uint32_t address, uint32_t size, uint8_t* buffer);
 133:../DaisyExamples/libDaisy/src/per/qspi.h **** 
 134:../DaisyExamples/libDaisy/src/per/qspi.h ****     /** 
 135:../DaisyExamples/libDaisy/src/per/qspi.h ****         Erases the area specified on the chip.
 136:../DaisyExamples/libDaisy/src/per/qspi.h ****         Erasures will happen by 4K, 32K or 64K increments.
 137:../DaisyExamples/libDaisy/src/per/qspi.h ****         Smallest erase possible is 4kB at a time. (on IS25LP*)
 138:../DaisyExamples/libDaisy/src/per/qspi.h ****         \param start_addr Address to begin erasing from
 139:../DaisyExamples/libDaisy/src/per/qspi.h ****         \param end_addr  Address to stop erasing at
 140:../DaisyExamples/libDaisy/src/per/qspi.h ****         \return Result::OK or Result::ERR
 141:../DaisyExamples/libDaisy/src/per/qspi.h ****         */
 142:../DaisyExamples/libDaisy/src/per/qspi.h ****     Result Erase(uint32_t start_addr, uint32_t end_addr);
 143:../DaisyExamples/libDaisy/src/per/qspi.h **** 
 144:../DaisyExamples/libDaisy/src/per/qspi.h ****     /**  
 145:../DaisyExamples/libDaisy/src/per/qspi.h ****          Erases a single sector of the chip.  
 146:../DaisyExamples/libDaisy/src/per/qspi.h ****         TODO: Document the size of this function. 
 147:../DaisyExamples/libDaisy/src/per/qspi.h ****         \param address Address of sector to erase
 148:../DaisyExamples/libDaisy/src/per/qspi.h ****         \return Result::OK or Result::ERR
 149:../DaisyExamples/libDaisy/src/per/qspi.h ****         */
 150:../DaisyExamples/libDaisy/src/per/qspi.h ****     Result EraseSector(uint32_t address);
 151:../DaisyExamples/libDaisy/src/per/qspi.h **** 
 152:../DaisyExamples/libDaisy/src/per/qspi.h ****     /** Returns the current class status. Useful for debugging.
 153:../DaisyExamples/libDaisy/src/per/qspi.h ****      *  \returns Status
 154:../DaisyExamples/libDaisy/src/per/qspi.h ****      */
 155:../DaisyExamples/libDaisy/src/per/qspi.h ****     Status GetStatus();
 156:../DaisyExamples/libDaisy/src/per/qspi.h **** 
 157:../DaisyExamples/libDaisy/src/per/qspi.h ****     /** Returns a pointer to the actual memory used 
 158:../DaisyExamples/libDaisy/src/per/qspi.h ****      *  The memory at this address is read-only
 159:../DaisyExamples/libDaisy/src/per/qspi.h ****      *  to write to it use the Write function.
 160:../DaisyExamples/libDaisy/src/per/qspi.h ****      * 
 161:../DaisyExamples/libDaisy/src/per/qspi.h ****      *  \param offset returns the pointer starting this 
 162:../DaisyExamples/libDaisy/src/per/qspi.h ****      *                many bytes into the memory
 163:../DaisyExamples/libDaisy/src/per/qspi.h ****     */
 164:../DaisyExamples/libDaisy/src/per/qspi.h ****     void* GetData(uint32_t offset = 0);
 165:../DaisyExamples/libDaisy/src/per/qspi.h **** 
 166:../DaisyExamples/libDaisy/src/per/qspi.h ****     QSPIHandle() : pimpl_(nullptr) {}
 1198              		.loc 18 166 5 view .LVU331
ARM GAS  /var/folders/7c/668hyr3s7rlgsbdftclf3hsr0000gn/T//cczSPkjU.s 			page 51


 1199              	.LBE618:
 1200              	.LBE617:
 1201              	.LBE616:
 1202              	.LBE615:
 1203              	.LBE614:
 1204              	.LBE613:
 1205              	.LBE612:
 1206              		.loc 17 137 1 is_stmt 0 view .LVU332
 1207 0000 70B5     		push	{r4, r5, r6, lr}
 1208              		.cfi_def_cfa_offset 16
 1209              		.cfi_offset 4, -16
 1210              		.cfi_offset 5, -12
 1211              		.cfi_offset 6, -8
 1212              		.cfi_offset 14, -4
 1213              	.LBB730:
 1214              	.LBB728:
 1215              	.LBB700:
 1216              	.LBB697:
 1217              	.LBB639:
 1218              	.LBB637:
 1219              	.LBB623:
 1220              	.LBB619:
 1221              	.LBB620:
 1222              		.loc 18 166 34 view .LVU333
 1223 0002 1E4C     		ldr	r4, .L51
 1224 0004 0025     		movs	r5, #0
 1225              	.LBE620:
 1226              	.LBE619:
 1227              	.LBE623:
 1228              	.LBE637:
 1229              	.LBE639:
 1230              	.LBE697:
 1231              	.LBE700:
  12:DaisyKeys.cpp **** static DaisyPod   pod;
 1232              		.loc 17 12 19 view .LVU334
 1233 0006 1E4E     		ldr	r6, .L51+4
 1234              	.LBB701:
 1235              	.LBB698:
 1236              	.LBB640:
 1237              	.LBB641:
 1238              	.LBB642:
 1239              	.LBB643:
 157:../DaisyExamples/libDaisy/src/hid/midi.h **** 
 158:../DaisyExamples/libDaisy/src/hid/midi.h ****     struct Config
 1240              		.loc 10 158 12 view .LVU335
 1241 0008 04F5C070 		add	r0, r4, #384
 1242              	.LBE643:
 1243              	.LBE642:
 1244              	.LBE641:
 1245              	.LBE640:
 1246              	.LBB677:
 1247              	.LBB638:
 1248              	.LBB624:
 1249              	.LBB622:
 1250              	.LBB621:
 1251              		.loc 18 166 34 view .LVU336
 1252 000c 2560     		str	r5, [r4]
ARM GAS  /var/folders/7c/668hyr3s7rlgsbdftclf3hsr0000gn/T//cczSPkjU.s 			page 52


 1253              	.LVL67:
 1254              		.loc 18 166 34 view .LVU337
 1255              	.LBE621:
 1256              	.LBE622:
 1257              	.LBE624:
 1258              	.LBB625:
 1259              	.LBI625:
  95:../DaisyExamples/libDaisy/src/hid/audio.h ****     ~AudioHandle() {}
 1260              		.loc 8 95 5 is_stmt 1 view .LVU338
 1261              	.LBB626:
 1262              	.LBB627:
  95:../DaisyExamples/libDaisy/src/hid/audio.h ****     ~AudioHandle() {}
 1263              		.loc 8 95 35 is_stmt 0 view .LVU339
 1264 000e 6561     		str	r5, [r4, #20]
 1265              	.LVL68:
  95:../DaisyExamples/libDaisy/src/hid/audio.h ****     ~AudioHandle() {}
 1266              		.loc 8 95 35 view .LVU340
 1267              	.LBE627:
 1268              	.LBE626:
 1269              	.LBE625:
 1270              	.LBB628:
 1271              	.LBI628:
 109:../DaisyExamples/libDaisy/src/per/adc.h ****     ~AdcHandle() {}
 1272              		.loc 7 109 5 is_stmt 1 view .LVU341
 109:../DaisyExamples/libDaisy/src/per/adc.h ****     ~AdcHandle() {}
 1273              		.loc 7 109 5 is_stmt 0 view .LVU342
 1274              	.LBE628:
 1275              	.LBB629:
 1276              	.LBI629:
 1277              		.file 19 "../DaisyExamples/libDaisy/src/per/dac.h"
   1:../DaisyExamples/libDaisy/src/per/dac.h **** #pragma once
   2:../DaisyExamples/libDaisy/src/per/dac.h **** #ifndef DSY_DAC_H
   3:../DaisyExamples/libDaisy/src/per/dac.h **** #define DSY_DAC_H
   4:../DaisyExamples/libDaisy/src/per/dac.h **** 
   5:../DaisyExamples/libDaisy/src/per/dac.h **** #include "daisy_core.h"
   6:../DaisyExamples/libDaisy/src/per/dac.h **** 
   7:../DaisyExamples/libDaisy/src/per/dac.h **** namespace daisy
   8:../DaisyExamples/libDaisy/src/per/dac.h **** {
   9:../DaisyExamples/libDaisy/src/per/dac.h **** /** @brief DAC handle for Built-in DAC Peripheral 
  10:../DaisyExamples/libDaisy/src/per/dac.h ****  *  @ingroup per_analog
  11:../DaisyExamples/libDaisy/src/per/dac.h ****  ** 
  12:../DaisyExamples/libDaisy/src/per/dac.h ****  ** For now only Normal Mode is supported,
  13:../DaisyExamples/libDaisy/src/per/dac.h ****  ** Sample and hold mode provides reduced power consumption, but requires a bit more setup.
  14:../DaisyExamples/libDaisy/src/per/dac.h ****  **
  15:../DaisyExamples/libDaisy/src/per/dac.h ****  ** For now connecting the DAC through other internal peripherals is also not supported.
  16:../DaisyExamples/libDaisy/src/per/dac.h ****  **
  17:../DaisyExamples/libDaisy/src/per/dac.h ****  ** Since the DAC channels have dedicated pins we don't need to pass in a pin config like with
  18:../DaisyExamples/libDaisy/src/per/dac.h ****  ** other modules. However, it is still important to not try to use the DAC pins for anything else.
  19:../DaisyExamples/libDaisy/src/per/dac.h ****  ** DAC Channel 1 is on PA4, and DAC Channel 2 is on PA5
  20:../DaisyExamples/libDaisy/src/per/dac.h ****  ***/
  21:../DaisyExamples/libDaisy/src/per/dac.h **** class DacHandle
  22:../DaisyExamples/libDaisy/src/per/dac.h **** {
  23:../DaisyExamples/libDaisy/src/per/dac.h ****   public:
  24:../DaisyExamples/libDaisy/src/per/dac.h ****     /** Return Values for the DacHandle class */
  25:../DaisyExamples/libDaisy/src/per/dac.h ****     enum class Result
  26:../DaisyExamples/libDaisy/src/per/dac.h ****     {
  27:../DaisyExamples/libDaisy/src/per/dac.h ****         OK,
ARM GAS  /var/folders/7c/668hyr3s7rlgsbdftclf3hsr0000gn/T//cczSPkjU.s 			page 53


  28:../DaisyExamples/libDaisy/src/per/dac.h ****         ERR,
  29:../DaisyExamples/libDaisy/src/per/dac.h ****     };
  30:../DaisyExamples/libDaisy/src/per/dac.h **** 
  31:../DaisyExamples/libDaisy/src/per/dac.h ****     /** Selects which channel(s) will be configured for use. */
  32:../DaisyExamples/libDaisy/src/per/dac.h ****     enum class Channel
  33:../DaisyExamples/libDaisy/src/per/dac.h ****     {
  34:../DaisyExamples/libDaisy/src/per/dac.h ****         ONE,
  35:../DaisyExamples/libDaisy/src/per/dac.h ****         TWO,
  36:../DaisyExamples/libDaisy/src/per/dac.h ****         BOTH,
  37:../DaisyExamples/libDaisy/src/per/dac.h ****     };
  38:../DaisyExamples/libDaisy/src/per/dac.h **** 
  39:../DaisyExamples/libDaisy/src/per/dac.h ****     /** Sets the Mode for the DAC channels.
  40:../DaisyExamples/libDaisy/src/per/dac.h ****      **
  41:../DaisyExamples/libDaisy/src/per/dac.h ****      ** Polling mode uses the blocking mode to transmit a single value at a time.
  42:../DaisyExamples/libDaisy/src/per/dac.h ****      **
  43:../DaisyExamples/libDaisy/src/per/dac.h ****      ** DMA mode uses a buffer, and periodically transmits it triggering a 
  44:../DaisyExamples/libDaisy/src/per/dac.h ****      ** callback to fill the buffer when it is ready for more samples.
  45:../DaisyExamples/libDaisy/src/per/dac.h ****      ***/
  46:../DaisyExamples/libDaisy/src/per/dac.h ****     enum class Mode
  47:../DaisyExamples/libDaisy/src/per/dac.h ****     {
  48:../DaisyExamples/libDaisy/src/per/dac.h ****         POLLING,
  49:../DaisyExamples/libDaisy/src/per/dac.h ****         DMA,
  50:../DaisyExamples/libDaisy/src/per/dac.h ****     };
  51:../DaisyExamples/libDaisy/src/per/dac.h **** 
  52:../DaisyExamples/libDaisy/src/per/dac.h ****     /** Sets the number of bits per sample transmitted out of the DAC.
  53:../DaisyExamples/libDaisy/src/per/dac.h ****      ** The output range will be: 0V - VDDA
  54:../DaisyExamples/libDaisy/src/per/dac.h ****      ** The resolution will be roughly: bitdepth / (VDDA - 0V) 
  55:../DaisyExamples/libDaisy/src/per/dac.h ****      ***/
  56:../DaisyExamples/libDaisy/src/per/dac.h ****     enum class BitDepth
  57:../DaisyExamples/libDaisy/src/per/dac.h ****     {
  58:../DaisyExamples/libDaisy/src/per/dac.h ****         BITS_8,
  59:../DaisyExamples/libDaisy/src/per/dac.h ****         BITS_12
  60:../DaisyExamples/libDaisy/src/per/dac.h ****     };
  61:../DaisyExamples/libDaisy/src/per/dac.h **** 
  62:../DaisyExamples/libDaisy/src/per/dac.h ****     /** Sets whether the DAC output is buffered for higher drive ability. */
  63:../DaisyExamples/libDaisy/src/per/dac.h ****     enum class BufferState
  64:../DaisyExamples/libDaisy/src/per/dac.h ****     {
  65:../DaisyExamples/libDaisy/src/per/dac.h ****         ENABLED,
  66:../DaisyExamples/libDaisy/src/per/dac.h ****         DISABLED,
  67:../DaisyExamples/libDaisy/src/per/dac.h ****     };
  68:../DaisyExamples/libDaisy/src/per/dac.h **** 
  69:../DaisyExamples/libDaisy/src/per/dac.h ****     /** Configuration structure for initializing the DAC structure. */
  70:../DaisyExamples/libDaisy/src/per/dac.h ****     struct Config
  71:../DaisyExamples/libDaisy/src/per/dac.h ****     {
  72:../DaisyExamples/libDaisy/src/per/dac.h ****         /** Target Samplerate in Hz used to configure the internal 
  73:../DaisyExamples/libDaisy/src/per/dac.h ****          ** timebase for DMA mode. Does nothing in POLLING mode.
  74:../DaisyExamples/libDaisy/src/per/dac.h ****          ** If the value is 0 at Init time this will default to 48000Hz 
  75:../DaisyExamples/libDaisy/src/per/dac.h ****          ** otherwise the driver will attempt meet the target.*/
  76:../DaisyExamples/libDaisy/src/per/dac.h ****         uint32_t target_samplerate;
  77:../DaisyExamples/libDaisy/src/per/dac.h **** 
  78:../DaisyExamples/libDaisy/src/per/dac.h ****         Channel     chn;
  79:../DaisyExamples/libDaisy/src/per/dac.h ****         Mode        mode;
  80:../DaisyExamples/libDaisy/src/per/dac.h ****         BitDepth    bitdepth;
  81:../DaisyExamples/libDaisy/src/per/dac.h ****         BufferState buff_state;
  82:../DaisyExamples/libDaisy/src/per/dac.h ****     };
  83:../DaisyExamples/libDaisy/src/per/dac.h **** 
  84:../DaisyExamples/libDaisy/src/per/dac.h ****     DacHandle() : pimpl_(nullptr) {}
ARM GAS  /var/folders/7c/668hyr3s7rlgsbdftclf3hsr0000gn/T//cczSPkjU.s 			page 54


 1278              		.loc 19 84 5 is_stmt 1 view .LVU343
 1279              	.LBB630:
 1280              	.LBB631:
 1281              		.loc 19 84 33 is_stmt 0 view .LVU344
 1282 0010 2562     		str	r5, [r4, #32]
 1283              	.LVL69:
 1284              		.loc 19 84 33 view .LVU345
 1285              	.LBE631:
 1286              	.LBE630:
 1287              	.LBE629:
 1288              	.LBB632:
 1289              	.LBI632:
  40:../DaisyExamples/libDaisy/src/hid/usb.h **** 
 1290              		.loc 6 40 5 is_stmt 1 view .LVU346
  40:../DaisyExamples/libDaisy/src/hid/usb.h **** 
 1291              		.loc 6 40 5 is_stmt 0 view .LVU347
 1292              	.LBE632:
 1293              	.LBB633:
 1294              	.LBI633:
  96:../DaisyExamples/libDaisy/src/sys/system.h ****     ~System() {}
 1295              		.loc 5 96 5 is_stmt 1 view .LVU348
  96:../DaisyExamples/libDaisy/src/sys/system.h ****     ~System() {}
 1296              		.loc 5 96 5 is_stmt 0 view .LVU349
 1297              	.LBE633:
 1298              	.LBB634:
 1299              	.LBI634:
 1300              		.file 20 "../DaisyExamples/libDaisy/src/per/sai.h"
   1:../DaisyExamples/libDaisy/src/per/sai.h **** #pragma once
   2:../DaisyExamples/libDaisy/src/per/sai.h **** #ifndef DSY_SAI_H
   3:../DaisyExamples/libDaisy/src/per/sai.h **** #define DSY_SAI_H
   4:../DaisyExamples/libDaisy/src/per/sai.h **** 
   5:../DaisyExamples/libDaisy/src/per/sai.h **** #include "daisy_core.h"
   6:../DaisyExamples/libDaisy/src/per/sai.h **** 
   7:../DaisyExamples/libDaisy/src/per/sai.h **** namespace daisy
   8:../DaisyExamples/libDaisy/src/per/sai.h **** {
   9:../DaisyExamples/libDaisy/src/per/sai.h **** /** 
  10:../DaisyExamples/libDaisy/src/per/sai.h ****  * Support for I2S Audio Protocol with different bit-depth, samplerate options
  11:../DaisyExamples/libDaisy/src/per/sai.h ****  * Allows for master or slave, as well as freedom of selecting direction, 
  12:../DaisyExamples/libDaisy/src/per/sai.h ****  * and other behavior for each peripheral, and block.
  13:../DaisyExamples/libDaisy/src/per/sai.h ****  * 
  14:../DaisyExamples/libDaisy/src/per/sai.h ****  * DMA Transfer commands must use buffers located within non-cached memory or use cache maintenance
  15:../DaisyExamples/libDaisy/src/per/sai.h ****  * To declare an unitialized global element in the DMA memory section:
  16:../DaisyExamples/libDaisy/src/per/sai.h ****  *    int32_t DSY_DMA_BUFFER_SECTOR my_buffer[96];
  17:../DaisyExamples/libDaisy/src/per/sai.h ****  *
  18:../DaisyExamples/libDaisy/src/per/sai.h ****  * Callback functions will be called once per half of the buffer. In the above example, 
  19:../DaisyExamples/libDaisy/src/per/sai.h ****  * the callback function would be called once for every 48 samples.
  20:../DaisyExamples/libDaisy/src/per/sai.h ****  * 
  21:../DaisyExamples/libDaisy/src/per/sai.h ****  * Use SAI Handle like this:
  22:../DaisyExamples/libDaisy/src/per/sai.h ****  * 
  23:../DaisyExamples/libDaisy/src/per/sai.h ****  *  SaiHandle::Config sai_config;
  24:../DaisyExamples/libDaisy/src/per/sai.h ****  *  sai_config.periph          = SaiHandle::Config::Peripheral::SAI_1;
  25:../DaisyExamples/libDaisy/src/per/sai.h ****  *  sai_config.sr              = SaiHandle::Config::SampleRate::SAI_48KHZ;
  26:../DaisyExamples/libDaisy/src/per/sai.h ****  *  sai_config.bit_depth       = SaiHandle::Config::BitDepth::SAI_24BIT;
  27:../DaisyExamples/libDaisy/src/per/sai.h ****  *  sai_config.a_sync          = SaiHandle::Config::Sync::MASTER;
  28:../DaisyExamples/libDaisy/src/per/sai.h ****  *  sai_config.b_sync          = SaiHandle::Config::Sync::SLAVE;
  29:../DaisyExamples/libDaisy/src/per/sai.h ****  *  sai_config.a_dir           = SaiHandle::Config::Direction::RECEIVE;
  30:../DaisyExamples/libDaisy/src/per/sai.h ****  *  sai_config.b_dir           = SaiHandle::Config::Direction::TRANSMIT;
ARM GAS  /var/folders/7c/668hyr3s7rlgsbdftclf3hsr0000gn/T//cczSPkjU.s 			page 55


  31:../DaisyExamples/libDaisy/src/per/sai.h ****  *  sai_config.pin_config.fs   = {DSY_GPIOE, 4};
  32:../DaisyExamples/libDaisy/src/per/sai.h ****  *  sai_config.pin_config.mclk = {DSY_GPIOE, 2};
  33:../DaisyExamples/libDaisy/src/per/sai.h ****  *  sai_config.pin_config.sck  = {DSY_GPIOE, 5};
  34:../DaisyExamples/libDaisy/src/per/sai.h ****  *  sai_config.pin_config.sa   = {DSY_GPIOE, 6};
  35:../DaisyExamples/libDaisy/src/per/sai.h ****  *  sai_config.pin_config.sb   = {DSY_GPIOE, 3};
  36:../DaisyExamples/libDaisy/src/per/sai.h ****  *  // Then Initialize
  37:../DaisyExamples/libDaisy/src/per/sai.h ****  *  SaiHandle sai;
  38:../DaisyExamples/libDaisy/src/per/sai.h ****  *  sai.Init(sai_config);
  39:../DaisyExamples/libDaisy/src/per/sai.h ****  *  // Now you can use it:
  40:../DaisyExamples/libDaisy/src/per/sai.h ****  *  sai.StartDma(. . .);
  41:../DaisyExamples/libDaisy/src/per/sai.h ****  */
  42:../DaisyExamples/libDaisy/src/per/sai.h **** class SaiHandle
  43:../DaisyExamples/libDaisy/src/per/sai.h **** {
  44:../DaisyExamples/libDaisy/src/per/sai.h ****   public:
  45:../DaisyExamples/libDaisy/src/per/sai.h ****     /** Contains settings for initialising an SAI Interface */
  46:../DaisyExamples/libDaisy/src/per/sai.h ****     struct Config
  47:../DaisyExamples/libDaisy/src/per/sai.h ****     {
  48:../DaisyExamples/libDaisy/src/per/sai.h ****         /** Specifies the internal peripheral to use (mapped to different hardware pins) */
  49:../DaisyExamples/libDaisy/src/per/sai.h ****         enum class Peripheral
  50:../DaisyExamples/libDaisy/src/per/sai.h ****         {
  51:../DaisyExamples/libDaisy/src/per/sai.h ****             SAI_1,
  52:../DaisyExamples/libDaisy/src/per/sai.h ****             SAI_2,
  53:../DaisyExamples/libDaisy/src/per/sai.h ****         };
  54:../DaisyExamples/libDaisy/src/per/sai.h **** 
  55:../DaisyExamples/libDaisy/src/per/sai.h ****         /** Rate at which samples will be streaming to/from the device. */
  56:../DaisyExamples/libDaisy/src/per/sai.h ****         enum class SampleRate
  57:../DaisyExamples/libDaisy/src/per/sai.h ****         {
  58:../DaisyExamples/libDaisy/src/per/sai.h ****             SAI_8KHZ,
  59:../DaisyExamples/libDaisy/src/per/sai.h ****             SAI_16KHZ,
  60:../DaisyExamples/libDaisy/src/per/sai.h ****             SAI_32KHZ,
  61:../DaisyExamples/libDaisy/src/per/sai.h ****             SAI_48KHZ,
  62:../DaisyExamples/libDaisy/src/per/sai.h ****             SAI_96KHZ,
  63:../DaisyExamples/libDaisy/src/per/sai.h ****         };
  64:../DaisyExamples/libDaisy/src/per/sai.h **** 
  65:../DaisyExamples/libDaisy/src/per/sai.h ****         /** Bit Depth that the hardware expects to be transferred to/from the device. */
  66:../DaisyExamples/libDaisy/src/per/sai.h ****         enum class BitDepth
  67:../DaisyExamples/libDaisy/src/per/sai.h ****         {
  68:../DaisyExamples/libDaisy/src/per/sai.h ****             SAI_16BIT,
  69:../DaisyExamples/libDaisy/src/per/sai.h ****             SAI_24BIT,
  70:../DaisyExamples/libDaisy/src/per/sai.h ****             SAI_32BIT,
  71:../DaisyExamples/libDaisy/src/per/sai.h ****         };
  72:../DaisyExamples/libDaisy/src/per/sai.h **** 
  73:../DaisyExamples/libDaisy/src/per/sai.h ****         /** Specifies whether a particular block is the master or the slave 
  74:../DaisyExamples/libDaisy/src/per/sai.h ****          ** If both are set to slave, no MCLK signal will be used, and it is
  75:../DaisyExamples/libDaisy/src/per/sai.h ****          ** expected that the codec will have its own xtal.
  76:../DaisyExamples/libDaisy/src/per/sai.h ****          */
  77:../DaisyExamples/libDaisy/src/per/sai.h ****         enum class Sync
  78:../DaisyExamples/libDaisy/src/per/sai.h ****         {
  79:../DaisyExamples/libDaisy/src/per/sai.h ****             MASTER,
  80:../DaisyExamples/libDaisy/src/per/sai.h ****             SLAVE,
  81:../DaisyExamples/libDaisy/src/per/sai.h ****         };
  82:../DaisyExamples/libDaisy/src/per/sai.h **** 
  83:../DaisyExamples/libDaisy/src/per/sai.h ****         /** Specifies the direction for each peripheral block. */
  84:../DaisyExamples/libDaisy/src/per/sai.h ****         enum class Direction
  85:../DaisyExamples/libDaisy/src/per/sai.h ****         {
  86:../DaisyExamples/libDaisy/src/per/sai.h ****             TRANSMIT,
  87:../DaisyExamples/libDaisy/src/per/sai.h ****             RECEIVE,
ARM GAS  /var/folders/7c/668hyr3s7rlgsbdftclf3hsr0000gn/T//cczSPkjU.s 			page 56


  88:../DaisyExamples/libDaisy/src/per/sai.h ****         };
  89:../DaisyExamples/libDaisy/src/per/sai.h **** 
  90:../DaisyExamples/libDaisy/src/per/sai.h ****         Peripheral periph;
  91:../DaisyExamples/libDaisy/src/per/sai.h ****         struct
  92:../DaisyExamples/libDaisy/src/per/sai.h ****         {
  93:../DaisyExamples/libDaisy/src/per/sai.h ****             dsy_gpio_pin mclk, fs, sck, sa, sb;
  94:../DaisyExamples/libDaisy/src/per/sai.h ****         } pin_config;
  95:../DaisyExamples/libDaisy/src/per/sai.h ****         SampleRate sr;
  96:../DaisyExamples/libDaisy/src/per/sai.h ****         BitDepth   bit_depth;
  97:../DaisyExamples/libDaisy/src/per/sai.h ****         Sync       a_sync, b_sync;
  98:../DaisyExamples/libDaisy/src/per/sai.h ****         Direction  a_dir, b_dir;
  99:../DaisyExamples/libDaisy/src/per/sai.h ****     };
 100:../DaisyExamples/libDaisy/src/per/sai.h **** 
 101:../DaisyExamples/libDaisy/src/per/sai.h ****     /** Return values for SAI functions */
 102:../DaisyExamples/libDaisy/src/per/sai.h ****     enum class Result
 103:../DaisyExamples/libDaisy/src/per/sai.h ****     {
 104:../DaisyExamples/libDaisy/src/per/sai.h ****         OK,
 105:../DaisyExamples/libDaisy/src/per/sai.h ****         ERR,
 106:../DaisyExamples/libDaisy/src/per/sai.h ****     };
 107:../DaisyExamples/libDaisy/src/per/sai.h **** 
 108:../DaisyExamples/libDaisy/src/per/sai.h ****     SaiHandle() : pimpl_(nullptr) {}
 1301              		.loc 20 108 5 is_stmt 1 view .LVU350
 1302              	.LBB635:
 1303              	.LBB636:
 1304              		.loc 20 108 33 is_stmt 0 view .LVU351
 1305 0012 E563     		str	r5, [r4, #60]
 1306              	.LVL70:
 1307              		.loc 20 108 33 view .LVU352
 1308              	.LBE636:
 1309              	.LBE635:
 1310              	.LBE634:
 1311              	.LBE638:
 1312              	.LBE677:
 1313              	.LBB678:
 1314              	.LBI678:
  20:../DaisyExamples/libDaisy/src/hid/encoder.h ****     ~Encoder() {}
 1315              		.loc 16 20 5 is_stmt 1 view .LVU353
 1316              	.LBB679:
 1317              	.LBB680:
 1318              	.LBI680:
  41:../DaisyExamples/libDaisy/src/hid/switch.h ****     ~Switch() {}
 1319              		.loc 3 41 5 view .LVU354
  41:../DaisyExamples/libDaisy/src/hid/switch.h ****     ~Switch() {}
 1320              		.loc 3 41 5 is_stmt 0 view .LVU355
 1321              	.LBE680:
 1322              	.LBE679:
 1323              	.LBE678:
 1324              	.LBB681:
 1325              	.LBI681:
  21:../DaisyExamples/libDaisy/src/hid/ctrl.h ****     /** destructor */
 1326              		.loc 15 21 5 is_stmt 1 view .LVU356
  21:../DaisyExamples/libDaisy/src/hid/ctrl.h ****     /** destructor */
 1327              		.loc 15 21 5 is_stmt 0 view .LVU357
 1328              	.LBE681:
 1329              	.LBB682:
 1330              	.LBI682:
  21:../DaisyExamples/libDaisy/src/hid/ctrl.h ****     /** destructor */
ARM GAS  /var/folders/7c/668hyr3s7rlgsbdftclf3hsr0000gn/T//cczSPkjU.s 			page 57


 1331              		.loc 15 21 5 is_stmt 1 view .LVU358
  21:../DaisyExamples/libDaisy/src/hid/ctrl.h ****     /** destructor */
 1332              		.loc 15 21 5 is_stmt 0 view .LVU359
 1333              	.LBE682:
 1334              	.LBB683:
 1335              	.LBI683:
  41:../DaisyExamples/libDaisy/src/hid/switch.h ****     ~Switch() {}
 1336              		.loc 3 41 5 is_stmt 1 view .LVU360
  41:../DaisyExamples/libDaisy/src/hid/switch.h ****     ~Switch() {}
 1337              		.loc 3 41 5 is_stmt 0 view .LVU361
 1338              	.LBE683:
 1339              	.LBB684:
 1340              	.LBI684:
  41:../DaisyExamples/libDaisy/src/hid/switch.h ****     ~Switch() {}
 1341              		.loc 3 41 5 is_stmt 1 view .LVU362
  41:../DaisyExamples/libDaisy/src/hid/switch.h ****     ~Switch() {}
 1342              		.loc 3 41 5 is_stmt 0 view .LVU363
 1343              	.LBE684:
 1344              	.LBB685:
 1345              	.LBI685:
  17:../DaisyExamples/libDaisy/src/hid/rgb_led.h ****     ~RgbLed() {}
 1346              		.loc 13 17 5 is_stmt 1 view .LVU364
 1347              	.LBB686:
 1348              	.LBB687:
 1349              	.LBI687:
  24:../DaisyExamples/libDaisy/src/hid/led.h ****     ~Led() {}
 1350              		.loc 14 24 5 view .LVU365
  24:../DaisyExamples/libDaisy/src/hid/led.h ****     ~Led() {}
 1351              		.loc 14 24 5 is_stmt 0 view .LVU366
 1352              	.LBE687:
 1353              	.LBB688:
 1354              	.LBI688:
  24:../DaisyExamples/libDaisy/src/hid/led.h ****     ~Led() {}
 1355              		.loc 14 24 5 is_stmt 1 view .LVU367
  24:../DaisyExamples/libDaisy/src/hid/led.h ****     ~Led() {}
 1356              		.loc 14 24 5 is_stmt 0 view .LVU368
 1357              	.LBE688:
 1358              	.LBB689:
 1359              	.LBI689:
  24:../DaisyExamples/libDaisy/src/hid/led.h ****     ~Led() {}
 1360              		.loc 14 24 5 is_stmt 1 view .LVU369
  24:../DaisyExamples/libDaisy/src/hid/led.h ****     ~Led() {}
 1361              		.loc 14 24 5 is_stmt 0 view .LVU370
 1362              	.LBE689:
 1363              	.LBE686:
 1364              	.LBE685:
 1365              	.LBB690:
 1366              	.LBI690:
  17:../DaisyExamples/libDaisy/src/hid/rgb_led.h ****     ~RgbLed() {}
 1367              		.loc 13 17 5 is_stmt 1 view .LVU371
 1368              	.LBB691:
 1369              	.LBB692:
 1370              	.LBI692:
  24:../DaisyExamples/libDaisy/src/hid/led.h ****     ~Led() {}
 1371              		.loc 14 24 5 view .LVU372
  24:../DaisyExamples/libDaisy/src/hid/led.h ****     ~Led() {}
 1372              		.loc 14 24 5 is_stmt 0 view .LVU373
ARM GAS  /var/folders/7c/668hyr3s7rlgsbdftclf3hsr0000gn/T//cczSPkjU.s 			page 58


 1373              	.LBE692:
 1374              	.LBB693:
 1375              	.LBI693:
  24:../DaisyExamples/libDaisy/src/hid/led.h ****     ~Led() {}
 1376              		.loc 14 24 5 is_stmt 1 view .LVU374
  24:../DaisyExamples/libDaisy/src/hid/led.h ****     ~Led() {}
 1377              		.loc 14 24 5 is_stmt 0 view .LVU375
 1378              	.LBE693:
 1379              	.LBB694:
 1380              	.LBI694:
  24:../DaisyExamples/libDaisy/src/hid/led.h ****     ~Led() {}
 1381              		.loc 14 24 5 is_stmt 1 view .LVU376
  24:../DaisyExamples/libDaisy/src/hid/led.h ****     ~Led() {}
 1382              		.loc 14 24 5 is_stmt 0 view .LVU377
 1383              	.LBE694:
 1384              	.LBE691:
 1385              	.LBE690:
 1386              	.LBB695:
 1387              	.LBI640:
 155:../DaisyExamples/libDaisy/src/hid/midi.h ****     ~MidiHandler() {}
 1388              		.loc 10 155 5 is_stmt 1 view .LVU378
 1389              	.LBB675:
 1390              	.LBB645:
 1391              	.LBI642:
 1392              		.loc 10 158 12 view .LVU379
 1393              	.LBB644:
 1394 0014 FFF7FEFF 		bl	_ZN5daisy17MidiUartTransport6ConfigC1Ev
 1395              	.LVL71:
 1396              		.loc 10 158 12 is_stmt 0 view .LVU380
 1397              	.LBE644:
 1398              	.LBE645:
 1399              	.LBB646:
 1400              	.LBI646:
  31:../DaisyExamples/libDaisy/src/hid/midi.h ****     ~MidiUartTransport() {}
 1401              		.loc 10 31 5 is_stmt 1 view .LVU381
 1402              	.LBB647:
 1403              	.LBB648:
 1404              	.LBI648:
 1405              		.file 21 "../DaisyExamples/libDaisy/src/per/uart.h"
   1:../DaisyExamples/libDaisy/src/per/uart.h **** /* 
   2:../DaisyExamples/libDaisy/src/per/uart.h **** TODO
   3:../DaisyExamples/libDaisy/src/per/uart.h **** - Overflow handling, etc. for Rx Queue.
   4:../DaisyExamples/libDaisy/src/per/uart.h **** */
   5:../DaisyExamples/libDaisy/src/per/uart.h **** 
   6:../DaisyExamples/libDaisy/src/per/uart.h **** #pragma once
   7:../DaisyExamples/libDaisy/src/per/uart.h **** #ifndef DSY_UART_H
   8:../DaisyExamples/libDaisy/src/per/uart.h **** #define DSY_UART_H /**< macro */
   9:../DaisyExamples/libDaisy/src/per/uart.h **** #include "daisy_core.h"
  10:../DaisyExamples/libDaisy/src/per/uart.h **** 
  11:../DaisyExamples/libDaisy/src/per/uart.h **** 
  12:../DaisyExamples/libDaisy/src/per/uart.h **** namespace daisy
  13:../DaisyExamples/libDaisy/src/per/uart.h **** {
  14:../DaisyExamples/libDaisy/src/per/uart.h **** /** @addtogroup serial
  15:../DaisyExamples/libDaisy/src/per/uart.h ****     @{
  16:../DaisyExamples/libDaisy/src/per/uart.h ****     */
  17:../DaisyExamples/libDaisy/src/per/uart.h **** 
  18:../DaisyExamples/libDaisy/src/per/uart.h **** /** 
ARM GAS  /var/folders/7c/668hyr3s7rlgsbdftclf3hsr0000gn/T//cczSPkjU.s 			page 59


  19:../DaisyExamples/libDaisy/src/per/uart.h ****     Uart Peripheral
  20:../DaisyExamples/libDaisy/src/per/uart.h ****     @author shensley
  21:../DaisyExamples/libDaisy/src/per/uart.h ****     @date March 2020
  22:../DaisyExamples/libDaisy/src/per/uart.h ****     */
  23:../DaisyExamples/libDaisy/src/per/uart.h **** class UartHandler
  24:../DaisyExamples/libDaisy/src/per/uart.h **** {
  25:../DaisyExamples/libDaisy/src/per/uart.h ****   public:
  26:../DaisyExamples/libDaisy/src/per/uart.h ****     struct Config
  27:../DaisyExamples/libDaisy/src/per/uart.h ****     {
  28:../DaisyExamples/libDaisy/src/per/uart.h ****         enum class Peripheral
  29:../DaisyExamples/libDaisy/src/per/uart.h ****         {
  30:../DaisyExamples/libDaisy/src/per/uart.h ****             USART_1,
  31:../DaisyExamples/libDaisy/src/per/uart.h ****             USART_2,
  32:../DaisyExamples/libDaisy/src/per/uart.h ****             USART_3,
  33:../DaisyExamples/libDaisy/src/per/uart.h ****             UART_4,
  34:../DaisyExamples/libDaisy/src/per/uart.h ****             UART_5,
  35:../DaisyExamples/libDaisy/src/per/uart.h ****             USART_6,
  36:../DaisyExamples/libDaisy/src/per/uart.h ****             UART_7,
  37:../DaisyExamples/libDaisy/src/per/uart.h ****             UART_8,
  38:../DaisyExamples/libDaisy/src/per/uart.h ****             LPUART_1,
  39:../DaisyExamples/libDaisy/src/per/uart.h ****         };
  40:../DaisyExamples/libDaisy/src/per/uart.h **** 
  41:../DaisyExamples/libDaisy/src/per/uart.h ****         enum class StopBits
  42:../DaisyExamples/libDaisy/src/per/uart.h ****         {
  43:../DaisyExamples/libDaisy/src/per/uart.h ****             BITS_0_5,
  44:../DaisyExamples/libDaisy/src/per/uart.h ****             BITS_1,
  45:../DaisyExamples/libDaisy/src/per/uart.h ****             BITS_1_5,
  46:../DaisyExamples/libDaisy/src/per/uart.h ****             BITS_2,
  47:../DaisyExamples/libDaisy/src/per/uart.h ****         };
  48:../DaisyExamples/libDaisy/src/per/uart.h **** 
  49:../DaisyExamples/libDaisy/src/per/uart.h ****         enum class Parity
  50:../DaisyExamples/libDaisy/src/per/uart.h ****         {
  51:../DaisyExamples/libDaisy/src/per/uart.h ****             NONE,
  52:../DaisyExamples/libDaisy/src/per/uart.h ****             EVEN,
  53:../DaisyExamples/libDaisy/src/per/uart.h ****             ODD,
  54:../DaisyExamples/libDaisy/src/per/uart.h ****         };
  55:../DaisyExamples/libDaisy/src/per/uart.h **** 
  56:../DaisyExamples/libDaisy/src/per/uart.h ****         enum class Mode
  57:../DaisyExamples/libDaisy/src/per/uart.h ****         {
  58:../DaisyExamples/libDaisy/src/per/uart.h ****             RX,
  59:../DaisyExamples/libDaisy/src/per/uart.h ****             TX,
  60:../DaisyExamples/libDaisy/src/per/uart.h ****             TX_RX,
  61:../DaisyExamples/libDaisy/src/per/uart.h ****         };
  62:../DaisyExamples/libDaisy/src/per/uart.h **** 
  63:../DaisyExamples/libDaisy/src/per/uart.h ****         enum class WordLength
  64:../DaisyExamples/libDaisy/src/per/uart.h ****         {
  65:../DaisyExamples/libDaisy/src/per/uart.h ****             BITS_7,
  66:../DaisyExamples/libDaisy/src/per/uart.h ****             BITS_8,
  67:../DaisyExamples/libDaisy/src/per/uart.h ****             BITS_9,
  68:../DaisyExamples/libDaisy/src/per/uart.h ****         };
  69:../DaisyExamples/libDaisy/src/per/uart.h **** 
  70:../DaisyExamples/libDaisy/src/per/uart.h ****         struct
  71:../DaisyExamples/libDaisy/src/per/uart.h ****         {
  72:../DaisyExamples/libDaisy/src/per/uart.h ****             dsy_gpio_pin tx; /**< & */
  73:../DaisyExamples/libDaisy/src/per/uart.h ****             dsy_gpio_pin rx; /**< & */
  74:../DaisyExamples/libDaisy/src/per/uart.h ****         } pin_config;        /**< & */
  75:../DaisyExamples/libDaisy/src/per/uart.h **** 
ARM GAS  /var/folders/7c/668hyr3s7rlgsbdftclf3hsr0000gn/T//cczSPkjU.s 			page 60


  76:../DaisyExamples/libDaisy/src/per/uart.h ****         Config()
  77:../DaisyExamples/libDaisy/src/per/uart.h ****         {
  78:../DaisyExamples/libDaisy/src/per/uart.h ****             // user must init periph, pin_config, and mode
  79:../DaisyExamples/libDaisy/src/per/uart.h ****             stopbits   = StopBits::BITS_1;
  80:../DaisyExamples/libDaisy/src/per/uart.h ****             parity     = Parity::NONE;
  81:../DaisyExamples/libDaisy/src/per/uart.h ****             wordlength = WordLength::BITS_8;
  82:../DaisyExamples/libDaisy/src/per/uart.h ****             baudrate   = 31250;
  83:../DaisyExamples/libDaisy/src/per/uart.h ****         }
  84:../DaisyExamples/libDaisy/src/per/uart.h **** 
  85:../DaisyExamples/libDaisy/src/per/uart.h ****         Peripheral periph;
  86:../DaisyExamples/libDaisy/src/per/uart.h ****         StopBits   stopbits;
  87:../DaisyExamples/libDaisy/src/per/uart.h ****         Parity     parity;
  88:../DaisyExamples/libDaisy/src/per/uart.h ****         Mode       mode;
  89:../DaisyExamples/libDaisy/src/per/uart.h ****         WordLength wordlength;
  90:../DaisyExamples/libDaisy/src/per/uart.h ****         uint32_t   baudrate;
  91:../DaisyExamples/libDaisy/src/per/uart.h ****     };
  92:../DaisyExamples/libDaisy/src/per/uart.h **** 
  93:../DaisyExamples/libDaisy/src/per/uart.h **** 
  94:../DaisyExamples/libDaisy/src/per/uart.h ****     UartHandler() : pimpl_(nullptr) {}
 1406              		.loc 21 94 5 view .LVU382
 1407              		.loc 21 94 5 is_stmt 0 view .LVU383
 1408              	.LBE648:
 1409              	.LBE647:
 1410              	.LBE646:
 1411              	.LBB653:
 1412              	.LBI653:
  18:../DaisyExamples/libDaisy/src/hid/midi_parser.h ****     ~MidiParser() {}
 1413              		.loc 12 18 5 is_stmt 1 view .LVU384
 1414              	.LBB654:
  18:../DaisyExamples/libDaisy/src/hid/midi_parser.h ****     ~MidiParser() {}
 1415              		.loc 12 18 17 is_stmt 0 view .LVU385
 1416 0018 1A4A     		ldr	r2, .L51+8
 1417 001a 40F20F73 		movw	r3, #1807
 1418              	.LBE654:
 1419              	.LBE653:
 1420              	.LBE675:
 1421              	.LBE695:
 1422              	.LBE698:
 1423              	.LBE701:
  12:DaisyKeys.cpp **** static DaisyPod   pod;
 1424              		.loc 17 12 19 view .LVU386
 1425 001e 1A49     		ldr	r1, .L51+12
 1426 0020 2046     		mov	r0, r4
 1427              	.LBB702:
 1428              	.LBB699:
 1429              	.LBB696:
 1430              	.LBB676:
 1431              	.LBB657:
 1432              	.LBB655:
  18:../DaisyExamples/libDaisy/src/hid/midi_parser.h ****     ~MidiParser() {}
 1433              		.loc 12 18 17 view .LVU387
 1434 0022 C4F83822 		str	r2, [r4, #568]
 1435              	.LBE655:
 1436              	.LBE657:
 1437              	.LBB658:
 1438              	.LBB659:
 1439              	.LBB660:
ARM GAS  /var/folders/7c/668hyr3s7rlgsbdftclf3hsr0000gn/T//cczSPkjU.s 			page 61


 1440              	.LBB661:
 1441              	.LBB662:
  15:../DaisyExamples/libDaisy/src/util/FIFO.h ****     {
 1442              		.loc 11 15 75 view .LVU388
 1443 0026 04F51472 		add	r2, r4, #592
 1444              	.LBE662:
 1445              	.LBE661:
 1446              	.LBE660:
 1447              	.LBE659:
 1448              	.LBE658:
 1449              	.LBB671:
 1450              	.LBB656:
  18:../DaisyExamples/libDaisy/src/hid/midi_parser.h ****     ~MidiParser() {}
 1451              		.loc 12 18 17 view .LVU389
 1452 002a A4F83C32 		strh	r3, [r4, #572]	@ movhi
 1453              	.LVL72:
  18:../DaisyExamples/libDaisy/src/hid/midi_parser.h ****     ~MidiParser() {}
 1454              		.loc 12 18 17 view .LVU390
 1455              	.LBE656:
 1456              	.LBE671:
 1457              	.LBB672:
 1458              	.LBI658:
 299:../DaisyExamples/libDaisy/src/util/FIFO.h **** {
 300:../DaisyExamples/libDaisy/src/util/FIFO.h ****   public:
 301:../DaisyExamples/libDaisy/src/util/FIFO.h ****     /** Creates an empty FIFO */
 302:../DaisyExamples/libDaisy/src/util/FIFO.h ****     FIFO() : FIFOBase<T>(buffer_, capacity + 1) {}
 1459              		.loc 11 302 5 is_stmt 1 view .LVU391
 1460              	.LBB669:
 1461              	.LBB667:
 1462              	.LBI660:
  14:../DaisyExamples/libDaisy/src/util/FIFO.h ****     : buffer_(buffer), bufferSize_(bufferSize), bufferIn_(0), bufferOut_(0)
 1463              		.loc 11 14 5 view .LVU392
 1464              	.LBB665:
 1465              	.LBB663:
  15:../DaisyExamples/libDaisy/src/util/FIFO.h ****     {
 1466              		.loc 11 15 75 is_stmt 0 view .LVU393
 1467 002e 40F20113 		movw	r3, #257
 1468              	.LBE663:
 1469              	.LBE665:
 1470              	.LBE667:
 1471              	.LBE669:
 1472              	.LBE672:
 1473              	.LBB673:
 1474              	.LBB652:
 1475              	.LBB651:
 1476              	.LBB649:
 1477              	.LBB650:
 1478              		.loc 21 94 35 view .LVU394
 1479 0032 C4F89051 		str	r5, [r4, #400]
 1480              	.LBE650:
 1481              	.LBE649:
 1482              	.LBE651:
 1483              	.LBE652:
 1484              	.LBE673:
 1485              	.LBB674:
 1486              	.LBB670:
 1487              	.LBB668:
ARM GAS  /var/folders/7c/668hyr3s7rlgsbdftclf3hsr0000gn/T//cczSPkjU.s 			page 62


 1488              	.LBB666:
 1489              	.LBB664:
  15:../DaisyExamples/libDaisy/src/util/FIFO.h ****     {
 1490              		.loc 11 15 75 view .LVU395
 1491 0036 C4F84852 		str	r5, [r4, #584]
 1492 003a C4F84C52 		str	r5, [r4, #588]
 1493              	.LVL73:
  15:../DaisyExamples/libDaisy/src/util/FIFO.h ****     {
 1494              		.loc 11 15 75 view .LVU396
 1495 003e C4E99023 		strd	r2, r3, [r4, #576]
 1496              	.LBE664:
 1497              	.LBE666:
 1498              	.LBE668:
 1499              	.LBE670:
 1500              	.LBE674:
 1501              	.LBE676:
 1502              	.LBE696:
 1503              	.LBE699:
 1504              	.LBE702:
  12:DaisyKeys.cpp **** static DaisyPod   pod;
 1505              		.loc 17 12 19 view .LVU397
 1506 0042 3246     		mov	r2, r6
 1507 0044 FFF7FEFF 		bl	__aeabi_atexit
 1508              	.LVL74:
 1509              	.LBB703:
 1510              	.LBI703:
  21:../DaisyExamples/libDaisy/src/daisy_seed.h ****     ~DaisySeed() {}
 1511              		.loc 4 21 5 is_stmt 1 view .LVU398
 1512              	.LBB704:
 1513              	.LBB705:
 1514              	.LBI705:
 1515              		.loc 18 166 5 view .LVU399
 1516              	.LBB706:
 1517              	.LBB707:
 1518              		.loc 18 166 34 is_stmt 0 view .LVU400
 1519 0048 1048     		ldr	r0, .L51+16
 1520              	.LBE707:
 1521              	.LBE706:
 1522              	.LBE705:
 1523              	.LBE704:
 1524              	.LBE703:
  13:DaisyKeys.cpp **** static DaisySeed hw;
 1525              		.loc 17 13 18 view .LVU401
 1526 004a 3246     		mov	r2, r6
 1527 004c 1049     		ldr	r1, .L51+20
 1528              	.LBB724:
 1529              	.LBB723:
 1530              	.LBB710:
 1531              	.LBB709:
 1532              	.LBB708:
 1533              		.loc 18 166 34 view .LVU402
 1534 004e 0560     		str	r5, [r0]
 1535              	.LVL75:
 1536              		.loc 18 166 34 view .LVU403
 1537              	.LBE708:
 1538              	.LBE709:
 1539              	.LBE710:
ARM GAS  /var/folders/7c/668hyr3s7rlgsbdftclf3hsr0000gn/T//cczSPkjU.s 			page 63


 1540              	.LBB711:
 1541              	.LBI711:
  95:../DaisyExamples/libDaisy/src/hid/audio.h ****     ~AudioHandle() {}
 1542              		.loc 8 95 5 is_stmt 1 view .LVU404
 1543              	.LBB712:
 1544              	.LBB713:
  95:../DaisyExamples/libDaisy/src/hid/audio.h ****     ~AudioHandle() {}
 1545              		.loc 8 95 35 is_stmt 0 view .LVU405
 1546 0050 4561     		str	r5, [r0, #20]
 1547              	.LVL76:
  95:../DaisyExamples/libDaisy/src/hid/audio.h ****     ~AudioHandle() {}
 1548              		.loc 8 95 35 view .LVU406
 1549              	.LBE713:
 1550              	.LBE712:
 1551              	.LBE711:
 1552              	.LBB714:
 1553              	.LBI714:
 109:../DaisyExamples/libDaisy/src/per/adc.h ****     ~AdcHandle() {}
 1554              		.loc 7 109 5 is_stmt 1 view .LVU407
 109:../DaisyExamples/libDaisy/src/per/adc.h ****     ~AdcHandle() {}
 1555              		.loc 7 109 5 is_stmt 0 view .LVU408
 1556              	.LBE714:
 1557              	.LBB715:
 1558              	.LBI715:
 1559              		.loc 19 84 5 is_stmt 1 view .LVU409
 1560              	.LBB716:
 1561              	.LBB717:
 1562              		.loc 19 84 33 is_stmt 0 view .LVU410
 1563 0052 0562     		str	r5, [r0, #32]
 1564              	.LVL77:
 1565              		.loc 19 84 33 view .LVU411
 1566              	.LBE717:
 1567              	.LBE716:
 1568              	.LBE715:
 1569              	.LBB718:
 1570              	.LBI718:
  40:../DaisyExamples/libDaisy/src/hid/usb.h **** 
 1571              		.loc 6 40 5 is_stmt 1 view .LVU412
  40:../DaisyExamples/libDaisy/src/hid/usb.h **** 
 1572              		.loc 6 40 5 is_stmt 0 view .LVU413
 1573              	.LBE718:
 1574              	.LBB719:
 1575              	.LBI719:
  96:../DaisyExamples/libDaisy/src/sys/system.h ****     ~System() {}
 1576              		.loc 5 96 5 is_stmt 1 view .LVU414
  96:../DaisyExamples/libDaisy/src/sys/system.h ****     ~System() {}
 1577              		.loc 5 96 5 is_stmt 0 view .LVU415
 1578              	.LBE719:
 1579              	.LBB720:
 1580              	.LBI720:
 1581              		.loc 20 108 5 is_stmt 1 view .LVU416
 1582              	.LBB721:
 1583              	.LBB722:
 1584              		.loc 20 108 33 is_stmt 0 view .LVU417
 1585 0054 C563     		str	r5, [r0, #60]
 1586              	.LVL78:
 1587              		.loc 20 108 33 view .LVU418
ARM GAS  /var/folders/7c/668hyr3s7rlgsbdftclf3hsr0000gn/T//cczSPkjU.s 			page 64


 1588              	.LBE722:
 1589              	.LBE721:
 1590              	.LBE720:
 1591              	.LBE723:
 1592              	.LBE724:
  13:DaisyKeys.cpp **** static DaisySeed hw;
 1593              		.loc 17 13 18 view .LVU419
 1594 0056 FFF7FEFF 		bl	__aeabi_atexit
 1595              	.LVL79:
 1596              	.LBB725:
 1597              	.LBI725:
  23:../DaisyExamples/DaisySP/Source/Synthesis/oscillator.h ****     ~Oscillator() {}
 1598              		.loc 2 23 5 is_stmt 1 view .LVU420
  23:../DaisyExamples/DaisySP/Source/Synthesis/oscillator.h ****     ~Oscillator() {}
 1599              		.loc 2 23 5 is_stmt 0 view .LVU421
 1600              	.LBE725:
  14:DaisyKeys.cpp **** static Oscillator osc;
 1601              		.loc 17 14 19 view .LVU422
 1602 005a 3246     		mov	r2, r6
 1603 005c 0D49     		ldr	r1, .L51+24
 1604 005e 0E48     		ldr	r0, .L51+28
 1605 0060 FFF7FEFF 		bl	__aeabi_atexit
 1606              	.LVL80:
 1607              	.LBB726:
 1608              	.LBI726:
  42:../DaisyExamples/DaisySP/Source/Control/adenv.h ****     ~AdEnv() {}
 1609              		.loc 1 42 5 is_stmt 1 view .LVU423
  42:../DaisyExamples/DaisySP/Source/Control/adenv.h ****     ~AdEnv() {}
 1610              		.loc 1 42 5 is_stmt 0 view .LVU424
 1611              	.LBE726:
  15:DaisyKeys.cpp **** static AdEnv      ad;
 1612              		.loc 17 15 19 view .LVU425
 1613 0064 3246     		mov	r2, r6
 1614 0066 0D49     		ldr	r1, .L51+32
 1615 0068 0D48     		ldr	r0, .L51+36
 1616 006a FFF7FEFF 		bl	__aeabi_atexit
 1617              	.LVL81:
 1618              	.LBB727:
 1619              	.LBI727:
  41:../DaisyExamples/libDaisy/src/hid/switch.h ****     ~Switch() {}
 1620              		.loc 3 41 5 is_stmt 1 view .LVU426
  41:../DaisyExamples/libDaisy/src/hid/switch.h ****     ~Switch() {}
 1621              		.loc 3 41 5 is_stmt 0 view .LVU427
 1622              	.LBE727:
  20:DaisyKeys.cpp **** Switch button3;
 1623              		.loc 17 20 8 view .LVU428
 1624 006e 3246     		mov	r2, r6
 1625 0070 0C49     		ldr	r1, .L51+40
 1626 0072 0D48     		ldr	r0, .L51+44
 1627              	.LBE728:
 1628              	.LBE730:
 1629              		.loc 17 137 1 view .LVU429
 1630 0074 BDE87040 		pop	{r4, r5, r6, lr}
 1631              		.cfi_restore 14
 1632              		.cfi_restore 6
 1633              		.cfi_restore 5
 1634              		.cfi_restore 4
ARM GAS  /var/folders/7c/668hyr3s7rlgsbdftclf3hsr0000gn/T//cczSPkjU.s 			page 65


 1635              		.cfi_def_cfa_offset 0
 1636              	.LBB731:
 1637              	.LBB729:
  20:DaisyKeys.cpp **** Switch button3;
 1638              		.loc 17 20 8 view .LVU430
 1639 0078 FFF7FEBF 		b	__aeabi_atexit
 1640              	.LVL82:
 1641              	.L52:
 1642              		.align	2
 1643              	.L51:
 1644 007c 00000000 		.word	_ZL3pod
 1645 0080 00000000 		.word	__dso_handle
 1646 0084 0080707F 		.word	2138079232
 1647 0088 00000000 		.word	_ZN5daisy8DaisyPodD1Ev
 1648 008c 00000000 		.word	.LANCHOR5
 1649 0090 00000000 		.word	_ZN5daisy9DaisySeedD1Ev
 1650 0094 00000000 		.word	_ZN7daisysp10OscillatorD1Ev
 1651 0098 00000000 		.word	.LANCHOR2
 1652 009c 00000000 		.word	_ZN7daisysp5AdEnvD1Ev
 1653 00a0 00000000 		.word	.LANCHOR0
 1654 00a4 00000000 		.word	_ZN5daisy6SwitchD1Ev
 1655 00a8 00000000 		.word	.LANCHOR3
 1656              	.LBE729:
 1657              	.LBE731:
 1658              		.cfi_endproc
 1659              	.LFE5277:
 1661              		.section	.init_array,"aw",%init_array
 1662              		.align	2
 1663 0000 00000000 		.word	_GLOBAL__sub_I_wave(target1)
 1664              		.global	button3
 1665              		.global	oscFreq
 1666              		.global	vibrato
 1667              		.global	mode
 1668              		.global	wave
 1669              		.section	.bss._ZL2ad,"aw",%nobits
 1670              		.align	2
 1671              		.set	.LANCHOR0,. + 0
 1674              	_ZL2ad:
 1675 0000 00000000 		.space	56
 1675      00000000 
 1675      00000000 
 1675      00000000 
 1675      00000000 
 1676              		.section	.bss._ZL2hw,"aw",%nobits
 1677              		.align	2
 1678              		.set	.LANCHOR5,. + 0
 1681              	_ZL2hw:
 1682 0000 00000000 		.space	64
 1682      00000000 
 1682      00000000 
 1682      00000000 
 1682      00000000 
 1683              		.section	.bss._ZL3osc,"aw",%nobits
 1684              		.align	2
 1685              		.set	.LANCHOR2,. + 0
 1688              	_ZL3osc:
 1689 0000 00000000 		.space	44
ARM GAS  /var/folders/7c/668hyr3s7rlgsbdftclf3hsr0000gn/T//cczSPkjU.s 			page 66


 1689      00000000 
 1689      00000000 
 1689      00000000 
 1689      00000000 
 1690              		.section	.bss._ZL3pod,"aw",%nobits
 1691              		.align	2
 1694              	_ZL3pod:
 1695 0000 00000000 		.space	37600
 1695      00000000 
 1695      00000000 
 1695      00000000 
 1695      00000000 
 1696              		.section	.bss.button3,"aw",%nobits
 1697              		.align	2
 1698              		.set	.LANCHOR3,. + 0
 1701              	button3:
 1702 0000 00000000 		.space	16
 1702      00000000 
 1702      00000000 
 1702      00000000 
 1703              		.section	.bss.mode,"aw",%nobits
 1704              		.align	2
 1707              	mode:
 1708 0000 00000000 		.space	4
 1709              		.section	.bss.oscFreq,"aw",%nobits
 1710              		.align	2
 1711              		.set	.LANCHOR1,. + 0
 1714              	oscFreq:
 1715 0000 00000000 		.space	4
 1716              		.section	.bss.vibrato,"aw",%nobits
 1717              		.align	2
 1720              	vibrato:
 1721 0000 00000000 		.space	4
 1722              		.section	.bss.wave,"aw",%nobits
 1723              		.align	2
 1724              		.set	.LANCHOR4,. + 0
 1727              	wave:
 1728 0000 00000000 		.space	4
 1729              		.text
 1730              	.Letext0:
 1731              		.file 22 "/Library/DaisyToolchain/0.2.0/arm/arm-none-eabi/include/machine/_default_types.h"
 1732              		.file 23 "/Library/DaisyToolchain/0.2.0/arm/arm-none-eabi/include/sys/_stdint.h"
 1733              		.file 24 "/Library/DaisyToolchain/0.2.0/arm/arm-none-eabi/include/stdint.h"
 1734              		.file 25 "/Library/DaisyToolchain/0.2.0/arm/lib/gcc/arm-none-eabi/10.3.1/include/stddef.h"
 1735              		.file 26 "/Library/DaisyToolchain/0.2.0/arm/arm-none-eabi/include/c++/10.3.1/cmath"
 1736              		.file 27 "/Library/DaisyToolchain/0.2.0/arm/arm-none-eabi/include/c++/10.3.1/bits/std_abs.h"
 1737              		.file 28 "/Library/DaisyToolchain/0.2.0/arm/arm-none-eabi/include/c++/10.3.1/cstdint"
 1738              		.file 29 "/Library/DaisyToolchain/0.2.0/arm/arm-none-eabi/include/c++/10.3.1/cstdlib"
 1739              		.file 30 "/Library/DaisyToolchain/0.2.0/arm/arm-none-eabi/include/c++/10.3.1/arm-none-eabi/thumb/v
 1740              		.file 31 "/Library/DaisyToolchain/0.2.0/arm/arm-none-eabi/include/c++/10.3.1/type_traits"
 1741              		.file 32 "/Library/DaisyToolchain/0.2.0/arm/arm-none-eabi/include/c++/10.3.1/debug/debug.h"
 1742              		.file 33 "/Library/DaisyToolchain/0.2.0/arm/arm-none-eabi/include/c++/10.3.1/cwchar"
 1743              		.file 34 "/Library/DaisyToolchain/0.2.0/arm/arm-none-eabi/include/c++/10.3.1/bits/stl_pair.h"
 1744              		.file 35 "/Library/DaisyToolchain/0.2.0/arm/arm-none-eabi/include/c++/10.3.1/bits/exception_ptr.h"
 1745              		.file 36 "/Library/DaisyToolchain/0.2.0/arm/arm-none-eabi/include/c++/10.3.1/clocale"
 1746              		.file 37 "/Library/DaisyToolchain/0.2.0/arm/arm-none-eabi/include/c++/10.3.1/cstdio"
 1747              		.file 38 "/Library/DaisyToolchain/0.2.0/arm/arm-none-eabi/include/c++/10.3.1/bits/basic_string.h"
ARM GAS  /var/folders/7c/668hyr3s7rlgsbdftclf3hsr0000gn/T//cczSPkjU.s 			page 67


 1748              		.file 39 "/Library/DaisyToolchain/0.2.0/arm/arm-none-eabi/include/c++/10.3.1/bits/stl_iterator.h"
 1749              		.file 40 "/Library/DaisyToolchain/0.2.0/arm/arm-none-eabi/include/c++/10.3.1/bits/algorithmfwd.h"
 1750              		.file 41 "/Library/DaisyToolchain/0.2.0/arm/arm-none-eabi/include/c++/10.3.1/cstring"
 1751              		.file 42 "/Library/DaisyToolchain/0.2.0/arm/arm-none-eabi/include/c++/10.3.1/initializer_list"
 1752              		.file 43 "/Library/DaisyToolchain/0.2.0/arm/arm-none-eabi/include/c++/10.3.1/cstdarg"
 1753              		.file 44 "/Library/DaisyToolchain/0.2.0/arm/arm-none-eabi/include/c++/10.3.1/bits/predefined_ops.h
 1754              		.file 45 "/Library/DaisyToolchain/0.2.0/arm/arm-none-eabi/include/sys/_types.h"
 1755              		.file 46 "/Library/DaisyToolchain/0.2.0/arm/arm-none-eabi/include/sys/reent.h"
 1756              		.file 47 "/Library/DaisyToolchain/0.2.0/arm/arm-none-eabi/include/sys/lock.h"
 1757              		.file 48 "/Library/DaisyToolchain/0.2.0/arm/arm-none-eabi/include/math.h"
 1758              		.file 49 "/Library/DaisyToolchain/0.2.0/arm/arm-none-eabi/include/stdlib.h"
 1759              		.file 50 "/Library/DaisyToolchain/0.2.0/arm/arm-none-eabi/include/c++/10.3.1/math.h"
 1760              		.file 51 "../DaisyExamples/DaisySP/Source/Utility/dsp.h"
 1761              		.file 52 "/Library/DaisyToolchain/0.2.0/arm/lib/gcc/arm-none-eabi/10.3.1/include/stdarg.h"
 1762              		.file 53 "/Library/DaisyToolchain/0.2.0/arm/arm-none-eabi/include/wchar.h"
 1763              		.file 54 "/Library/DaisyToolchain/0.2.0/arm/arm-none-eabi/include/locale.h"
 1764              		.file 55 "/Library/DaisyToolchain/0.2.0/arm/arm-none-eabi/include/stdio.h"
 1765              		.file 56 "/Library/DaisyToolchain/0.2.0/arm/arm-none-eabi/include/c++/10.3.1/stdlib.h"
 1766              		.file 57 "/Library/DaisyToolchain/0.2.0/arm/arm-none-eabi/include/string.h"
 1767              		.file 58 "../DaisyExamples/libDaisy/src/daisy_core.h"
 1768              		.file 59 "../DaisyExamples/libDaisy/src/per/tim.h"
 1769              		.file 60 "../DaisyExamples/libDaisy/src/hid/MidiEvent.h"
 1770              		.file 61 "../DaisyExamples/libDaisy/src/util/wav_format.h"
 1771              		.file 62 "../DaisyExamples/libDaisy/src/util/color.h"
 1772              		.file 63 "../DaisyExamples/libDaisy/src/dev/max11300.h"
 1773              		.file 64 "../DaisyExamples/libDaisy/src/per/gpio.h"
 1774              		.file 65 "../DaisyExamples/libDaisy/src/dev/sdram.h"
 1775              		.file 66 "<built-in>"
 1776              		.file 67 "../DaisyExamples/libDaisy/src/dev/sr_595.h"
ARM GAS  /var/folders/7c/668hyr3s7rlgsbdftclf3hsr0000gn/T//cczSPkjU.s 			page 68

