ARM GAS  /var/folders/7c/668hyr3s7rlgsbdftclf3hsr0000gn/T//cctzORKV.s 			page 1


   1              		.cpu cortex-m7
   2              		.arch armv7e-m
   3              		.fpu fpv5-d16
   4              		.eabi_attribute 28, 1
   5              		.eabi_attribute 20, 1
   6              		.eabi_attribute 21, 1
   7              		.eabi_attribute 23, 3
   8              		.eabi_attribute 24, 1
   9              		.eabi_attribute 25, 1
  10              		.eabi_attribute 26, 1
  11              		.eabi_attribute 30, 2
  12              		.eabi_attribute 34, 1
  13              		.eabi_attribute 18, 4
  14              		.file	"keys.cpp"
  15              		.text
  16              	.Ltext0:
  17              		.cfi_sections	.debug_frame
  18              		.section	.text._ZN7daisysp5AdEnvD2Ev,"axG",%progbits,_ZN7daisysp5AdEnvD5Ev,comdat
  19              		.align	1
  20              		.p2align 2,,3
  21              		.weak	_ZN7daisysp5AdEnvD2Ev
  22              		.syntax unified
  23              		.thumb
  24              		.thumb_func
  26              	_ZN7daisysp5AdEnvD2Ev:
  27              	.LVL0:
  28              	.LFB548:
  29              		.file 1 "../DaisyExamples/DaisySP/Source/Control/adenv.h"
   1:../DaisyExamples/DaisySP/Source/Control/adenv.h **** /*
   2:../DaisyExamples/DaisySP/Source/Control/adenv.h **** Copyright (c) 2020 Electrosmith, Corp
   3:../DaisyExamples/DaisySP/Source/Control/adenv.h **** 
   4:../DaisyExamples/DaisySP/Source/Control/adenv.h **** Use of this source code is governed by an MIT-style
   5:../DaisyExamples/DaisySP/Source/Control/adenv.h **** license that can be found in the LICENSE file or at
   6:../DaisyExamples/DaisySP/Source/Control/adenv.h **** https://opensource.org/licenses/MIT.
   7:../DaisyExamples/DaisySP/Source/Control/adenv.h **** */
   8:../DaisyExamples/DaisySP/Source/Control/adenv.h **** 
   9:../DaisyExamples/DaisySP/Source/Control/adenv.h **** #pragma once
  10:../DaisyExamples/DaisySP/Source/Control/adenv.h **** #ifndef ADENV_H
  11:../DaisyExamples/DaisySP/Source/Control/adenv.h **** #define ADENV_H
  12:../DaisyExamples/DaisySP/Source/Control/adenv.h **** #include <stdint.h>
  13:../DaisyExamples/DaisySP/Source/Control/adenv.h **** #ifdef __cplusplus
  14:../DaisyExamples/DaisySP/Source/Control/adenv.h **** 
  15:../DaisyExamples/DaisySP/Source/Control/adenv.h **** namespace daisysp
  16:../DaisyExamples/DaisySP/Source/Control/adenv.h **** {
  17:../DaisyExamples/DaisySP/Source/Control/adenv.h **** /** Distinct stages that the phase of the envelope can be located in.
  18:../DaisyExamples/DaisySP/Source/Control/adenv.h ****     @see AdEnv
  19:../DaisyExamples/DaisySP/Source/Control/adenv.h **** */
  20:../DaisyExamples/DaisySP/Source/Control/adenv.h **** enum AdEnvSegment
  21:../DaisyExamples/DaisySP/Source/Control/adenv.h **** {
  22:../DaisyExamples/DaisySP/Source/Control/adenv.h ****     /** located at phase location 0, and not currently running */
  23:../DaisyExamples/DaisySP/Source/Control/adenv.h ****     ADENV_SEG_IDLE,
  24:../DaisyExamples/DaisySP/Source/Control/adenv.h ****     /** First segment of envelope where phase moves from MIN value to MAX value */
  25:../DaisyExamples/DaisySP/Source/Control/adenv.h ****     ADENV_SEG_ATTACK,
  26:../DaisyExamples/DaisySP/Source/Control/adenv.h ****     /** Second segment of envelope where phase moves from MAX to MIN value */
  27:../DaisyExamples/DaisySP/Source/Control/adenv.h ****     ADENV_SEG_DECAY,
  28:../DaisyExamples/DaisySP/Source/Control/adenv.h ****     /** The final segment of the envelope (currently decay) */
  29:../DaisyExamples/DaisySP/Source/Control/adenv.h ****     ADENV_SEG_LAST,
ARM GAS  /var/folders/7c/668hyr3s7rlgsbdftclf3hsr0000gn/T//cctzORKV.s 			page 2


  30:../DaisyExamples/DaisySP/Source/Control/adenv.h **** };
  31:../DaisyExamples/DaisySP/Source/Control/adenv.h **** 
  32:../DaisyExamples/DaisySP/Source/Control/adenv.h **** /** Trigger-able envelope with adjustable min/max, and independent per-segment time control.
  33:../DaisyExamples/DaisySP/Source/Control/adenv.h **** 
  34:../DaisyExamples/DaisySP/Source/Control/adenv.h ****     \author shensley
  35:../DaisyExamples/DaisySP/Source/Control/adenv.h ****     \todo - Add Cycling
  36:../DaisyExamples/DaisySP/Source/Control/adenv.h ****     \todo - Implement Curve (its only linear for now).
  37:../DaisyExamples/DaisySP/Source/Control/adenv.h ****     \todo - Maybe make this an ADsr_ that has AD/AR/Asr_ modes.
  38:../DaisyExamples/DaisySP/Source/Control/adenv.h ****  */
  39:../DaisyExamples/DaisySP/Source/Control/adenv.h **** class AdEnv
  40:../DaisyExamples/DaisySP/Source/Control/adenv.h **** {
  41:../DaisyExamples/DaisySP/Source/Control/adenv.h ****   public:
  42:../DaisyExamples/DaisySP/Source/Control/adenv.h ****     AdEnv() {}
  43:../DaisyExamples/DaisySP/Source/Control/adenv.h ****     ~AdEnv() {}
  30              		.loc 1 43 5 view -0
  31              		.cfi_startproc
  32              		@ args = 0, pretend = 0, frame = 0
  33              		@ frame_needed = 0, uses_anonymous_args = 0
  34              		@ link register save eliminated.
  35              		.loc 1 43 15 is_stmt 0 view .LVU1
  36 0000 7047     		bx	lr
  37              		.cfi_endproc
  38              	.LFE548:
  40              		.weak	_ZN7daisysp5AdEnvD1Ev
  41              		.thumb_set _ZN7daisysp5AdEnvD1Ev,_ZN7daisysp5AdEnvD2Ev
  42 0002 00BF     		.section	.text._ZN7daisysp10OscillatorD2Ev,"axG",%progbits,_ZN7daisysp10OscillatorD5Ev,comdat
  43              		.align	1
  44              		.p2align 2,,3
  45              		.weak	_ZN7daisysp10OscillatorD2Ev
  46              		.syntax unified
  47              		.thumb
  48              		.thumb_func
  50              	_ZN7daisysp10OscillatorD2Ev:
  51              	.LVL1:
  52              	.LFB2826:
  53              		.file 2 "../DaisyExamples/DaisySP/Source/Synthesis/oscillator.h"
   1:../DaisyExamples/DaisySP/Source/Synthesis/oscillator.h **** /*
   2:../DaisyExamples/DaisySP/Source/Synthesis/oscillator.h **** Copyright (c) 2020 Electrosmith, Corp
   3:../DaisyExamples/DaisySP/Source/Synthesis/oscillator.h **** 
   4:../DaisyExamples/DaisySP/Source/Synthesis/oscillator.h **** Use of this source code is governed by an MIT-style
   5:../DaisyExamples/DaisySP/Source/Synthesis/oscillator.h **** license that can be found in the LICENSE file or at
   6:../DaisyExamples/DaisySP/Source/Synthesis/oscillator.h **** https://opensource.org/licenses/MIT.
   7:../DaisyExamples/DaisySP/Source/Synthesis/oscillator.h **** */
   8:../DaisyExamples/DaisySP/Source/Synthesis/oscillator.h **** 
   9:../DaisyExamples/DaisySP/Source/Synthesis/oscillator.h **** #pragma once
  10:../DaisyExamples/DaisySP/Source/Synthesis/oscillator.h **** #ifndef DSY_OSCILLATOR_H
  11:../DaisyExamples/DaisySP/Source/Synthesis/oscillator.h **** #define DSY_OSCILLATOR_H
  12:../DaisyExamples/DaisySP/Source/Synthesis/oscillator.h **** #include <stdint.h>
  13:../DaisyExamples/DaisySP/Source/Synthesis/oscillator.h **** #include "Utility/dsp.h"
  14:../DaisyExamples/DaisySP/Source/Synthesis/oscillator.h **** #ifdef __cplusplus
  15:../DaisyExamples/DaisySP/Source/Synthesis/oscillator.h **** 
  16:../DaisyExamples/DaisySP/Source/Synthesis/oscillator.h **** namespace daisysp
  17:../DaisyExamples/DaisySP/Source/Synthesis/oscillator.h **** {
  18:../DaisyExamples/DaisySP/Source/Synthesis/oscillator.h **** /** Synthesis of several waveforms, including polyBLEP bandlimited waveforms.
  19:../DaisyExamples/DaisySP/Source/Synthesis/oscillator.h **** */
  20:../DaisyExamples/DaisySP/Source/Synthesis/oscillator.h **** class Oscillator
  21:../DaisyExamples/DaisySP/Source/Synthesis/oscillator.h **** {
ARM GAS  /var/folders/7c/668hyr3s7rlgsbdftclf3hsr0000gn/T//cctzORKV.s 			page 3


  22:../DaisyExamples/DaisySP/Source/Synthesis/oscillator.h ****   public:
  23:../DaisyExamples/DaisySP/Source/Synthesis/oscillator.h ****     Oscillator() {}
  24:../DaisyExamples/DaisySP/Source/Synthesis/oscillator.h ****     ~Oscillator() {}
  54              		.loc 2 24 5 is_stmt 1 view -0
  55              		.cfi_startproc
  56              		@ args = 0, pretend = 0, frame = 0
  57              		@ frame_needed = 0, uses_anonymous_args = 0
  58              		@ link register save eliminated.
  59              		.loc 2 24 20 is_stmt 0 view .LVU3
  60 0000 7047     		bx	lr
  61              		.cfi_endproc
  62              	.LFE2826:
  64              		.weak	_ZN7daisysp10OscillatorD1Ev
  65              		.thumb_set _ZN7daisysp10OscillatorD1Ev,_ZN7daisysp10OscillatorD2Ev
  66 0002 00BF     		.section	.text._ZN5daisy6SwitchD2Ev,"axG",%progbits,_ZN5daisy6SwitchD5Ev,comdat
  67              		.align	1
  68              		.p2align 2,,3
  69              		.weak	_ZN5daisy6SwitchD2Ev
  70              		.syntax unified
  71              		.thumb
  72              		.thumb_func
  74              	_ZN5daisy6SwitchD2Ev:
  75              	.LVL2:
  76              	.LFB3767:
  77              		.file 3 "../DaisyExamples/libDaisy/src/hid/switch.h"
   1:../DaisyExamples/libDaisy/src/hid/switch.h **** #pragma once
   2:../DaisyExamples/libDaisy/src/hid/switch.h **** #ifndef DSY_SWITCH_H
   3:../DaisyExamples/libDaisy/src/hid/switch.h **** #define DSY_SWITCH_H
   4:../DaisyExamples/libDaisy/src/hid/switch.h **** #include "daisy_core.h"
   5:../DaisyExamples/libDaisy/src/hid/switch.h **** #include "per/gpio.h"
   6:../DaisyExamples/libDaisy/src/hid/switch.h **** #include "sys/system.h"
   7:../DaisyExamples/libDaisy/src/hid/switch.h **** 
   8:../DaisyExamples/libDaisy/src/hid/switch.h **** namespace daisy
   9:../DaisyExamples/libDaisy/src/hid/switch.h **** {
  10:../DaisyExamples/libDaisy/src/hid/switch.h **** /** 
  11:../DaisyExamples/libDaisy/src/hid/switch.h ****     Generic Class for handling momentary/latching switches \n 
  12:../DaisyExamples/libDaisy/src/hid/switch.h ****     Inspired/influenced by Mutable Instruments (pichenettes) Switch classes
  13:../DaisyExamples/libDaisy/src/hid/switch.h ****     @author Stephen Hensley
  14:../DaisyExamples/libDaisy/src/hid/switch.h ****     @date December 2019
  15:../DaisyExamples/libDaisy/src/hid/switch.h ****     @ingroup controls
  16:../DaisyExamples/libDaisy/src/hid/switch.h **** */
  17:../DaisyExamples/libDaisy/src/hid/switch.h **** class Switch
  18:../DaisyExamples/libDaisy/src/hid/switch.h **** {
  19:../DaisyExamples/libDaisy/src/hid/switch.h ****   public:
  20:../DaisyExamples/libDaisy/src/hid/switch.h ****     /** Specifies the expected behavior of the switch */
  21:../DaisyExamples/libDaisy/src/hid/switch.h ****     enum Type
  22:../DaisyExamples/libDaisy/src/hid/switch.h ****     {
  23:../DaisyExamples/libDaisy/src/hid/switch.h ****         TYPE_TOGGLE,    /**< & */
  24:../DaisyExamples/libDaisy/src/hid/switch.h ****         TYPE_MOMENTARY, /**< & */
  25:../DaisyExamples/libDaisy/src/hid/switch.h ****     };
  26:../DaisyExamples/libDaisy/src/hid/switch.h ****     /** Specifies whether the pressed is HIGH or LOW. */
  27:../DaisyExamples/libDaisy/src/hid/switch.h ****     enum Polarity
  28:../DaisyExamples/libDaisy/src/hid/switch.h ****     {
  29:../DaisyExamples/libDaisy/src/hid/switch.h ****         POLARITY_NORMAL,   /**< & */
  30:../DaisyExamples/libDaisy/src/hid/switch.h ****         POLARITY_INVERTED, /**< & */
  31:../DaisyExamples/libDaisy/src/hid/switch.h ****     };
  32:../DaisyExamples/libDaisy/src/hid/switch.h **** 
ARM GAS  /var/folders/7c/668hyr3s7rlgsbdftclf3hsr0000gn/T//cctzORKV.s 			page 4


  33:../DaisyExamples/libDaisy/src/hid/switch.h ****     /** Specifies whether to use built-in Pull Up/Down resistors to hold button at a given state wh
  34:../DaisyExamples/libDaisy/src/hid/switch.h ****     enum Pull
  35:../DaisyExamples/libDaisy/src/hid/switch.h ****     {
  36:../DaisyExamples/libDaisy/src/hid/switch.h ****         PULL_UP,   /**< & */
  37:../DaisyExamples/libDaisy/src/hid/switch.h ****         PULL_DOWN, /**< & */
  38:../DaisyExamples/libDaisy/src/hid/switch.h ****         PULL_NONE, /**< & */
  39:../DaisyExamples/libDaisy/src/hid/switch.h ****     };
  40:../DaisyExamples/libDaisy/src/hid/switch.h **** 
  41:../DaisyExamples/libDaisy/src/hid/switch.h ****     Switch() {}
  42:../DaisyExamples/libDaisy/src/hid/switch.h ****     ~Switch() {}
  78              		.loc 3 42 5 is_stmt 1 view -0
  79              		.cfi_startproc
  80              		@ args = 0, pretend = 0, frame = 0
  81              		@ frame_needed = 0, uses_anonymous_args = 0
  82              		@ link register save eliminated.
  83              		.loc 3 42 16 is_stmt 0 view .LVU5
  84 0000 7047     		bx	lr
  85              		.cfi_endproc
  86              	.LFE3767:
  88              		.weak	_ZN5daisy6SwitchD1Ev
  89              		.thumb_set _ZN5daisy6SwitchD1Ev,_ZN5daisy6SwitchD2Ev
  90 0002 00BF     		.section	.text._ZN5daisy9DaisySeedD2Ev,"axG",%progbits,_ZN5daisy9DaisySeedD5Ev,comdat
  91              		.align	1
  92              		.p2align 2,,3
  93              		.weak	_ZN5daisy9DaisySeedD2Ev
  94              		.syntax unified
  95              		.thumb
  96              		.thumb_func
  98              	_ZN5daisy9DaisySeedD2Ev:
  99              	.LVL3:
 100              	.LFB4677:
 101              		.file 4 "../DaisyExamples/libDaisy/src/daisy_seed.h"
   1:../DaisyExamples/libDaisy/src/daisy_seed.h **** #pragma once
   2:../DaisyExamples/libDaisy/src/daisy_seed.h **** #ifndef DSY_SEED_H
   3:../DaisyExamples/libDaisy/src/daisy_seed.h **** #define DSY_SEED_H
   4:../DaisyExamples/libDaisy/src/daisy_seed.h **** 
   5:../DaisyExamples/libDaisy/src/daisy_seed.h **** #include "daisy.h"
   6:../DaisyExamples/libDaisy/src/daisy_seed.h **** 
   7:../DaisyExamples/libDaisy/src/daisy_seed.h **** //Uncomment this out if you're still using the rev2 hardware
   8:../DaisyExamples/libDaisy/src/daisy_seed.h **** //#define SEED_REV2
   9:../DaisyExamples/libDaisy/src/daisy_seed.h **** 
  10:../DaisyExamples/libDaisy/src/daisy_seed.h **** namespace daisy
  11:../DaisyExamples/libDaisy/src/daisy_seed.h **** {
  12:../DaisyExamples/libDaisy/src/daisy_seed.h **** /**
  13:../DaisyExamples/libDaisy/src/daisy_seed.h ****    @brief This is the higher-level interface for the Daisy board. \n 
  14:../DaisyExamples/libDaisy/src/daisy_seed.h ****     All basic peripheral configuration/initialization is setup here. \n
  15:../DaisyExamples/libDaisy/src/daisy_seed.h **** 
  16:../DaisyExamples/libDaisy/src/daisy_seed.h ****    @ingroup boards
  17:../DaisyExamples/libDaisy/src/daisy_seed.h **** */
  18:../DaisyExamples/libDaisy/src/daisy_seed.h **** class DaisySeed
  19:../DaisyExamples/libDaisy/src/daisy_seed.h **** {
  20:../DaisyExamples/libDaisy/src/daisy_seed.h ****   public:
  21:../DaisyExamples/libDaisy/src/daisy_seed.h ****     DaisySeed() {}
  22:../DaisyExamples/libDaisy/src/daisy_seed.h ****     ~DaisySeed() {}
 102              		.loc 4 22 5 is_stmt 1 view -0
 103              		.cfi_startproc
 104              		@ args = 0, pretend = 0, frame = 0
ARM GAS  /var/folders/7c/668hyr3s7rlgsbdftclf3hsr0000gn/T//cctzORKV.s 			page 5


 105              		@ frame_needed = 0, uses_anonymous_args = 0
 106              		@ link register save eliminated.
 107              	.LBB217:
 108              	.LBI217:
 109              		.file 5 "../DaisyExamples/libDaisy/src/sys/system.h"
   1:../DaisyExamples/libDaisy/src/sys/system.h **** #ifndef DSY_SYSTEM_H
   2:../DaisyExamples/libDaisy/src/sys/system.h **** #define DSY_SYSTEM_H
   3:../DaisyExamples/libDaisy/src/sys/system.h **** 
   4:../DaisyExamples/libDaisy/src/sys/system.h **** #ifndef UNIT_TEST // for unit tests, a dummy implementation is provided below
   5:../DaisyExamples/libDaisy/src/sys/system.h **** 
   6:../DaisyExamples/libDaisy/src/sys/system.h **** #include <cstdint>
   7:../DaisyExamples/libDaisy/src/sys/system.h **** #include "per/tim.h"
   8:../DaisyExamples/libDaisy/src/sys/system.h **** 
   9:../DaisyExamples/libDaisy/src/sys/system.h **** namespace daisy
  10:../DaisyExamples/libDaisy/src/sys/system.h **** {
  11:../DaisyExamples/libDaisy/src/sys/system.h **** /** A handle for interacting with the Core System.
  12:../DaisyExamples/libDaisy/src/sys/system.h ****  ** This includes the Clock tree, MPU, global DMA initialization,
  13:../DaisyExamples/libDaisy/src/sys/system.h ****  ** cache handling, and any other necessary global initiailzation
  14:../DaisyExamples/libDaisy/src/sys/system.h ****  **
  15:../DaisyExamples/libDaisy/src/sys/system.h ****  ** @author shensley
  16:../DaisyExamples/libDaisy/src/sys/system.h ****  ** @ingroup system
  17:../DaisyExamples/libDaisy/src/sys/system.h ****  */
  18:../DaisyExamples/libDaisy/src/sys/system.h **** class System
  19:../DaisyExamples/libDaisy/src/sys/system.h **** {
  20:../DaisyExamples/libDaisy/src/sys/system.h ****   public:
  21:../DaisyExamples/libDaisy/src/sys/system.h ****     /** Contains settings for initializing the System */
  22:../DaisyExamples/libDaisy/src/sys/system.h ****     struct Config
  23:../DaisyExamples/libDaisy/src/sys/system.h ****     {
  24:../DaisyExamples/libDaisy/src/sys/system.h ****         /** Specifies the system clock frequency that feeds APB/AHB clocks, etc. */
  25:../DaisyExamples/libDaisy/src/sys/system.h ****         enum class SysClkFreq
  26:../DaisyExamples/libDaisy/src/sys/system.h ****         {
  27:../DaisyExamples/libDaisy/src/sys/system.h ****             FREQ_400MHZ,
  28:../DaisyExamples/libDaisy/src/sys/system.h ****             FREQ_480MHZ,
  29:../DaisyExamples/libDaisy/src/sys/system.h ****         };
  30:../DaisyExamples/libDaisy/src/sys/system.h **** 
  31:../DaisyExamples/libDaisy/src/sys/system.h ****         /** Method to call on the struct to set to defaults
  32:../DaisyExamples/libDaisy/src/sys/system.h ****          ** CPU Freq set to 400MHz
  33:../DaisyExamples/libDaisy/src/sys/system.h ****          ** Cache Enabled
  34:../DaisyExamples/libDaisy/src/sys/system.h ****          ** */
  35:../DaisyExamples/libDaisy/src/sys/system.h ****         void Defaults()
  36:../DaisyExamples/libDaisy/src/sys/system.h ****         {
  37:../DaisyExamples/libDaisy/src/sys/system.h ****             cpu_freq    = SysClkFreq::FREQ_400MHZ;
  38:../DaisyExamples/libDaisy/src/sys/system.h ****             use_dcache  = true;
  39:../DaisyExamples/libDaisy/src/sys/system.h ****             use_icache  = true;
  40:../DaisyExamples/libDaisy/src/sys/system.h ****             skip_clocks = false;
  41:../DaisyExamples/libDaisy/src/sys/system.h ****         }
  42:../DaisyExamples/libDaisy/src/sys/system.h **** 
  43:../DaisyExamples/libDaisy/src/sys/system.h ****         /** Method to call on the struct to set to boost mode:
  44:../DaisyExamples/libDaisy/src/sys/system.h ****          ** CPU Freq set to 480MHz
  45:../DaisyExamples/libDaisy/src/sys/system.h ****          ** Cache Enabled
  46:../DaisyExamples/libDaisy/src/sys/system.h ****          ** */
  47:../DaisyExamples/libDaisy/src/sys/system.h ****         void Boost()
  48:../DaisyExamples/libDaisy/src/sys/system.h ****         {
  49:../DaisyExamples/libDaisy/src/sys/system.h ****             cpu_freq    = SysClkFreq::FREQ_480MHZ;
  50:../DaisyExamples/libDaisy/src/sys/system.h ****             use_dcache  = true;
  51:../DaisyExamples/libDaisy/src/sys/system.h ****             use_icache  = true;
  52:../DaisyExamples/libDaisy/src/sys/system.h ****             skip_clocks = false;
ARM GAS  /var/folders/7c/668hyr3s7rlgsbdftclf3hsr0000gn/T//cctzORKV.s 			page 6


  53:../DaisyExamples/libDaisy/src/sys/system.h ****         }
  54:../DaisyExamples/libDaisy/src/sys/system.h **** 
  55:../DaisyExamples/libDaisy/src/sys/system.h ****         SysClkFreq cpu_freq;
  56:../DaisyExamples/libDaisy/src/sys/system.h ****         bool       use_dcache;
  57:../DaisyExamples/libDaisy/src/sys/system.h ****         bool       use_icache;
  58:../DaisyExamples/libDaisy/src/sys/system.h ****         bool       skip_clocks;
  59:../DaisyExamples/libDaisy/src/sys/system.h ****     };
  60:../DaisyExamples/libDaisy/src/sys/system.h **** 
  61:../DaisyExamples/libDaisy/src/sys/system.h ****     /** Describes the different regions of memory available to the Daisy */
  62:../DaisyExamples/libDaisy/src/sys/system.h ****     enum MemoryRegion
  63:../DaisyExamples/libDaisy/src/sys/system.h ****     {
  64:../DaisyExamples/libDaisy/src/sys/system.h ****         INTERNAL_FLASH = 0,
  65:../DaisyExamples/libDaisy/src/sys/system.h ****         ITCMRAM,
  66:../DaisyExamples/libDaisy/src/sys/system.h ****         DTCMRAM,
  67:../DaisyExamples/libDaisy/src/sys/system.h ****         SRAM_D1,
  68:../DaisyExamples/libDaisy/src/sys/system.h ****         SRAM_D2,
  69:../DaisyExamples/libDaisy/src/sys/system.h ****         SRAM_D3,
  70:../DaisyExamples/libDaisy/src/sys/system.h ****         SDRAM,
  71:../DaisyExamples/libDaisy/src/sys/system.h ****         QSPI,
  72:../DaisyExamples/libDaisy/src/sys/system.h ****         INVALID_ADDRESS,
  73:../DaisyExamples/libDaisy/src/sys/system.h ****     };
  74:../DaisyExamples/libDaisy/src/sys/system.h **** 
  75:../DaisyExamples/libDaisy/src/sys/system.h ****     /** Bootloader struct for controlling bootloading parameters */
  76:../DaisyExamples/libDaisy/src/sys/system.h ****     struct BootInfo
  77:../DaisyExamples/libDaisy/src/sys/system.h ****     {
  78:../DaisyExamples/libDaisy/src/sys/system.h ****         enum class Type : uint32_t
  79:../DaisyExamples/libDaisy/src/sys/system.h ****         {
  80:../DaisyExamples/libDaisy/src/sys/system.h ****             INVALID      = 0x00000000,
  81:../DaisyExamples/libDaisy/src/sys/system.h ****             JUMP         = 0xDEADBEEF,
  82:../DaisyExamples/libDaisy/src/sys/system.h ****             SKIP_TIMEOUT = 0x5AFEB007,
  83:../DaisyExamples/libDaisy/src/sys/system.h ****             INF_TIMEOUT  = 0xB0074EFA,
  84:../DaisyExamples/libDaisy/src/sys/system.h ****         } status;
  85:../DaisyExamples/libDaisy/src/sys/system.h ****         uint32_t data;
  86:../DaisyExamples/libDaisy/src/sys/system.h ****         enum class Version : uint32_t
  87:../DaisyExamples/libDaisy/src/sys/system.h ****         {
  88:../DaisyExamples/libDaisy/src/sys/system.h ****             LT_v6_0 = 0, // Less than v6.0
  89:../DaisyExamples/libDaisy/src/sys/system.h ****             NONE,        // No bootloader present
  90:../DaisyExamples/libDaisy/src/sys/system.h ****             v6_0,        // v6.0
  91:../DaisyExamples/libDaisy/src/sys/system.h ****             v6_1,        // v6.1 or greater
  92:../DaisyExamples/libDaisy/src/sys/system.h ****             LAST
  93:../DaisyExamples/libDaisy/src/sys/system.h ****         } version;
  94:../DaisyExamples/libDaisy/src/sys/system.h ****     };
  95:../DaisyExamples/libDaisy/src/sys/system.h **** 
  96:../DaisyExamples/libDaisy/src/sys/system.h ****     System() {}
  97:../DaisyExamples/libDaisy/src/sys/system.h ****     ~System() {}
 110              		.loc 5 97 5 view .LVU7
 111              		.loc 5 97 5 is_stmt 0 view .LVU8
 112              	.LBE217:
 113              	.LBB218:
 114              	.LBI218:
 115              		.file 6 "../DaisyExamples/libDaisy/src/hid/usb.h"
   1:../DaisyExamples/libDaisy/src/hid/usb.h **** #pragma once
   2:../DaisyExamples/libDaisy/src/hid/usb.h **** #ifndef DSY_HID_USB_H
   3:../DaisyExamples/libDaisy/src/hid/usb.h **** #define DSY_HID_USB_H
   4:../DaisyExamples/libDaisy/src/hid/usb.h **** #include <stdint.h>
   5:../DaisyExamples/libDaisy/src/hid/usb.h **** #include <stdlib.h>
   6:../DaisyExamples/libDaisy/src/hid/usb.h **** 
ARM GAS  /var/folders/7c/668hyr3s7rlgsbdftclf3hsr0000gn/T//cctzORKV.s 			page 7


   7:../DaisyExamples/libDaisy/src/hid/usb.h **** namespace daisy
   8:../DaisyExamples/libDaisy/src/hid/usb.h **** /** @addtogroup human_interface
   9:../DaisyExamples/libDaisy/src/hid/usb.h ****     @{
  10:../DaisyExamples/libDaisy/src/hid/usb.h **** */
  11:../DaisyExamples/libDaisy/src/hid/usb.h **** 
  12:../DaisyExamples/libDaisy/src/hid/usb.h **** {
  13:../DaisyExamples/libDaisy/src/hid/usb.h **** /** 
  14:../DaisyExamples/libDaisy/src/hid/usb.h ****     @brief Interface for initializing and using the USB Peripherals on the daisy
  15:../DaisyExamples/libDaisy/src/hid/usb.h ****     @author Stephen Hensley
  16:../DaisyExamples/libDaisy/src/hid/usb.h ****     @date December 2019
  17:../DaisyExamples/libDaisy/src/hid/usb.h **** */
  18:../DaisyExamples/libDaisy/src/hid/usb.h **** class UsbHandle
  19:../DaisyExamples/libDaisy/src/hid/usb.h **** {
  20:../DaisyExamples/libDaisy/src/hid/usb.h ****   public:
  21:../DaisyExamples/libDaisy/src/hid/usb.h ****     /** Return values for USBHandle Functions */
  22:../DaisyExamples/libDaisy/src/hid/usb.h ****     enum class Result
  23:../DaisyExamples/libDaisy/src/hid/usb.h ****     {
  24:../DaisyExamples/libDaisy/src/hid/usb.h ****         OK,
  25:../DaisyExamples/libDaisy/src/hid/usb.h ****         ERR,
  26:../DaisyExamples/libDaisy/src/hid/usb.h ****     };
  27:../DaisyExamples/libDaisy/src/hid/usb.h **** 
  28:../DaisyExamples/libDaisy/src/hid/usb.h ****     /** Specified which of the two USB Peripherals to initialize. */
  29:../DaisyExamples/libDaisy/src/hid/usb.h ****     enum UsbPeriph
  30:../DaisyExamples/libDaisy/src/hid/usb.h ****     {
  31:../DaisyExamples/libDaisy/src/hid/usb.h ****         FS_INTERNAL, /**< Internal pin */
  32:../DaisyExamples/libDaisy/src/hid/usb.h ****         FS_EXTERNAL, /**< FS External D+ pin is Pin 38 (GPIO32). FS External D- pin is Pin 37 (GPIO
  33:../DaisyExamples/libDaisy/src/hid/usb.h ****         FS_BOTH,     /**< Both */
  34:../DaisyExamples/libDaisy/src/hid/usb.h ****     };
  35:../DaisyExamples/libDaisy/src/hid/usb.h **** 
  36:../DaisyExamples/libDaisy/src/hid/usb.h **** 
  37:../DaisyExamples/libDaisy/src/hid/usb.h ****     /** Function called upon reception of a buffer */
  38:../DaisyExamples/libDaisy/src/hid/usb.h ****     typedef void (*ReceiveCallback)(uint8_t* buff, uint32_t* len);
  39:../DaisyExamples/libDaisy/src/hid/usb.h **** 
  40:../DaisyExamples/libDaisy/src/hid/usb.h ****     UsbHandle() {}
  41:../DaisyExamples/libDaisy/src/hid/usb.h **** 
  42:../DaisyExamples/libDaisy/src/hid/usb.h ****     ~UsbHandle() {}
 116              		.loc 6 42 5 is_stmt 1 view .LVU9
 117              		.loc 6 42 5 is_stmt 0 view .LVU10
 118              	.LBE218:
 119              	.LBB219:
 120              	.LBI219:
 121              		.file 7 "../DaisyExamples/libDaisy/src/per/adc.h"
   1:../DaisyExamples/libDaisy/src/per/adc.h **** #pragma once
   2:../DaisyExamples/libDaisy/src/per/adc.h **** #ifndef DSY_ADC_H
   3:../DaisyExamples/libDaisy/src/per/adc.h **** #define DSY_ADC_H /**< Macro */
   4:../DaisyExamples/libDaisy/src/per/adc.h **** #include <stdint.h>
   5:../DaisyExamples/libDaisy/src/per/adc.h **** #include <stdlib.h>
   6:../DaisyExamples/libDaisy/src/per/adc.h **** #include "daisy_core.h"
   7:../DaisyExamples/libDaisy/src/per/adc.h **** #include "per/gpio.h"
   8:../DaisyExamples/libDaisy/src/per/adc.h **** 
   9:../DaisyExamples/libDaisy/src/per/adc.h **** #define DSY_ADC_MAX_CHANNELS 16 /**< Maximum number of ADC channels */
  10:../DaisyExamples/libDaisy/src/per/adc.h **** 
  11:../DaisyExamples/libDaisy/src/per/adc.h **** namespace daisy
  12:../DaisyExamples/libDaisy/src/per/adc.h **** {
  13:../DaisyExamples/libDaisy/src/per/adc.h **** /** @addtogroup per_analog
  14:../DaisyExamples/libDaisy/src/per/adc.h ****     @{
  15:../DaisyExamples/libDaisy/src/per/adc.h **** */
ARM GAS  /var/folders/7c/668hyr3s7rlgsbdftclf3hsr0000gn/T//cctzORKV.s 			page 8


  16:../DaisyExamples/libDaisy/src/per/adc.h **** 
  17:../DaisyExamples/libDaisy/src/per/adc.h **** /* While there may not be many configuration options here,
  18:../DaisyExamples/libDaisy/src/per/adc.h **** using a struct like this allows us to add more configuration
  19:../DaisyExamples/libDaisy/src/per/adc.h **** later without breaking existing functionality.
  20:../DaisyExamples/libDaisy/src/per/adc.h **** */
  21:../DaisyExamples/libDaisy/src/per/adc.h **** 
  22:../DaisyExamples/libDaisy/src/per/adc.h **** /** @brief   Configuration Structure for an ADC Channel 
  23:../DaisyExamples/libDaisy/src/per/adc.h ****  *  @details This can be used to configure a a single input, 
  24:../DaisyExamples/libDaisy/src/per/adc.h ****  *           or a multiplexed input, allowing up to 8 inputs on 
  25:../DaisyExamples/libDaisy/src/per/adc.h ****  *           one channel.
  26:../DaisyExamples/libDaisy/src/per/adc.h ****  *  @note    Sharing data lines to multiple muxes _is_ possible, but
  27:../DaisyExamples/libDaisy/src/per/adc.h ****  *           each channel sharing data lines must be set to the maximum
  28:../DaisyExamples/libDaisy/src/per/adc.h ****  *           number of channels, even if some multiplexers have fewer
  29:../DaisyExamples/libDaisy/src/per/adc.h ****  *           inputs connected.
  30:../DaisyExamples/libDaisy/src/per/adc.h **** */
  31:../DaisyExamples/libDaisy/src/per/adc.h **** struct AdcChannelConfig
  32:../DaisyExamples/libDaisy/src/per/adc.h **** {
  33:../DaisyExamples/libDaisy/src/per/adc.h ****     /** Which pin to use for multiplexing */
  34:../DaisyExamples/libDaisy/src/per/adc.h ****     enum MuxPin
  35:../DaisyExamples/libDaisy/src/per/adc.h ****     {
  36:../DaisyExamples/libDaisy/src/per/adc.h ****         MUX_SEL_0,    /**< & */
  37:../DaisyExamples/libDaisy/src/per/adc.h ****         MUX_SEL_1,    /**< & */
  38:../DaisyExamples/libDaisy/src/per/adc.h ****         MUX_SEL_2,    /**< & */
  39:../DaisyExamples/libDaisy/src/per/adc.h ****         MUX_SEL_LAST, /**< & */
  40:../DaisyExamples/libDaisy/src/per/adc.h ****     };
  41:../DaisyExamples/libDaisy/src/per/adc.h **** 
  42:../DaisyExamples/libDaisy/src/per/adc.h ****     /** \brief per channel conversion speed added to fixed time based on bitdepth, etc. */
  43:../DaisyExamples/libDaisy/src/per/adc.h ****     enum ConversionSpeed
  44:../DaisyExamples/libDaisy/src/per/adc.h ****     {
  45:../DaisyExamples/libDaisy/src/per/adc.h ****         SPEED_1CYCLES_5,
  46:../DaisyExamples/libDaisy/src/per/adc.h ****         SPEED_2CYCLES_5,
  47:../DaisyExamples/libDaisy/src/per/adc.h ****         SPEED_8CYCLES_5,
  48:../DaisyExamples/libDaisy/src/per/adc.h ****         SPEED_16CYCLES_5,
  49:../DaisyExamples/libDaisy/src/per/adc.h ****         SPEED_32CYCLES_5,
  50:../DaisyExamples/libDaisy/src/per/adc.h ****         SPEED_64CYCLES_5,
  51:../DaisyExamples/libDaisy/src/per/adc.h ****         SPEED_387CYCLES_5,
  52:../DaisyExamples/libDaisy/src/per/adc.h ****         SPEED_810CYCLES_5,
  53:../DaisyExamples/libDaisy/src/per/adc.h ****     };
  54:../DaisyExamples/libDaisy/src/per/adc.h **** 
  55:../DaisyExamples/libDaisy/src/per/adc.h ****     /** Initializes a single ADC pin as an ADC. 
  56:../DaisyExamples/libDaisy/src/per/adc.h ****     \param pin Pin to init.
  57:../DaisyExamples/libDaisy/src/per/adc.h ****     \param speed conversion speed for this pin defaults to 8.5 cycles
  58:../DaisyExamples/libDaisy/src/per/adc.h ****      */
  59:../DaisyExamples/libDaisy/src/per/adc.h ****     void InitSingle(dsy_gpio_pin pin, ConversionSpeed speed = SPEED_8CYCLES_5);
  60:../DaisyExamples/libDaisy/src/per/adc.h **** 
  61:../DaisyExamples/libDaisy/src/per/adc.h ****     /** 
  62:../DaisyExamples/libDaisy/src/per/adc.h ****     Initializes a single ADC pin as a Multiplexed ADC.
  63:../DaisyExamples/libDaisy/src/per/adc.h ****     Requires a CD405X Multiplexer connected to the pin.
  64:../DaisyExamples/libDaisy/src/per/adc.h ****     You only need to supply the mux pins that are required,
  65:../DaisyExamples/libDaisy/src/per/adc.h ****     e.g. a 4052 mux would only require mux_0 and mux_1.
  66:../DaisyExamples/libDaisy/src/per/adc.h ****     Internal Callbacks handle the pin addressing.
  67:../DaisyExamples/libDaisy/src/per/adc.h ****     \param adc_pin &
  68:../DaisyExamples/libDaisy/src/per/adc.h ****     \param mux_channels must be 1-8
  69:../DaisyExamples/libDaisy/src/per/adc.h ****     \param mux_0 First mux pin
  70:../DaisyExamples/libDaisy/src/per/adc.h ****     \param mux_1 Second mux pin
  71:../DaisyExamples/libDaisy/src/per/adc.h ****     \param mux_2 Third mux pin
  72:../DaisyExamples/libDaisy/src/per/adc.h ****     \param speed conversion speed for this pin defaults to 8.5 cycles
ARM GAS  /var/folders/7c/668hyr3s7rlgsbdftclf3hsr0000gn/T//cctzORKV.s 			page 9


  73:../DaisyExamples/libDaisy/src/per/adc.h ****     */
  74:../DaisyExamples/libDaisy/src/per/adc.h ****     void InitMux(dsy_gpio_pin    adc_pin,
  75:../DaisyExamples/libDaisy/src/per/adc.h ****                  size_t          mux_channels,
  76:../DaisyExamples/libDaisy/src/per/adc.h ****                  dsy_gpio_pin    mux_0,
  77:../DaisyExamples/libDaisy/src/per/adc.h ****                  dsy_gpio_pin    mux_1 = {DSY_GPIOX, 0},
  78:../DaisyExamples/libDaisy/src/per/adc.h ****                  dsy_gpio_pin    mux_2 = {DSY_GPIOX, 0},
  79:../DaisyExamples/libDaisy/src/per/adc.h ****                  ConversionSpeed speed = SPEED_8CYCLES_5);
  80:../DaisyExamples/libDaisy/src/per/adc.h **** 
  81:../DaisyExamples/libDaisy/src/per/adc.h ****     dsy_gpio        pin_;                   /**< & */
  82:../DaisyExamples/libDaisy/src/per/adc.h ****     dsy_gpio        mux_pin_[MUX_SEL_LAST]; /**< & */
  83:../DaisyExamples/libDaisy/src/per/adc.h ****     uint8_t         mux_channels_;          /**< & */
  84:../DaisyExamples/libDaisy/src/per/adc.h ****     ConversionSpeed speed_;
  85:../DaisyExamples/libDaisy/src/per/adc.h **** };
  86:../DaisyExamples/libDaisy/src/per/adc.h **** 
  87:../DaisyExamples/libDaisy/src/per/adc.h **** /**
  88:../DaisyExamples/libDaisy/src/per/adc.h ****    @brief Handler for analog to digital conversion
  89:../DaisyExamples/libDaisy/src/per/adc.h **** */
  90:../DaisyExamples/libDaisy/src/per/adc.h **** class AdcHandle
  91:../DaisyExamples/libDaisy/src/per/adc.h **** {
  92:../DaisyExamples/libDaisy/src/per/adc.h ****   public:
  93:../DaisyExamples/libDaisy/src/per/adc.h ****     /** Supported oversampling amounts */
  94:../DaisyExamples/libDaisy/src/per/adc.h ****     enum OverSampling
  95:../DaisyExamples/libDaisy/src/per/adc.h ****     {
  96:../DaisyExamples/libDaisy/src/per/adc.h ****         OVS_NONE, /**< & */
  97:../DaisyExamples/libDaisy/src/per/adc.h ****         OVS_4,    /**< & */
  98:../DaisyExamples/libDaisy/src/per/adc.h ****         OVS_8,    /**< & */
  99:../DaisyExamples/libDaisy/src/per/adc.h ****         OVS_16,   /**< & */
 100:../DaisyExamples/libDaisy/src/per/adc.h ****         OVS_32,   /**< & */
 101:../DaisyExamples/libDaisy/src/per/adc.h ****         OVS_64,   /**< & */
 102:../DaisyExamples/libDaisy/src/per/adc.h ****         OVS_128,  /**< & */
 103:../DaisyExamples/libDaisy/src/per/adc.h ****         OVS_256,  /**< & */
 104:../DaisyExamples/libDaisy/src/per/adc.h ****         OVS_512,  /**< & */
 105:../DaisyExamples/libDaisy/src/per/adc.h ****         OVS_1024, /**< & */
 106:../DaisyExamples/libDaisy/src/per/adc.h ****         OVS_LAST, /**< & */
 107:../DaisyExamples/libDaisy/src/per/adc.h ****     };
 108:../DaisyExamples/libDaisy/src/per/adc.h **** 
 109:../DaisyExamples/libDaisy/src/per/adc.h ****     AdcHandle() {}
 110:../DaisyExamples/libDaisy/src/per/adc.h ****     ~AdcHandle() {}
 122              		.loc 7 110 5 is_stmt 1 view .LVU11
 123              		.loc 7 110 5 is_stmt 0 view .LVU12
 124              	.LBE219:
 125              	.LBB220:
 126              	.LBI220:
 127              		.file 8 "../DaisyExamples/libDaisy/src/hid/audio.h"
   1:../DaisyExamples/libDaisy/src/hid/audio.h **** #ifndef DSY_AUDIO_H
   2:../DaisyExamples/libDaisy/src/hid/audio.h **** #define DSY_AUDIO_H /**< & */
   3:../DaisyExamples/libDaisy/src/hid/audio.h **** 
   4:../DaisyExamples/libDaisy/src/hid/audio.h **** #include "per/sai.h"
   5:../DaisyExamples/libDaisy/src/hid/audio.h **** 
   6:../DaisyExamples/libDaisy/src/hid/audio.h **** namespace daisy
   7:../DaisyExamples/libDaisy/src/hid/audio.h **** {
   8:../DaisyExamples/libDaisy/src/hid/audio.h **** /** @brief Audio Engine Handle
   9:../DaisyExamples/libDaisy/src/hid/audio.h ****  *  @ingroup audio 
  10:../DaisyExamples/libDaisy/src/hid/audio.h ****  *  @details This class allows for higher level access to an audio engine.
  11:../DaisyExamples/libDaisy/src/hid/audio.h ****  *           If you're using a SOM like the DaisySeed or DaisyPatchSM (or any 
  12:../DaisyExamples/libDaisy/src/hid/audio.h ****  *            board that includes one of those objects) then the intialization
  13:../DaisyExamples/libDaisy/src/hid/audio.h ****  *            is already taken  care of.
ARM GAS  /var/folders/7c/668hyr3s7rlgsbdftclf3hsr0000gn/T//cctzORKV.s 			page 10


  14:../DaisyExamples/libDaisy/src/hid/audio.h ****  *           If you're setting up your own custom hardware, or need to make changes
  15:../DaisyExamples/libDaisy/src/hid/audio.h ****  *           you will have to take the following steps:
  16:../DaisyExamples/libDaisy/src/hid/audio.h ****  *             1. Create and Initialize an SaiHandle or two depending on your requirements
  17:../DaisyExamples/libDaisy/src/hid/audio.h ****  *             2. Initialize the Audio Handle with the desired settings and the Initialized SaiHand
  18:../DaisyExamples/libDaisy/src/hid/audio.h ****  *             3. If the connected codec requires special configuration or initialization, do so
  19:../DaisyExamples/libDaisy/src/hid/audio.h ****  *             4. Write a callback method using either the AudioCallback or the InterleavingAudioCa
  20:../DaisyExamples/libDaisy/src/hid/audio.h ****  *             5. Start the Audio using one of the StartAudio function
  21:../DaisyExamples/libDaisy/src/hid/audio.h ****  */
  22:../DaisyExamples/libDaisy/src/hid/audio.h **** class AudioHandle
  23:../DaisyExamples/libDaisy/src/hid/audio.h **** {
  24:../DaisyExamples/libDaisy/src/hid/audio.h ****   public:
  25:../DaisyExamples/libDaisy/src/hid/audio.h ****     /** Manually configurable details about the Audio Engine */
  26:../DaisyExamples/libDaisy/src/hid/audio.h ****     /** TODO: Figure out how to get samplerate in here. */
  27:../DaisyExamples/libDaisy/src/hid/audio.h ****     struct Config
  28:../DaisyExamples/libDaisy/src/hid/audio.h ****     {
  29:../DaisyExamples/libDaisy/src/hid/audio.h ****         /** number of samples to process per callback */
  30:../DaisyExamples/libDaisy/src/hid/audio.h ****         size_t blocksize;
  31:../DaisyExamples/libDaisy/src/hid/audio.h **** 
  32:../DaisyExamples/libDaisy/src/hid/audio.h ****         /**< Sample rate of audio */
  33:../DaisyExamples/libDaisy/src/hid/audio.h ****         SaiHandle::Config::SampleRate samplerate;
  34:../DaisyExamples/libDaisy/src/hid/audio.h **** 
  35:../DaisyExamples/libDaisy/src/hid/audio.h ****         /** factor for adjustment before and after callback for hardware that may have extra headro
  36:../DaisyExamples/libDaisy/src/hid/audio.h ****         float postgain;
  37:../DaisyExamples/libDaisy/src/hid/audio.h **** 
  38:../DaisyExamples/libDaisy/src/hid/audio.h ****         /** factor for additional one-sided compensation to audio path for hardware that may
  39:../DaisyExamples/libDaisy/src/hid/audio.h ****          *  have unequal input/output ranges
  40:../DaisyExamples/libDaisy/src/hid/audio.h ****          */
  41:../DaisyExamples/libDaisy/src/hid/audio.h ****         float output_compensation;
  42:../DaisyExamples/libDaisy/src/hid/audio.h **** 
  43:../DaisyExamples/libDaisy/src/hid/audio.h ****         /** Sets default values for config struct */
  44:../DaisyExamples/libDaisy/src/hid/audio.h ****         Config()
  45:../DaisyExamples/libDaisy/src/hid/audio.h ****         : blocksize(48),
  46:../DaisyExamples/libDaisy/src/hid/audio.h ****           samplerate(SaiHandle::Config::SampleRate::SAI_48KHZ),
  47:../DaisyExamples/libDaisy/src/hid/audio.h ****           postgain(1.f),
  48:../DaisyExamples/libDaisy/src/hid/audio.h ****           output_compensation(1.f)
  49:../DaisyExamples/libDaisy/src/hid/audio.h ****         {
  50:../DaisyExamples/libDaisy/src/hid/audio.h ****         }
  51:../DaisyExamples/libDaisy/src/hid/audio.h ****     };
  52:../DaisyExamples/libDaisy/src/hid/audio.h **** 
  53:../DaisyExamples/libDaisy/src/hid/audio.h ****     enum class Result
  54:../DaisyExamples/libDaisy/src/hid/audio.h ****     {
  55:../DaisyExamples/libDaisy/src/hid/audio.h ****         OK,
  56:../DaisyExamples/libDaisy/src/hid/audio.h ****         ERR,
  57:../DaisyExamples/libDaisy/src/hid/audio.h ****     };
  58:../DaisyExamples/libDaisy/src/hid/audio.h **** 
  59:../DaisyExamples/libDaisy/src/hid/audio.h ****     /** Non-Interleaving input buffer
  60:../DaisyExamples/libDaisy/src/hid/audio.h ****      * Buffer arranged by float[chn][sample] 
  61:../DaisyExamples/libDaisy/src/hid/audio.h ****      * const so that the user can't modify the input
  62:../DaisyExamples/libDaisy/src/hid/audio.h ****      */
  63:../DaisyExamples/libDaisy/src/hid/audio.h ****     typedef const float* const* InputBuffer;
  64:../DaisyExamples/libDaisy/src/hid/audio.h **** 
  65:../DaisyExamples/libDaisy/src/hid/audio.h ****     /** Non-Interleaving output buffer
  66:../DaisyExamples/libDaisy/src/hid/audio.h ****      * Arranged by float[chn][sample] 
  67:../DaisyExamples/libDaisy/src/hid/audio.h ****      */
  68:../DaisyExamples/libDaisy/src/hid/audio.h ****     typedef float** OutputBuffer;
  69:../DaisyExamples/libDaisy/src/hid/audio.h **** 
  70:../DaisyExamples/libDaisy/src/hid/audio.h ****     /** Type for a Non-Interleaving audio callback 
ARM GAS  /var/folders/7c/668hyr3s7rlgsbdftclf3hsr0000gn/T//cctzORKV.s 			page 11


  71:../DaisyExamples/libDaisy/src/hid/audio.h ****      * Non-Interleaving audio callbacks in daisy will be of this type
  72:../DaisyExamples/libDaisy/src/hid/audio.h ****      */
  73:../DaisyExamples/libDaisy/src/hid/audio.h ****     typedef void (*AudioCallback)(InputBuffer  in,
  74:../DaisyExamples/libDaisy/src/hid/audio.h ****                                   OutputBuffer out,
  75:../DaisyExamples/libDaisy/src/hid/audio.h ****                                   size_t       size);
  76:../DaisyExamples/libDaisy/src/hid/audio.h **** 
  77:../DaisyExamples/libDaisy/src/hid/audio.h ****     /** Interleaving Input buffer
  78:../DaisyExamples/libDaisy/src/hid/audio.h ****      ** audio is prepared as { L0, R0, L1, R1, . . . LN, RN }]
  79:../DaisyExamples/libDaisy/src/hid/audio.h ****      ** this is const, as the user shouldn't modify it
  80:../DaisyExamples/libDaisy/src/hid/audio.h ****     */
  81:../DaisyExamples/libDaisy/src/hid/audio.h ****     typedef const float* InterleavingInputBuffer;
  82:../DaisyExamples/libDaisy/src/hid/audio.h **** 
  83:../DaisyExamples/libDaisy/src/hid/audio.h ****     /** Interleaving Output buffer 
  84:../DaisyExamples/libDaisy/src/hid/audio.h ****      ** audio is prepared as { L0, R0, L1, R1, . . . LN, RN }
  85:../DaisyExamples/libDaisy/src/hid/audio.h ****     */
  86:../DaisyExamples/libDaisy/src/hid/audio.h ****     typedef float* InterleavingOutputBuffer;
  87:../DaisyExamples/libDaisy/src/hid/audio.h **** 
  88:../DaisyExamples/libDaisy/src/hid/audio.h ****     /** Interleaving Audio Callback 
  89:../DaisyExamples/libDaisy/src/hid/audio.h ****      * Interleaving audio callbacks in daisy must be of this type
  90:../DaisyExamples/libDaisy/src/hid/audio.h ****      */
  91:../DaisyExamples/libDaisy/src/hid/audio.h ****     typedef void (*InterleavingAudioCallback)(InterleavingInputBuffer  in,
  92:../DaisyExamples/libDaisy/src/hid/audio.h ****                                               InterleavingOutputBuffer out,
  93:../DaisyExamples/libDaisy/src/hid/audio.h ****                                               size_t                   size);
  94:../DaisyExamples/libDaisy/src/hid/audio.h **** 
  95:../DaisyExamples/libDaisy/src/hid/audio.h ****     AudioHandle() : pimpl_(nullptr) {}
  96:../DaisyExamples/libDaisy/src/hid/audio.h ****     ~AudioHandle() {}
 128              		.loc 8 96 5 is_stmt 1 view .LVU13
 129              		.loc 8 96 5 is_stmt 0 view .LVU14
 130              	.LBE220:
 131              		.loc 4 22 19 view .LVU15
 132 0000 7047     		bx	lr
 133              		.cfi_endproc
 134              	.LFE4677:
 136              		.weak	_ZN5daisy9DaisySeedD1Ev
 137              		.thumb_set _ZN5daisy9DaisySeedD1Ev,_ZN5daisy9DaisySeedD2Ev
 138 0002 00BF     		.section	.text._Z11NextSamplesRf,"ax",%progbits
 139              		.align	1
 140              		.p2align 2,,3
 141              		.global	_Z11NextSamplesRf
 142              		.syntax unified
 143              		.thumb
 144              		.thumb_func
 146              	_Z11NextSamplesRf:
 147              	.LVL4:
 148              	.LFB4682:
 149              		.file 9 "keys.cpp"
   1:keys.cpp      **** #include "daisysp.h"
   2:keys.cpp      **** #include "daisy_seed.h"
   3:keys.cpp      **** 
   4:keys.cpp      **** using namespace daisysp;
   5:keys.cpp      **** using namespace daisy;
   6:keys.cpp      **** // Use the daisy namespace to prevent having to type
   7:keys.cpp      **** // daisy:: before all libdaisy functions
   8:keys.cpp      **** // Declare a DaisySeed object called hardware
   9:keys.cpp      **** 
  10:keys.cpp      **** static DaisySeed hw;
  11:keys.cpp      **** static Oscillator osc;
ARM GAS  /var/folders/7c/668hyr3s7rlgsbdftclf3hsr0000gn/T//cctzORKV.s 			page 12


  12:keys.cpp      **** static AdEnv      ad;
  13:keys.cpp      **** 
  14:keys.cpp      **** int   wave, mode, octave;
  15:keys.cpp      **** float vibrato, oscFreq;
  16:keys.cpp      **** 
  17:keys.cpp      **** // int octave;
  18:keys.cpp      **** 
  19:keys.cpp      **** Switch octave_up, octave_down;
  20:keys.cpp      **** 
  21:keys.cpp      **** Switch C;
  22:keys.cpp      **** Switch CS;
  23:keys.cpp      **** Switch D;
  24:keys.cpp      **** Switch DS;
  25:keys.cpp      **** Switch E;
  26:keys.cpp      **** Switch F;
  27:keys.cpp      **** Switch FS;
  28:keys.cpp      **** Switch G;
  29:keys.cpp      **** Switch GS;
  30:keys.cpp      **** Switch A;
  31:keys.cpp      **** Switch AS;
  32:keys.cpp      **** Switch B;
  33:keys.cpp      **** Switch C2;
  34:keys.cpp      **** 
  35:keys.cpp      **** void Controls();
  36:keys.cpp      **** 
  37:keys.cpp      **** void NextSamples(float &sig)
  38:keys.cpp      **** {
 150              		.loc 9 38 1 is_stmt 1 view -0
 151              		.cfi_startproc
 152              		@ args = 0, pretend = 0, frame = 0
 153              		@ frame_needed = 0, uses_anonymous_args = 0
  39:keys.cpp      ****     float ad_out = ad.Process();
 154              		.loc 9 39 5 view .LVU17
  38:keys.cpp      ****     float ad_out = ad.Process();
 155              		.loc 9 38 1 is_stmt 0 view .LVU18
 156 0000 38B5     		push	{r3, r4, r5, lr}
 157              		.cfi_def_cfa_offset 16
 158              		.cfi_offset 3, -16
 159              		.cfi_offset 4, -12
 160              		.cfi_offset 5, -8
 161              		.cfi_offset 14, -4
 162 0002 0546     		mov	r5, r0
 163              		.loc 9 39 30 view .LVU19
 164 0004 0E48     		ldr	r0, .L8
 165              	.LVL5:
 166              	.LBB223:
 167              	.LBB224:
  25:../DaisyExamples/DaisySP/Source/Synthesis/oscillator.h ****     /** Choices for output waveforms, POLYBLEP are appropriately labeled. Others are naive forms.
  26:../DaisyExamples/DaisySP/Source/Synthesis/oscillator.h ****     */
  27:../DaisyExamples/DaisySP/Source/Synthesis/oscillator.h ****     enum
  28:../DaisyExamples/DaisySP/Source/Synthesis/oscillator.h ****     {
  29:../DaisyExamples/DaisySP/Source/Synthesis/oscillator.h ****         WAVE_SIN,
  30:../DaisyExamples/DaisySP/Source/Synthesis/oscillator.h ****         WAVE_TRI,
  31:../DaisyExamples/DaisySP/Source/Synthesis/oscillator.h ****         WAVE_SAW,
  32:../DaisyExamples/DaisySP/Source/Synthesis/oscillator.h ****         WAVE_RAMP,
  33:../DaisyExamples/DaisySP/Source/Synthesis/oscillator.h ****         WAVE_SQUARE,
  34:../DaisyExamples/DaisySP/Source/Synthesis/oscillator.h ****         WAVE_POLYBLEP_TRI,
ARM GAS  /var/folders/7c/668hyr3s7rlgsbdftclf3hsr0000gn/T//cctzORKV.s 			page 13


  35:../DaisyExamples/DaisySP/Source/Synthesis/oscillator.h ****         WAVE_POLYBLEP_SAW,
  36:../DaisyExamples/DaisySP/Source/Synthesis/oscillator.h ****         WAVE_POLYBLEP_SQUARE,
  37:../DaisyExamples/DaisySP/Source/Synthesis/oscillator.h ****         WAVE_LAST,
  38:../DaisyExamples/DaisySP/Source/Synthesis/oscillator.h ****     };
  39:../DaisyExamples/DaisySP/Source/Synthesis/oscillator.h **** 
  40:../DaisyExamples/DaisySP/Source/Synthesis/oscillator.h **** 
  41:../DaisyExamples/DaisySP/Source/Synthesis/oscillator.h ****     /** Initializes the Oscillator
  42:../DaisyExamples/DaisySP/Source/Synthesis/oscillator.h **** 
  43:../DaisyExamples/DaisySP/Source/Synthesis/oscillator.h ****         \param sample_rate - sample rate of the audio engine being run, and the frequency that the 
  44:../DaisyExamples/DaisySP/Source/Synthesis/oscillator.h **** 
  45:../DaisyExamples/DaisySP/Source/Synthesis/oscillator.h ****         Defaults:
  46:../DaisyExamples/DaisySP/Source/Synthesis/oscillator.h ****         - freq_ = 100 Hz
  47:../DaisyExamples/DaisySP/Source/Synthesis/oscillator.h ****         - amp_ = 0.5
  48:../DaisyExamples/DaisySP/Source/Synthesis/oscillator.h ****         - waveform_ = sine wave.
  49:../DaisyExamples/DaisySP/Source/Synthesis/oscillator.h ****     */
  50:../DaisyExamples/DaisySP/Source/Synthesis/oscillator.h ****     void Init(float sample_rate)
  51:../DaisyExamples/DaisySP/Source/Synthesis/oscillator.h ****     {
  52:../DaisyExamples/DaisySP/Source/Synthesis/oscillator.h ****         sr_        = sample_rate;
  53:../DaisyExamples/DaisySP/Source/Synthesis/oscillator.h ****         sr_recip_  = 1.0f / sample_rate;
  54:../DaisyExamples/DaisySP/Source/Synthesis/oscillator.h ****         freq_      = 100.0f;
  55:../DaisyExamples/DaisySP/Source/Synthesis/oscillator.h ****         amp_       = 0.5f;
  56:../DaisyExamples/DaisySP/Source/Synthesis/oscillator.h ****         pw_        = 0.5f;
  57:../DaisyExamples/DaisySP/Source/Synthesis/oscillator.h ****         phase_     = 0.0f;
  58:../DaisyExamples/DaisySP/Source/Synthesis/oscillator.h ****         phase_inc_ = CalcPhaseInc(freq_);
  59:../DaisyExamples/DaisySP/Source/Synthesis/oscillator.h ****         waveform_  = WAVE_SIN;
  60:../DaisyExamples/DaisySP/Source/Synthesis/oscillator.h ****         eoc_       = true;
  61:../DaisyExamples/DaisySP/Source/Synthesis/oscillator.h ****         eor_       = true;
  62:../DaisyExamples/DaisySP/Source/Synthesis/oscillator.h ****     }
  63:../DaisyExamples/DaisySP/Source/Synthesis/oscillator.h **** 
  64:../DaisyExamples/DaisySP/Source/Synthesis/oscillator.h **** 
  65:../DaisyExamples/DaisySP/Source/Synthesis/oscillator.h ****     /** Changes the frequency of the Oscillator, and recalculates phase increment.
  66:../DaisyExamples/DaisySP/Source/Synthesis/oscillator.h ****     */
  67:../DaisyExamples/DaisySP/Source/Synthesis/oscillator.h ****     inline void SetFreq(const float f)
  68:../DaisyExamples/DaisySP/Source/Synthesis/oscillator.h ****     {
  69:../DaisyExamples/DaisySP/Source/Synthesis/oscillator.h ****         freq_      = f;
 168              		.loc 2 69 20 view .LVU20
 169 0006 0F4C     		ldr	r4, .L8+4
 170              	.LBE224:
 171              	.LBE223:
  38:keys.cpp      ****     float ad_out = ad.Process();
 172              		.loc 9 38 1 view .LVU21
 173 0008 2DED028B 		vpush.64	{d8}
 174              		.cfi_def_cfa_offset 24
 175              		.cfi_offset 80, -24
 176              		.cfi_offset 81, -20
 177              		.loc 9 39 30 view .LVU22
 178 000c FFF7FEFF 		bl	_ZN7daisysp5AdEnv7ProcessEv
 179              	.LVL6:
  40:keys.cpp      ****     // vibrato      = lfo.Process();
  41:keys.cpp      **** 
  42:keys.cpp      ****     // osc.SetFreq(oscFreq + vibrato);
  43:keys.cpp      ****     osc.SetFreq(oscFreq);
 180              		.loc 9 43 16 view .LVU23
 181 0010 0D4B     		ldr	r3, .L8+8
  39:keys.cpp      ****     // vibrato      = lfo.Process();
 182              		.loc 9 39 30 view .LVU24
 183 0012 B0EE408A 		vmov.f32	s16, s0
ARM GAS  /var/folders/7c/668hyr3s7rlgsbdftclf3hsr0000gn/T//cctzORKV.s 			page 14


 184              	.LVL7:
 185              		.loc 9 43 5 is_stmt 1 view .LVU25
 186              	.LBB228:
 187              	.LBB225:
  70:../DaisyExamples/DaisySP/Source/Synthesis/oscillator.h ****         phase_inc_ = CalcPhaseInc(f);
 188              		.loc 2 70 34 is_stmt 0 view .LVU26
 189 0016 2046     		mov	r0, r4
 190              	.LBE225:
 191              	.LBE228:
 192              		.loc 9 43 16 view .LVU27
 193 0018 D3ED007A 		vldr.32	s15, [r3]
 194              	.LVL8:
 195              	.LBB229:
 196              	.LBI223:
  67:../DaisyExamples/DaisySP/Source/Synthesis/oscillator.h ****     {
 197              		.loc 2 67 17 is_stmt 1 view .LVU28
 198              	.LBB226:
  69:../DaisyExamples/DaisySP/Source/Synthesis/oscillator.h ****         phase_inc_ = CalcPhaseInc(f);
 199              		.loc 2 69 9 view .LVU29
 200              		.loc 2 70 34 is_stmt 0 view .LVU30
 201 001c B0EE670A 		vmov.f32	s0, s15
 202              	.LVL9:
  69:../DaisyExamples/DaisySP/Source/Synthesis/oscillator.h ****         phase_inc_ = CalcPhaseInc(f);
 203              		.loc 2 69 20 view .LVU31
 204 0020 C4ED027A 		vstr.32	s15, [r4, #8]
 205              		.loc 2 70 9 is_stmt 1 view .LVU32
 206              		.loc 2 70 34 is_stmt 0 view .LVU33
 207 0024 FFF7FEFF 		bl	_ZN7daisysp10Oscillator12CalcPhaseIncEf
 208              	.LVL10:
 209              		.loc 2 70 34 view .LVU34
 210              	.LBE226:
 211              	.LBE229:
  44:keys.cpp      **** 
  45:keys.cpp      ****     sig = osc.Process();
 212              		.loc 9 45 22 view .LVU35
 213 0028 2046     		mov	r0, r4
 214              	.LBB230:
 215              	.LBB227:
 216              		.loc 2 70 20 view .LVU36
 217 002a 84ED070A 		vstr.32	s0, [r4, #28]
 218              	.LVL11:
 219              		.loc 2 70 20 view .LVU37
 220              	.LBE227:
 221              	.LBE230:
 222              		.loc 9 45 5 is_stmt 1 view .LVU38
 223              		.loc 9 45 22 is_stmt 0 view .LVU39
 224 002e FFF7FEFF 		bl	_ZN7daisysp10Oscillator7ProcessEv
 225              	.LVL12:
  46:keys.cpp      ****     // sig = flt.Process(sig);
  47:keys.cpp      ****     sig *= ad_out;
 226              		.loc 9 47 5 is_stmt 1 view .LVU40
 227              		.loc 9 47 9 is_stmt 0 view .LVU41
 228 0032 20EE080A 		vmul.f32	s0, s0, s16
  48:keys.cpp      **** }
 229              		.loc 9 48 1 view .LVU42
 230 0036 BDEC028B 		vldm	sp!, {d8}
 231              		.cfi_restore 80
ARM GAS  /var/folders/7c/668hyr3s7rlgsbdftclf3hsr0000gn/T//cctzORKV.s 			page 15


 232              		.cfi_restore 81
 233              		.cfi_def_cfa_offset 16
 234              	.LVL13:
  47:keys.cpp      **** }
 235              		.loc 9 47 9 view .LVU43
 236 003a 85ED000A 		vstr.32	s0, [r5]
 237              		.loc 9 48 1 view .LVU44
 238 003e 38BD     		pop	{r3, r4, r5, pc}
 239              	.LVL14:
 240              	.L9:
 241              		.loc 9 48 1 view .LVU45
 242              		.align	2
 243              	.L8:
 244 0040 00000000 		.word	.LANCHOR0
 245 0044 00000000 		.word	.LANCHOR2
 246 0048 00000000 		.word	.LANCHOR1
 247              		.cfi_endproc
 248              	.LFE4682:
 250              		.section	.text.startup.main,"ax",%progbits
 251              		.align	1
 252              		.p2align 2,,3
 253              		.global	main
 254              		.syntax unified
 255              		.thumb
 256              		.thumb_func
 258              	main:
 259              	.LFB4684:
  49:keys.cpp      **** 
  50:keys.cpp      **** static void AudioCallback(AudioHandle::InterleavingInputBuffer  in,
  51:keys.cpp      ****                           AudioHandle::InterleavingOutputBuffer out,
  52:keys.cpp      ****                           size_t                                size)
  53:keys.cpp      **** {
  54:keys.cpp      ****     Controls();
  55:keys.cpp      **** 
  56:keys.cpp      **** 
  57:keys.cpp      ****     for(size_t i = 0; i < size; i += 2)
  58:keys.cpp      ****     {
  59:keys.cpp      ****         float sig;
  60:keys.cpp      ****         NextSamples(sig);
  61:keys.cpp      **** 
  62:keys.cpp      ****         // left out
  63:keys.cpp      ****         out[i] = sig;
  64:keys.cpp      **** 
  65:keys.cpp      ****         // right out
  66:keys.cpp      ****         out[i + 1] = sig;
  67:keys.cpp      ****     }
  68:keys.cpp      **** }
  69:keys.cpp      **** 
  70:keys.cpp      **** int main(void){
 260              		.loc 9 70 15 is_stmt 1 view -0
 261              		.cfi_startproc
 262              		@ args = 0, pretend = 0, frame = 64
 263              		@ frame_needed = 0, uses_anonymous_args = 0
  71:keys.cpp      ****     // global variables
  72:keys.cpp      ****     float sample_rate;
 264              		.loc 9 72 5 view .LVU47
  73:keys.cpp      ****     oscFreq = 1000.0f;
ARM GAS  /var/folders/7c/668hyr3s7rlgsbdftclf3hsr0000gn/T//cctzORKV.s 			page 16


 265              		.loc 9 73 5 view .LVU48
  70:keys.cpp      ****     // global variables
 266              		.loc 9 70 15 is_stmt 0 view .LVU49
 267 0000 2DE9F041 		push	{r4, r5, r6, r7, r8, lr}
 268              		.cfi_def_cfa_offset 24
 269              		.cfi_offset 4, -24
 270              		.cfi_offset 5, -20
 271              		.cfi_offset 6, -16
 272              		.cfi_offset 7, -12
 273              		.cfi_offset 8, -8
 274              		.cfi_offset 14, -4
 275              		.loc 9 73 13 view .LVU50
 276 0004 814A     		ldr	r2, .L13
  74:keys.cpp      ****     octave = 1;
 277              		.loc 9 74 12 view .LVU51
 278 0006 4FF00108 		mov	r8, #1
 279 000a 814B     		ldr	r3, .L13+4
 280              	.LBB249:
 281              	.LBB250:
  55:../DaisyExamples/DaisySP/Source/Synthesis/oscillator.h ****         pw_        = 0.5f;
 282              		.loc 2 55 20 view .LVU52
 283 000c 4FF07C56 		mov	r6, #1056964608
 284              	.LBE250:
 285              	.LBE249:
  75:keys.cpp      **** 
  76:keys.cpp      ****     //Init everything
  77:keys.cpp      ****     hw.Configure();
 286              		.loc 9 77 17 view .LVU53
 287 0010 8048     		ldr	r0, .L13+8
 288              	.LBB256:
 289              	.LBB251:
  57:../DaisyExamples/DaisySP/Source/Synthesis/oscillator.h ****         phase_inc_ = CalcPhaseInc(freq_);
 290              		.loc 2 57 20 view .LVU54
 291 0012 0027     		movs	r7, #0
  52:../DaisyExamples/DaisySP/Source/Synthesis/oscillator.h ****         sr_recip_  = 1.0f / sample_rate;
 292              		.loc 2 52 20 view .LVU55
 293 0014 804C     		ldr	r4, .L13+12
 294              	.LBE251:
 295              	.LBE256:
  78:keys.cpp      ****     hw.Init();
  79:keys.cpp      ****     hw.SetAudioBlockSize(4);
  80:keys.cpp      **** 
  81:keys.cpp      ****     sample_rate = hw.AudioSampleRate();
  82:keys.cpp      ****     osc.Init(sample_rate);
  83:keys.cpp      ****     ad.Init(sample_rate);
 296              		.loc 9 83 12 view .LVU56
 297 0016 814D     		ldr	r5, .L13+16
  70:keys.cpp      ****     // global variables
 298              		.loc 9 70 15 view .LVU57
 299 0018 2DED048B 		vpush.64	{d8, d9}
 300              		.cfi_def_cfa_offset 40
 301              		.cfi_offset 80, -40
 302              		.cfi_offset 81, -36
 303              		.cfi_offset 82, -32
 304              		.cfi_offset 83, -28
  73:keys.cpp      ****     octave = 1;
 305              		.loc 9 73 13 view .LVU58
ARM GAS  /var/folders/7c/668hyr3s7rlgsbdftclf3hsr0000gn/T//cctzORKV.s 			page 17


 306 001c 9FED808A 		vldr.32	s16, .L13+20
  70:keys.cpp      ****     // global variables
 307              		.loc 9 70 15 view .LVU59
 308 0020 90B0     		sub	sp, sp, #64
 309              		.cfi_def_cfa_offset 104
  74:keys.cpp      **** 
 310              		.loc 9 74 12 view .LVU60
 311 0022 C3F80080 		str	r8, [r3]
 312              	.LBB257:
 313              	.LBB252:
  53:../DaisyExamples/DaisySP/Source/Synthesis/oscillator.h ****         freq_      = 100.0f;
 314              		.loc 2 53 27 view .LVU61
 315 0026 B7EE009A 		vmov.f32	s18, #1.0e+0
 316              	.LBE252:
 317              	.LBE257:
  73:keys.cpp      ****     octave = 1;
 318              		.loc 9 73 13 view .LVU62
 319 002a 82ED008A 		vstr.32	s16, [r2]
  74:keys.cpp      **** 
 320              		.loc 9 74 5 is_stmt 1 view .LVU63
  77:keys.cpp      ****     hw.Init();
 321              		.loc 9 77 5 view .LVU64
  77:keys.cpp      ****     hw.Init();
 322              		.loc 9 77 17 is_stmt 0 view .LVU65
 323 002e FFF7FEFF 		bl	_ZN5daisy9DaisySeed9ConfigureEv
 324              	.LVL15:
  78:keys.cpp      ****     hw.SetAudioBlockSize(4);
 325              		.loc 9 78 5 is_stmt 1 view .LVU66
  78:keys.cpp      ****     hw.SetAudioBlockSize(4);
 326              		.loc 9 78 12 is_stmt 0 view .LVU67
 327 0032 0021     		movs	r1, #0
 328 0034 7748     		ldr	r0, .L13+8
 329 0036 FFF7FEFF 		bl	_ZN5daisy9DaisySeed4InitEb
 330              	.LVL16:
  79:keys.cpp      **** 
 331              		.loc 9 79 5 is_stmt 1 view .LVU68
  79:keys.cpp      **** 
 332              		.loc 9 79 25 is_stmt 0 view .LVU69
 333 003a 0421     		movs	r1, #4
 334 003c 7548     		ldr	r0, .L13+8
 335 003e FFF7FEFF 		bl	_ZN5daisy9DaisySeed17SetAudioBlockSizeEj
 336              	.LVL17:
  81:keys.cpp      ****     osc.Init(sample_rate);
 337              		.loc 9 81 5 is_stmt 1 view .LVU70
  81:keys.cpp      ****     osc.Init(sample_rate);
 338              		.loc 9 81 37 is_stmt 0 view .LVU71
 339 0042 7448     		ldr	r0, .L13+8
 340 0044 FFF7FEFF 		bl	_ZN5daisy9DaisySeed15AudioSampleRateEv
 341              	.LVL18:
 342 0048 F0EE408A 		vmov.f32	s17, s0
 343              	.LVL19:
  82:keys.cpp      ****     ad.Init(sample_rate);
 344              		.loc 9 82 5 is_stmt 1 view .LVU72
 345              	.LBB258:
 346              	.LBI249:
  50:../DaisyExamples/DaisySP/Source/Synthesis/oscillator.h ****     {
 347              		.loc 2 50 10 view .LVU73
ARM GAS  /var/folders/7c/668hyr3s7rlgsbdftclf3hsr0000gn/T//cctzORKV.s 			page 18


 348              	.LBB253:
  52:../DaisyExamples/DaisySP/Source/Synthesis/oscillator.h ****         sr_recip_  = 1.0f / sample_rate;
 349              		.loc 2 52 9 view .LVU74
  54:../DaisyExamples/DaisySP/Source/Synthesis/oscillator.h ****         amp_       = 0.5f;
 350              		.loc 2 54 20 is_stmt 0 view .LVU75
 351 004c DFED757A 		vldr.32	s15, .L13+24
  58:../DaisyExamples/DaisySP/Source/Synthesis/oscillator.h ****         waveform_  = WAVE_SIN;
 352              		.loc 2 58 34 view .LVU76
 353 0050 2046     		mov	r0, r4
  55:../DaisyExamples/DaisySP/Source/Synthesis/oscillator.h ****         pw_        = 0.5f;
 354              		.loc 2 55 20 view .LVU77
 355 0052 6660     		str	r6, [r4, #4]	@ float
  58:../DaisyExamples/DaisySP/Source/Synthesis/oscillator.h ****         waveform_  = WAVE_SIN;
 356              		.loc 2 58 34 view .LVU78
 357 0054 B0EE670A 		vmov.f32	s0, s15
 358              	.LVL20:
  54:../DaisyExamples/DaisySP/Source/Synthesis/oscillator.h ****         amp_       = 0.5f;
 359              		.loc 2 54 20 view .LVU79
 360 0058 C4ED027A 		vstr.32	s15, [r4, #8]
  53:../DaisyExamples/DaisySP/Source/Synthesis/oscillator.h ****         freq_      = 100.0f;
 361              		.loc 2 53 27 view .LVU80
 362 005c C9EE287A 		vdiv.f32	s15, s18, s17
  52:../DaisyExamples/DaisySP/Source/Synthesis/oscillator.h ****         sr_recip_  = 1.0f / sample_rate;
 363              		.loc 2 52 20 view .LVU81
 364 0060 C4ED048A 		vstr.32	s17, [r4, #16]
  53:../DaisyExamples/DaisySP/Source/Synthesis/oscillator.h ****         freq_      = 100.0f;
 365              		.loc 2 53 9 is_stmt 1 view .LVU82
  56:../DaisyExamples/DaisySP/Source/Synthesis/oscillator.h ****         phase_     = 0.0f;
 366              		.loc 2 56 20 is_stmt 0 view .LVU83
 367 0064 E660     		str	r6, [r4, #12]	@ float
  57:../DaisyExamples/DaisySP/Source/Synthesis/oscillator.h ****         phase_inc_ = CalcPhaseInc(freq_);
 368              		.loc 2 57 20 view .LVU84
 369 0066 A761     		str	r7, [r4, #24]	@ float
  53:../DaisyExamples/DaisySP/Source/Synthesis/oscillator.h ****         freq_      = 100.0f;
 370              		.loc 2 53 20 view .LVU85
 371 0068 C4ED057A 		vstr.32	s15, [r4, #20]
  54:../DaisyExamples/DaisySP/Source/Synthesis/oscillator.h ****         amp_       = 0.5f;
 372              		.loc 2 54 9 is_stmt 1 view .LVU86
  55:../DaisyExamples/DaisySP/Source/Synthesis/oscillator.h ****         pw_        = 0.5f;
 373              		.loc 2 55 9 view .LVU87
  56:../DaisyExamples/DaisySP/Source/Synthesis/oscillator.h ****         phase_     = 0.0f;
 374              		.loc 2 56 9 view .LVU88
  57:../DaisyExamples/DaisySP/Source/Synthesis/oscillator.h ****         phase_inc_ = CalcPhaseInc(freq_);
 375              		.loc 2 57 9 view .LVU89
  58:../DaisyExamples/DaisySP/Source/Synthesis/oscillator.h ****         waveform_  = WAVE_SIN;
 376              		.loc 2 58 9 view .LVU90
  58:../DaisyExamples/DaisySP/Source/Synthesis/oscillator.h ****         waveform_  = WAVE_SIN;
 377              		.loc 2 58 34 is_stmt 0 view .LVU91
 378 006c FFF7FEFF 		bl	_ZN7daisysp10Oscillator12CalcPhaseIncEf
 379              	.LVL21:
  59:../DaisyExamples/DaisySP/Source/Synthesis/oscillator.h ****         eoc_       = true;
 380              		.loc 2 59 20 view .LVU92
 381 0070 0023     		movs	r3, #0
 382              	.LBE253:
 383              	.LBE258:
 384              		.loc 9 83 12 view .LVU93
 385 0072 2846     		mov	r0, r5
ARM GAS  /var/folders/7c/668hyr3s7rlgsbdftclf3hsr0000gn/T//cctzORKV.s 			page 19


 386              	.LBB259:
 387              	.LBB254:
  58:../DaisyExamples/DaisySP/Source/Synthesis/oscillator.h ****         waveform_  = WAVE_SIN;
 388              		.loc 2 58 20 view .LVU94
 389 0074 84ED070A 		vstr.32	s0, [r4, #28]
  59:../DaisyExamples/DaisySP/Source/Synthesis/oscillator.h ****         eoc_       = true;
 390              		.loc 2 59 9 is_stmt 1 view .LVU95
 391              	.LBE254:
 392              	.LBE259:
 393              		.loc 9 83 12 is_stmt 0 view .LVU96
 394 0078 B0EE680A 		vmov.f32	s0, s17
 395              	.LBB260:
 396              	.LBB255:
  59:../DaisyExamples/DaisySP/Source/Synthesis/oscillator.h ****         eoc_       = true;
 397              		.loc 2 59 20 view .LVU97
 398 007c 2370     		strb	r3, [r4]
  60:../DaisyExamples/DaisySP/Source/Synthesis/oscillator.h ****         eor_       = true;
 399              		.loc 2 60 9 is_stmt 1 view .LVU98
  61:../DaisyExamples/DaisySP/Source/Synthesis/oscillator.h ****     }
 400              		.loc 2 61 9 view .LVU99
  61:../DaisyExamples/DaisySP/Source/Synthesis/oscillator.h ****     }
 401              		.loc 2 61 20 is_stmt 0 view .LVU100
 402 007e 40F20113 		movw	r3, #257
 403 0082 2385     		strh	r3, [r4, #40]	@ movhi
 404              	.LVL22:
  61:../DaisyExamples/DaisySP/Source/Synthesis/oscillator.h ****     }
 405              		.loc 2 61 20 view .LVU101
 406              	.LBE255:
 407              	.LBE260:
 408              		.loc 9 83 5 is_stmt 1 view .LVU102
 409              		.loc 9 83 12 is_stmt 0 view .LVU103
 410 0084 FFF7FEFF 		bl	_ZN7daisysp5AdEnv4InitEf
 411              	.LVL23:
  84:keys.cpp      **** 
  85:keys.cpp      ****     C2.Init(hw.GetPin(13), 1000);
 412              		.loc 9 85 5 is_stmt 1 view .LVU104
 413              		.loc 9 85 12 is_stmt 0 view .LVU105
 414 0088 0D20     		movs	r0, #13
 415 008a FFF7FEFF 		bl	_ZN5daisy9DaisySeed6GetPinEh
 416              	.LVL24:
 417 008e ADF80400 		strh	r0, [sp, #4]	@ movhi
 418 0092 B0EE480A 		vmov.f32	s0, s16
 419 0096 0199     		ldr	r1, [sp, #4]
 420 0098 6348     		ldr	r0, .L13+28
 421 009a FFF7FEFF 		bl	_ZN5daisy6Switch4InitE12dsy_gpio_pinf
 422              	.LVL25:
  86:keys.cpp      ****     B.Init(hw.GetPin(12), 1000);
 423              		.loc 9 86 5 is_stmt 1 view .LVU106
 424              		.loc 9 86 11 is_stmt 0 view .LVU107
 425 009e 0C20     		movs	r0, #12
 426 00a0 FFF7FEFF 		bl	_ZN5daisy9DaisySeed6GetPinEh
 427              	.LVL26:
 428 00a4 ADF80800 		strh	r0, [sp, #8]	@ movhi
 429 00a8 B0EE480A 		vmov.f32	s0, s16
 430 00ac 0299     		ldr	r1, [sp, #8]
 431 00ae 5F48     		ldr	r0, .L13+32
 432 00b0 FFF7FEFF 		bl	_ZN5daisy6Switch4InitE12dsy_gpio_pinf
ARM GAS  /var/folders/7c/668hyr3s7rlgsbdftclf3hsr0000gn/T//cctzORKV.s 			page 20


 433              	.LVL27:
  87:keys.cpp      ****     AS.Init(hw.GetPin(11), 1000);
 434              		.loc 9 87 5 is_stmt 1 view .LVU108
 435              		.loc 9 87 12 is_stmt 0 view .LVU109
 436 00b4 0B20     		movs	r0, #11
 437 00b6 FFF7FEFF 		bl	_ZN5daisy9DaisySeed6GetPinEh
 438              	.LVL28:
 439 00ba ADF80C00 		strh	r0, [sp, #12]	@ movhi
 440 00be B0EE480A 		vmov.f32	s0, s16
 441 00c2 0399     		ldr	r1, [sp, #12]
 442 00c4 5A48     		ldr	r0, .L13+36
 443 00c6 FFF7FEFF 		bl	_ZN5daisy6Switch4InitE12dsy_gpio_pinf
 444              	.LVL29:
  88:keys.cpp      ****     A.Init(hw.GetPin(10), 1000);
 445              		.loc 9 88 5 is_stmt 1 view .LVU110
 446              		.loc 9 88 11 is_stmt 0 view .LVU111
 447 00ca 0A20     		movs	r0, #10
 448 00cc FFF7FEFF 		bl	_ZN5daisy9DaisySeed6GetPinEh
 449              	.LVL30:
 450 00d0 ADF81000 		strh	r0, [sp, #16]	@ movhi
 451 00d4 B0EE480A 		vmov.f32	s0, s16
 452 00d8 0499     		ldr	r1, [sp, #16]
 453 00da 5648     		ldr	r0, .L13+40
 454 00dc FFF7FEFF 		bl	_ZN5daisy6Switch4InitE12dsy_gpio_pinf
 455              	.LVL31:
  89:keys.cpp      ****     GS.Init(hw.GetPin(9), 1000);
 456              		.loc 9 89 5 is_stmt 1 view .LVU112
 457              		.loc 9 89 12 is_stmt 0 view .LVU113
 458 00e0 0920     		movs	r0, #9
 459 00e2 FFF7FEFF 		bl	_ZN5daisy9DaisySeed6GetPinEh
 460              	.LVL32:
 461 00e6 ADF81400 		strh	r0, [sp, #20]	@ movhi
 462 00ea B0EE480A 		vmov.f32	s0, s16
 463 00ee 0599     		ldr	r1, [sp, #20]
 464 00f0 5148     		ldr	r0, .L13+44
 465 00f2 FFF7FEFF 		bl	_ZN5daisy6Switch4InitE12dsy_gpio_pinf
 466              	.LVL33:
  90:keys.cpp      ****     G.Init(hw.GetPin(8), 1000);
 467              		.loc 9 90 5 is_stmt 1 view .LVU114
 468              		.loc 9 90 11 is_stmt 0 view .LVU115
 469 00f6 0820     		movs	r0, #8
 470 00f8 FFF7FEFF 		bl	_ZN5daisy9DaisySeed6GetPinEh
 471              	.LVL34:
 472 00fc ADF81800 		strh	r0, [sp, #24]	@ movhi
 473 0100 B0EE480A 		vmov.f32	s0, s16
 474 0104 0699     		ldr	r1, [sp, #24]
 475 0106 4D48     		ldr	r0, .L13+48
 476 0108 FFF7FEFF 		bl	_ZN5daisy6Switch4InitE12dsy_gpio_pinf
 477              	.LVL35:
  91:keys.cpp      ****     FS.Init(hw.GetPin(7), 1000);
 478              		.loc 9 91 5 is_stmt 1 view .LVU116
 479              		.loc 9 91 12 is_stmt 0 view .LVU117
 480 010c 0720     		movs	r0, #7
 481 010e FFF7FEFF 		bl	_ZN5daisy9DaisySeed6GetPinEh
 482              	.LVL36:
 483 0112 ADF81C00 		strh	r0, [sp, #28]	@ movhi
 484 0116 B0EE480A 		vmov.f32	s0, s16
ARM GAS  /var/folders/7c/668hyr3s7rlgsbdftclf3hsr0000gn/T//cctzORKV.s 			page 21


 485 011a 0799     		ldr	r1, [sp, #28]
 486 011c 4848     		ldr	r0, .L13+52
 487 011e FFF7FEFF 		bl	_ZN5daisy6Switch4InitE12dsy_gpio_pinf
 488              	.LVL37:
  92:keys.cpp      ****     F.Init(hw.GetPin(6), 1000);
 489              		.loc 9 92 5 is_stmt 1 view .LVU118
 490              		.loc 9 92 11 is_stmt 0 view .LVU119
 491 0122 0620     		movs	r0, #6
 492 0124 FFF7FEFF 		bl	_ZN5daisy9DaisySeed6GetPinEh
 493              	.LVL38:
 494 0128 ADF82000 		strh	r0, [sp, #32]	@ movhi
 495 012c B0EE480A 		vmov.f32	s0, s16
 496 0130 0899     		ldr	r1, [sp, #32]
 497 0132 4448     		ldr	r0, .L13+56
 498 0134 FFF7FEFF 		bl	_ZN5daisy6Switch4InitE12dsy_gpio_pinf
 499              	.LVL39:
  93:keys.cpp      ****     E.Init(hw.GetPin(5), 1000);
 500              		.loc 9 93 5 is_stmt 1 view .LVU120
 501              		.loc 9 93 11 is_stmt 0 view .LVU121
 502 0138 0520     		movs	r0, #5
 503 013a FFF7FEFF 		bl	_ZN5daisy9DaisySeed6GetPinEh
 504              	.LVL40:
 505 013e ADF82400 		strh	r0, [sp, #36]	@ movhi
 506 0142 B0EE480A 		vmov.f32	s0, s16
 507 0146 0999     		ldr	r1, [sp, #36]
 508 0148 3F48     		ldr	r0, .L13+60
 509 014a FFF7FEFF 		bl	_ZN5daisy6Switch4InitE12dsy_gpio_pinf
 510              	.LVL41:
  94:keys.cpp      ****     DS.Init(hw.GetPin(4), 1000);
 511              		.loc 9 94 5 is_stmt 1 view .LVU122
 512              		.loc 9 94 12 is_stmt 0 view .LVU123
 513 014e 0420     		movs	r0, #4
 514 0150 FFF7FEFF 		bl	_ZN5daisy9DaisySeed6GetPinEh
 515              	.LVL42:
 516 0154 ADF82800 		strh	r0, [sp, #40]	@ movhi
 517 0158 B0EE480A 		vmov.f32	s0, s16
 518 015c 0A99     		ldr	r1, [sp, #40]
 519 015e 3B48     		ldr	r0, .L13+64
 520 0160 FFF7FEFF 		bl	_ZN5daisy6Switch4InitE12dsy_gpio_pinf
 521              	.LVL43:
  95:keys.cpp      ****     D.Init(hw.GetPin(3), 1000);
 522              		.loc 9 95 5 is_stmt 1 view .LVU124
 523              		.loc 9 95 11 is_stmt 0 view .LVU125
 524 0164 0320     		movs	r0, #3
 525 0166 FFF7FEFF 		bl	_ZN5daisy9DaisySeed6GetPinEh
 526              	.LVL44:
 527 016a ADF82C00 		strh	r0, [sp, #44]	@ movhi
 528 016e B0EE480A 		vmov.f32	s0, s16
 529 0172 0B99     		ldr	r1, [sp, #44]
 530 0174 3648     		ldr	r0, .L13+68
 531 0176 FFF7FEFF 		bl	_ZN5daisy6Switch4InitE12dsy_gpio_pinf
 532              	.LVL45:
  96:keys.cpp      ****     CS.Init(hw.GetPin(2), 1000);
 533              		.loc 9 96 5 is_stmt 1 view .LVU126
 534              		.loc 9 96 12 is_stmt 0 view .LVU127
 535 017a 0220     		movs	r0, #2
 536 017c FFF7FEFF 		bl	_ZN5daisy9DaisySeed6GetPinEh
ARM GAS  /var/folders/7c/668hyr3s7rlgsbdftclf3hsr0000gn/T//cctzORKV.s 			page 22


 537              	.LVL46:
 538 0180 ADF83000 		strh	r0, [sp, #48]	@ movhi
 539 0184 B0EE480A 		vmov.f32	s0, s16
 540 0188 0C99     		ldr	r1, [sp, #48]
 541 018a 3248     		ldr	r0, .L13+72
 542 018c FFF7FEFF 		bl	_ZN5daisy6Switch4InitE12dsy_gpio_pinf
 543              	.LVL47:
  97:keys.cpp      ****     C.Init(hw.GetPin(1), 1000);
 544              		.loc 9 97 5 is_stmt 1 view .LVU128
 545              		.loc 9 97 11 is_stmt 0 view .LVU129
 546 0190 4046     		mov	r0, r8
 547 0192 FFF7FEFF 		bl	_ZN5daisy9DaisySeed6GetPinEh
 548              	.LVL48:
 549 0196 ADF83400 		strh	r0, [sp, #52]	@ movhi
 550 019a B0EE480A 		vmov.f32	s0, s16
 551 019e 0D99     		ldr	r1, [sp, #52]
 552 01a0 2D48     		ldr	r0, .L13+76
 553 01a2 FFF7FEFF 		bl	_ZN5daisy6Switch4InitE12dsy_gpio_pinf
 554              	.LVL49:
  98:keys.cpp      **** 
  99:keys.cpp      ****     octave_up.Init(hw.GetPin(29), 1000);
 555              		.loc 9 99 5 is_stmt 1 view .LVU130
 556              		.loc 9 99 19 is_stmt 0 view .LVU131
 557 01a6 1D20     		movs	r0, #29
 558 01a8 FFF7FEFF 		bl	_ZN5daisy9DaisySeed6GetPinEh
 559              	.LVL50:
 560 01ac ADF83800 		strh	r0, [sp, #56]	@ movhi
 561 01b0 B0EE480A 		vmov.f32	s0, s16
 562 01b4 0E99     		ldr	r1, [sp, #56]
 563 01b6 2948     		ldr	r0, .L13+80
 564 01b8 FFF7FEFF 		bl	_ZN5daisy6Switch4InitE12dsy_gpio_pinf
 565              	.LVL51:
 100:keys.cpp      ****     octave_down.Init(hw.GetPin(30), 1000);
 566              		.loc 9 100 5 is_stmt 1 view .LVU132
 567              		.loc 9 100 21 is_stmt 0 view .LVU133
 568 01bc 1E20     		movs	r0, #30
 569 01be FFF7FEFF 		bl	_ZN5daisy9DaisySeed6GetPinEh
 570              	.LVL52:
 571 01c2 ADF83C00 		strh	r0, [sp, #60]	@ movhi
 572 01c6 0F99     		ldr	r1, [sp, #60]
 573 01c8 B0EE480A 		vmov.f32	s0, s16
 574 01cc 2448     		ldr	r0, .L13+84
 575 01ce FFF7FEFF 		bl	_ZN5daisy6Switch4InitE12dsy_gpio_pinf
 576              	.LVL53:
 101:keys.cpp      **** 
 102:keys.cpp      **** 
 103:keys.cpp      ****     // Set parameters for oscillator
 104:keys.cpp      ****     osc.SetWaveform(osc.WAVE_SAW);
 577              		.loc 9 104 5 is_stmt 1 view .LVU134
 578              	.LBB261:
 579              	.LBI261:
  71:../DaisyExamples/DaisySP/Source/Synthesis/oscillator.h ****     }
  72:../DaisyExamples/DaisySP/Source/Synthesis/oscillator.h **** 
  73:../DaisyExamples/DaisySP/Source/Synthesis/oscillator.h **** 
  74:../DaisyExamples/DaisySP/Source/Synthesis/oscillator.h ****     /** Sets the amplitude of the waveform.
  75:../DaisyExamples/DaisySP/Source/Synthesis/oscillator.h ****     */
  76:../DaisyExamples/DaisySP/Source/Synthesis/oscillator.h ****     inline void SetAmp(const float a) { amp_ = a; }
ARM GAS  /var/folders/7c/668hyr3s7rlgsbdftclf3hsr0000gn/T//cctzORKV.s 			page 23


  77:../DaisyExamples/DaisySP/Source/Synthesis/oscillator.h ****     /** Sets the waveform to be synthesized by the Process() function.
  78:../DaisyExamples/DaisySP/Source/Synthesis/oscillator.h ****     */
  79:../DaisyExamples/DaisySP/Source/Synthesis/oscillator.h ****     inline void SetWaveform(const uint8_t wf)
 580              		.loc 2 79 17 view .LVU135
 581              	.LBB262:
  80:../DaisyExamples/DaisySP/Source/Synthesis/oscillator.h ****     {
  81:../DaisyExamples/DaisySP/Source/Synthesis/oscillator.h ****         waveform_ = wf < WAVE_LAST ? wf : WAVE_SIN;
 582              		.loc 2 81 9 view .LVU136
 583              		.loc 2 81 19 is_stmt 0 view .LVU137
 584 01d2 0223     		movs	r3, #2
 585              	.LBE262:
 586              	.LBE261:
 105:keys.cpp      ****     wave = osc.WAVE_SAW;
 587              		.loc 9 105 10 view .LVU138
 588 01d4 234A     		ldr	r2, .L13+88
 589              	.LBB264:
 590              	.LBB265:
  70:../DaisyExamples/DaisySP/Source/Synthesis/oscillator.h ****     }
 591              		.loc 2 70 34 view .LVU139
 592 01d6 2046     		mov	r0, r4
  69:../DaisyExamples/DaisySP/Source/Synthesis/oscillator.h ****         phase_inc_ = CalcPhaseInc(f);
 593              		.loc 2 69 20 view .LVU140
 594 01d8 9FED230A 		vldr.32	s0, .L13+92
 595              	.LBE265:
 596              	.LBE264:
 597              		.loc 9 105 10 view .LVU141
 598 01dc 1360     		str	r3, [r2]
 599              	.LBB268:
 600              	.LBB263:
 601              		.loc 2 81 19 view .LVU142
 602 01de 2370     		strb	r3, [r4]
 603              	.LVL54:
 604              		.loc 2 81 19 view .LVU143
 605              	.LBE263:
 606              	.LBE268:
 607              		.loc 9 105 5 is_stmt 1 view .LVU144
 106:keys.cpp      ****     osc.SetFreq(440);
 608              		.loc 9 106 5 view .LVU145
 609              	.LBB269:
 610              	.LBI264:
  67:../DaisyExamples/DaisySP/Source/Synthesis/oscillator.h ****     {
 611              		.loc 2 67 17 view .LVU146
 612              	.LBB266:
  69:../DaisyExamples/DaisySP/Source/Synthesis/oscillator.h ****         phase_inc_ = CalcPhaseInc(f);
 613              		.loc 2 69 9 view .LVU147
  70:../DaisyExamples/DaisySP/Source/Synthesis/oscillator.h ****     }
 614              		.loc 2 70 9 view .LVU148
  69:../DaisyExamples/DaisySP/Source/Synthesis/oscillator.h ****         phase_inc_ = CalcPhaseInc(f);
 615              		.loc 2 69 20 is_stmt 0 view .LVU149
 616 01e0 84ED020A 		vstr.32	s0, [r4, #8]
  70:../DaisyExamples/DaisySP/Source/Synthesis/oscillator.h ****     }
 617              		.loc 2 70 34 view .LVU150
 618 01e4 FFF7FEFF 		bl	_ZN7daisysp10Oscillator12CalcPhaseIncEf
 619              	.LVL55:
 620              	.LBE266:
 621              	.LBE269:
 622              	.LBB270:
ARM GAS  /var/folders/7c/668hyr3s7rlgsbdftclf3hsr0000gn/T//cctzORKV.s 			page 24


 623              	.LBB271:
  44:../DaisyExamples/DaisySP/Source/Control/adenv.h ****     /** Initializes the ad envelope.
  45:../DaisyExamples/DaisySP/Source/Control/adenv.h **** 
  46:../DaisyExamples/DaisySP/Source/Control/adenv.h ****         Defaults:
  47:../DaisyExamples/DaisySP/Source/Control/adenv.h ****             - current segment = idle
  48:../DaisyExamples/DaisySP/Source/Control/adenv.h ****             - curve = linear
  49:../DaisyExamples/DaisySP/Source/Control/adenv.h ****             - phase = 0
  50:../DaisyExamples/DaisySP/Source/Control/adenv.h ****             - min = 0
  51:../DaisyExamples/DaisySP/Source/Control/adenv.h ****             - max = 1
  52:../DaisyExamples/DaisySP/Source/Control/adenv.h **** 
  53:../DaisyExamples/DaisySP/Source/Control/adenv.h ****         \param sample_rate      sample rate of the audio engine being run
  54:../DaisyExamples/DaisySP/Source/Control/adenv.h ****     */
  55:../DaisyExamples/DaisySP/Source/Control/adenv.h ****     void Init(float sample_rate);
  56:../DaisyExamples/DaisySP/Source/Control/adenv.h **** 
  57:../DaisyExamples/DaisySP/Source/Control/adenv.h ****     /** Processes the current sample of the envelope. This should be called once
  58:../DaisyExamples/DaisySP/Source/Control/adenv.h ****         per sample period.
  59:../DaisyExamples/DaisySP/Source/Control/adenv.h ****         \return the current envelope value.
  60:../DaisyExamples/DaisySP/Source/Control/adenv.h ****     */
  61:../DaisyExamples/DaisySP/Source/Control/adenv.h ****     float Process();
  62:../DaisyExamples/DaisySP/Source/Control/adenv.h **** 
  63:../DaisyExamples/DaisySP/Source/Control/adenv.h ****     /** Starts or retriggers the envelope.*/
  64:../DaisyExamples/DaisySP/Source/Control/adenv.h ****     inline void Trigger() { trigger_ = 1; }
  65:../DaisyExamples/DaisySP/Source/Control/adenv.h ****     /** Sets the length of time (in seconds) for a specific segment. */
  66:../DaisyExamples/DaisySP/Source/Control/adenv.h ****     inline void SetTime(uint8_t seg, float time) { segment_time_[seg] = time; }
 624              		.loc 1 66 71 view .LVU151
 625 01e8 204A     		ldr	r2, .L13+96
 626              	.LBE271:
 627              	.LBE270:
 628              	.LBB274:
 629              	.LBB275:
 630 01ea 214B     		ldr	r3, .L13+100
 631              	.LBE275:
 632              	.LBE274:
 107:keys.cpp      ****     osc.SetAmp(1);
 108:keys.cpp      **** 
 109:keys.cpp      ****     //Set envelope parameters
 110:keys.cpp      ****     ad.SetTime(ADENV_SEG_ATTACK, 0.01);
 111:keys.cpp      ****     ad.SetTime(ADENV_SEG_DECAY, .2);
 112:keys.cpp      ****     ad.SetMax(1);
 113:keys.cpp      ****     ad.SetMin(0);
 114:keys.cpp      ****     ad.SetCurve(0.5);
 115:keys.cpp      **** 
 116:keys.cpp      **** 
 117:keys.cpp      ****     // Start the adc
 118:keys.cpp      ****     // hw.adc.Start();
 119:keys.cpp      **** 
 120:keys.cpp      ****     //Start calling the audio callback
 121:keys.cpp      ****     hw.StartAudio(AudioCallback);
 633              		.loc 9 121 18 view .LVU152
 634 01ec 2149     		ldr	r1, .L13+104
 635 01ee 0948     		ldr	r0, .L13+8
 636              	.LBB277:
 637              	.LBB278:
  76:../DaisyExamples/DaisySP/Source/Synthesis/oscillator.h ****     /** Sets the waveform to be synthesized by the Process() function.
 638              		.loc 2 76 46 view .LVU153
 639 01f0 84ED019A 		vstr.32	s18, [r4, #4]
 640              	.LBE278:
ARM GAS  /var/folders/7c/668hyr3s7rlgsbdftclf3hsr0000gn/T//cctzORKV.s 			page 25


 641              	.LBE277:
 642              	.LBB280:
 643              	.LBB281:
  67:../DaisyExamples/DaisySP/Source/Control/adenv.h ****     /** Sets the amount of curve applied. A positve value will create a log
  68:../DaisyExamples/DaisySP/Source/Control/adenv.h ****         curve. Input range: -100 to 100.  (or more)
  69:../DaisyExamples/DaisySP/Source/Control/adenv.h ****     */
  70:../DaisyExamples/DaisySP/Source/Control/adenv.h ****     inline void SetCurve(float scalar) { curve_scalar_ = scalar; }
  71:../DaisyExamples/DaisySP/Source/Control/adenv.h ****     /** Sets the minimum value of the envelope output.
  72:../DaisyExamples/DaisySP/Source/Control/adenv.h ****         Input range: -FLTmax_, to FLTmax_
  73:../DaisyExamples/DaisySP/Source/Control/adenv.h ****     */
  74:../DaisyExamples/DaisySP/Source/Control/adenv.h ****     inline void SetMin(float min) { min_ = min; }
  75:../DaisyExamples/DaisySP/Source/Control/adenv.h ****     /** Sets the maximum value of the envelope output.
  76:../DaisyExamples/DaisySP/Source/Control/adenv.h ****         Input range: -FLTmax_, to FLTmax_
  77:../DaisyExamples/DaisySP/Source/Control/adenv.h ****     */
  78:../DaisyExamples/DaisySP/Source/Control/adenv.h ****     inline void SetMax(float max) { max_ = max; }
 644              		.loc 1 78 42 view .LVU154
 645 01f4 85ED069A 		vstr.32	s18, [r5, #24]
 646              	.LBE281:
 647              	.LBE280:
 648              	.LBB283:
 649              	.LBB267:
  70:../DaisyExamples/DaisySP/Source/Synthesis/oscillator.h ****     }
 650              		.loc 2 70 20 view .LVU155
 651 01f8 84ED070A 		vstr.32	s0, [r4, #28]
 652              	.LVL56:
  70:../DaisyExamples/DaisySP/Source/Synthesis/oscillator.h ****     }
 653              		.loc 2 70 20 view .LVU156
 654              	.LBE267:
 655              	.LBE283:
 107:keys.cpp      **** 
 656              		.loc 9 107 5 is_stmt 1 view .LVU157
 657              	.LBB284:
 658              	.LBI277:
  76:../DaisyExamples/DaisySP/Source/Synthesis/oscillator.h ****     /** Sets the waveform to be synthesized by the Process() function.
 659              		.loc 2 76 17 view .LVU158
 660              	.LBB279:
  76:../DaisyExamples/DaisySP/Source/Synthesis/oscillator.h ****     /** Sets the waveform to be synthesized by the Process() function.
 661              		.loc 2 76 41 view .LVU159
  76:../DaisyExamples/DaisySP/Source/Synthesis/oscillator.h ****     /** Sets the waveform to be synthesized by the Process() function.
 662              		.loc 2 76 41 is_stmt 0 view .LVU160
 663              	.LBE279:
 664              	.LBE284:
 110:keys.cpp      ****     ad.SetTime(ADENV_SEG_DECAY, .2);
 665              		.loc 9 110 5 is_stmt 1 view .LVU161
 666              	.LBB285:
 667              	.LBI270:
  66:../DaisyExamples/DaisySP/Source/Control/adenv.h ****     /** Sets the amount of curve applied. A positve value will create a log
 668              		.loc 1 66 17 view .LVU162
 669              	.LBB272:
  66:../DaisyExamples/DaisySP/Source/Control/adenv.h ****     /** Sets the amount of curve applied. A positve value will create a log
 670              		.loc 1 66 52 view .LVU163
 671              	.LBE272:
 672              	.LBE285:
 673              	.LBB286:
 674              	.LBB287:
  74:../DaisyExamples/DaisySP/Source/Control/adenv.h ****     /** Sets the maximum value of the envelope output.
 675              		.loc 1 74 42 is_stmt 0 view .LVU164
ARM GAS  /var/folders/7c/668hyr3s7rlgsbdftclf3hsr0000gn/T//cctzORKV.s 			page 26


 676 01fc 6F61     		str	r7, [r5, #20]	@ float
 677              	.LBE287:
 678              	.LBE286:
 679              	.LBB289:
 680              	.LBB273:
  66:../DaisyExamples/DaisySP/Source/Control/adenv.h ****     /** Sets the amount of curve applied. A positve value will create a log
 681              		.loc 1 66 71 view .LVU165
 682 01fe AA60     		str	r2, [r5, #8]	@ float
 683              	.LVL57:
  66:../DaisyExamples/DaisySP/Source/Control/adenv.h ****     /** Sets the amount of curve applied. A positve value will create a log
 684              		.loc 1 66 71 view .LVU166
 685              	.LBE273:
 686              	.LBE289:
 111:keys.cpp      ****     ad.SetMax(1);
 687              		.loc 9 111 5 is_stmt 1 view .LVU167
 688              	.LBB290:
 689              	.LBI274:
  66:../DaisyExamples/DaisySP/Source/Control/adenv.h ****     /** Sets the amount of curve applied. A positve value will create a log
 690              		.loc 1 66 17 view .LVU168
 691              	.LBB276:
  66:../DaisyExamples/DaisySP/Source/Control/adenv.h ****     /** Sets the amount of curve applied. A positve value will create a log
 692              		.loc 1 66 52 view .LVU169
  66:../DaisyExamples/DaisySP/Source/Control/adenv.h ****     /** Sets the amount of curve applied. A positve value will create a log
 693              		.loc 1 66 71 is_stmt 0 view .LVU170
 694 0200 EB60     		str	r3, [r5, #12]	@ float
 695              	.LVL58:
  66:../DaisyExamples/DaisySP/Source/Control/adenv.h ****     /** Sets the amount of curve applied. A positve value will create a log
 696              		.loc 1 66 71 view .LVU171
 697              	.LBE276:
 698              	.LBE290:
 112:keys.cpp      ****     ad.SetMin(0);
 699              		.loc 9 112 5 is_stmt 1 view .LVU172
 700              	.LBB291:
 701              	.LBI280:
 702              		.loc 1 78 17 view .LVU173
 703              	.LBB282:
 704              		.loc 1 78 37 view .LVU174
 705              		.loc 1 78 37 is_stmt 0 view .LVU175
 706              	.LBE282:
 707              	.LBE291:
 113:keys.cpp      ****     ad.SetCurve(0.5);
 708              		.loc 9 113 5 is_stmt 1 view .LVU176
 709              	.LBB292:
 710              	.LBI286:
  74:../DaisyExamples/DaisySP/Source/Control/adenv.h ****     /** Sets the maximum value of the envelope output.
 711              		.loc 1 74 17 view .LVU177
 712              	.LBB288:
  74:../DaisyExamples/DaisySP/Source/Control/adenv.h ****     /** Sets the maximum value of the envelope output.
 713              		.loc 1 74 37 view .LVU178
  74:../DaisyExamples/DaisySP/Source/Control/adenv.h ****     /** Sets the maximum value of the envelope output.
 714              		.loc 1 74 37 is_stmt 0 view .LVU179
 715              	.LBE288:
 716              	.LBE292:
 114:keys.cpp      **** 
 717              		.loc 9 114 5 is_stmt 1 view .LVU180
 718              	.LBB293:
 719              	.LBI293:
ARM GAS  /var/folders/7c/668hyr3s7rlgsbdftclf3hsr0000gn/T//cctzORKV.s 			page 27


  70:../DaisyExamples/DaisySP/Source/Control/adenv.h ****     /** Sets the minimum value of the envelope output.
 720              		.loc 1 70 17 view .LVU181
 721              	.LBB294:
  70:../DaisyExamples/DaisySP/Source/Control/adenv.h ****     /** Sets the minimum value of the envelope output.
 722              		.loc 1 70 42 view .LVU182
  70:../DaisyExamples/DaisySP/Source/Control/adenv.h ****     /** Sets the minimum value of the envelope output.
 723              		.loc 1 70 56 is_stmt 0 view .LVU183
 724 0202 2E62     		str	r6, [r5, #32]	@ float
 725              	.LVL59:
  70:../DaisyExamples/DaisySP/Source/Control/adenv.h ****     /** Sets the minimum value of the envelope output.
 726              		.loc 1 70 56 view .LVU184
 727              	.LBE294:
 728              	.LBE293:
 729              		.loc 9 121 5 is_stmt 1 view .LVU185
 730              		.loc 9 121 18 is_stmt 0 view .LVU186
 731 0204 FFF7FEFF 		bl	_ZN5daisy9DaisySeed10StartAudioEPFvPKfPfjE
 732              	.LVL60:
 733              	.L11:
 122:keys.cpp      **** 
 123:keys.cpp      **** 
 124:keys.cpp      ****     while(1) {}
 734              		.loc 9 124 5 is_stmt 1 discriminator 1 view .LVU187
 735              		.loc 9 124 5 discriminator 1 view .LVU188
 736              		.loc 9 124 5 discriminator 1 view .LVU189
 737              		.loc 9 124 5 discriminator 1 view .LVU190
 738 0208 FEE7     		b	.L11
 739              	.L14:
 740 020a 00BF     		.align	2
 741              	.L13:
 742 020c 00000000 		.word	.LANCHOR1
 743 0210 00000000 		.word	.LANCHOR3
 744 0214 00000000 		.word	.LANCHOR4
 745 0218 00000000 		.word	.LANCHOR2
 746 021c 00000000 		.word	.LANCHOR0
 747 0220 00007A44 		.word	1148846080
 748 0224 0000C842 		.word	1120403456
 749 0228 00000000 		.word	.LANCHOR5
 750 022c 00000000 		.word	.LANCHOR6
 751 0230 00000000 		.word	.LANCHOR7
 752 0234 00000000 		.word	.LANCHOR8
 753 0238 00000000 		.word	.LANCHOR9
 754 023c 00000000 		.word	.LANCHOR10
 755 0240 00000000 		.word	.LANCHOR11
 756 0244 00000000 		.word	.LANCHOR12
 757 0248 00000000 		.word	.LANCHOR13
 758 024c 00000000 		.word	.LANCHOR14
 759 0250 00000000 		.word	.LANCHOR15
 760 0254 00000000 		.word	.LANCHOR16
 761 0258 00000000 		.word	.LANCHOR17
 762 025c 00000000 		.word	.LANCHOR18
 763 0260 00000000 		.word	.LANCHOR19
 764 0264 00000000 		.word	.LANCHOR20
 765 0268 0000DC43 		.word	1138491392
 766 026c 0AD7233C 		.word	1008981770
 767 0270 CDCC4C3E 		.word	1045220557
 768 0274 00000000 		.word	_ZL13AudioCallbackPKfPfj
 769              		.cfi_endproc
ARM GAS  /var/folders/7c/668hyr3s7rlgsbdftclf3hsr0000gn/T//cctzORKV.s 			page 28


 770              	.LFE4684:
 772              		.section	.text._Z13UpdateButtonsv,"ax",%progbits
 773              		.align	1
 774              		.p2align 2,,3
 775              		.global	_Z13UpdateButtonsv
 776              		.syntax unified
 777              		.thumb
 778              		.thumb_func
 780              	_Z13UpdateButtonsv:
 781              	.LFB4685:
 125:keys.cpp      **** 
 126:keys.cpp      **** }
 127:keys.cpp      **** 
 128:keys.cpp      **** 
 129:keys.cpp      **** void UpdateButtons()
 130:keys.cpp      **** {
 782              		.loc 9 130 1 view -0
 783              		.cfi_startproc
 784              		@ args = 0, pretend = 0, frame = 0
 785              		@ frame_needed = 0, uses_anonymous_args = 0
 131:keys.cpp      **** 
 132:keys.cpp      ****     C.Debounce();
 786              		.loc 9 132 5 view .LVU192
 130:keys.cpp      **** 
 787              		.loc 9 130 1 is_stmt 0 view .LVU193
 788 0000 10B5     		push	{r4, lr}
 789              		.cfi_def_cfa_offset 8
 790              		.cfi_offset 4, -8
 791              		.cfi_offset 14, -4
 792              		.loc 9 132 15 view .LVU194
 793 0002 A548     		ldr	r0, .L92
 794 0004 FFF7FEFF 		bl	_ZN5daisy6Switch8DebounceEv
 795              	.LVL61:
 133:keys.cpp      ****     CS.Debounce();
 796              		.loc 9 133 5 is_stmt 1 view .LVU195
 797              		.loc 9 133 16 is_stmt 0 view .LVU196
 798 0008 A448     		ldr	r0, .L92+4
 799 000a FFF7FEFF 		bl	_ZN5daisy6Switch8DebounceEv
 800              	.LVL62:
 134:keys.cpp      ****     D.Debounce();
 801              		.loc 9 134 5 is_stmt 1 view .LVU197
 802              		.loc 9 134 15 is_stmt 0 view .LVU198
 803 000e A448     		ldr	r0, .L92+8
 804 0010 FFF7FEFF 		bl	_ZN5daisy6Switch8DebounceEv
 805              	.LVL63:
 135:keys.cpp      ****     DS.Debounce();
 806              		.loc 9 135 5 is_stmt 1 view .LVU199
 807              		.loc 9 135 16 is_stmt 0 view .LVU200
 808 0014 A348     		ldr	r0, .L92+12
 809 0016 FFF7FEFF 		bl	_ZN5daisy6Switch8DebounceEv
 810              	.LVL64:
 136:keys.cpp      ****     E.Debounce();
 811              		.loc 9 136 5 is_stmt 1 view .LVU201
 812              		.loc 9 136 15 is_stmt 0 view .LVU202
 813 001a A348     		ldr	r0, .L92+16
 814 001c FFF7FEFF 		bl	_ZN5daisy6Switch8DebounceEv
 815              	.LVL65:
ARM GAS  /var/folders/7c/668hyr3s7rlgsbdftclf3hsr0000gn/T//cctzORKV.s 			page 29


 137:keys.cpp      ****     F.Debounce();
 816              		.loc 9 137 5 is_stmt 1 view .LVU203
 817              		.loc 9 137 15 is_stmt 0 view .LVU204
 818 0020 A248     		ldr	r0, .L92+20
 819 0022 FFF7FEFF 		bl	_ZN5daisy6Switch8DebounceEv
 820              	.LVL66:
 138:keys.cpp      ****     FS.Debounce();
 821              		.loc 9 138 5 is_stmt 1 view .LVU205
 822              		.loc 9 138 16 is_stmt 0 view .LVU206
 823 0026 A248     		ldr	r0, .L92+24
 824 0028 FFF7FEFF 		bl	_ZN5daisy6Switch8DebounceEv
 825              	.LVL67:
 139:keys.cpp      ****     G.Debounce();
 826              		.loc 9 139 5 is_stmt 1 view .LVU207
 827              		.loc 9 139 15 is_stmt 0 view .LVU208
 828 002c A148     		ldr	r0, .L92+28
 829 002e FFF7FEFF 		bl	_ZN5daisy6Switch8DebounceEv
 830              	.LVL68:
 140:keys.cpp      ****     GS.Debounce();
 831              		.loc 9 140 5 is_stmt 1 view .LVU209
 832              		.loc 9 140 16 is_stmt 0 view .LVU210
 833 0032 A148     		ldr	r0, .L92+32
 834 0034 FFF7FEFF 		bl	_ZN5daisy6Switch8DebounceEv
 835              	.LVL69:
 141:keys.cpp      ****     A.Debounce();
 836              		.loc 9 141 5 is_stmt 1 view .LVU211
 837              		.loc 9 141 15 is_stmt 0 view .LVU212
 838 0038 A048     		ldr	r0, .L92+36
 839 003a FFF7FEFF 		bl	_ZN5daisy6Switch8DebounceEv
 840              	.LVL70:
 142:keys.cpp      ****     AS.Debounce();
 841              		.loc 9 142 5 is_stmt 1 view .LVU213
 842              		.loc 9 142 16 is_stmt 0 view .LVU214
 843 003e A048     		ldr	r0, .L92+40
 844 0040 FFF7FEFF 		bl	_ZN5daisy6Switch8DebounceEv
 845              	.LVL71:
 143:keys.cpp      ****     B.Debounce();
 846              		.loc 9 143 5 is_stmt 1 view .LVU215
 144:keys.cpp      ****     C2.Debounce();
 145:keys.cpp      ****     octave_up.Debounce();
 847              		.loc 9 145 23 is_stmt 0 view .LVU216
 848 0044 9F4C     		ldr	r4, .L92+44
 143:keys.cpp      ****     B.Debounce();
 849              		.loc 9 143 15 view .LVU217
 850 0046 A048     		ldr	r0, .L92+48
 851 0048 FFF7FEFF 		bl	_ZN5daisy6Switch8DebounceEv
 852              	.LVL72:
 144:keys.cpp      ****     C2.Debounce();
 853              		.loc 9 144 5 is_stmt 1 view .LVU218
 144:keys.cpp      ****     C2.Debounce();
 854              		.loc 9 144 16 is_stmt 0 view .LVU219
 855 004c 9F48     		ldr	r0, .L92+52
 856 004e FFF7FEFF 		bl	_ZN5daisy6Switch8DebounceEv
 857              	.LVL73:
 858              		.loc 9 145 5 is_stmt 1 view .LVU220
 859              		.loc 9 145 23 is_stmt 0 view .LVU221
 860 0052 2046     		mov	r0, r4
ARM GAS  /var/folders/7c/668hyr3s7rlgsbdftclf3hsr0000gn/T//cctzORKV.s 			page 30


 861 0054 FFF7FEFF 		bl	_ZN5daisy6Switch8DebounceEv
 862              	.LVL74:
 146:keys.cpp      ****     octave_down.Debounce();
 863              		.loc 9 146 5 is_stmt 1 view .LVU222
 864              		.loc 9 146 25 is_stmt 0 view .LVU223
 865 0058 9D48     		ldr	r0, .L92+56
 866 005a FFF7FEFF 		bl	_ZN5daisy6Switch8DebounceEv
 867              	.LVL75:
 147:keys.cpp      **** 
 148:keys.cpp      ****      if(octave_up.RisingEdge())
 868              		.loc 9 148 6 is_stmt 1 view .LVU224
 869              	.LBB295:
 870              	.LBI295:
  43:../DaisyExamples/libDaisy/src/hid/switch.h **** 
  44:../DaisyExamples/libDaisy/src/hid/switch.h ****     /** 
  45:../DaisyExamples/libDaisy/src/hid/switch.h ****     Initializes the switch object with a given port/pin combo.
  46:../DaisyExamples/libDaisy/src/hid/switch.h ****     \param pin port/pin object to tell the switch which hardware pin to use.
  47:../DaisyExamples/libDaisy/src/hid/switch.h ****     \param update_rate Does nothing. Backwards compatibility until next breaking update.
  48:../DaisyExamples/libDaisy/src/hid/switch.h ****     \param t switch type -- Default: TYPE_MOMENTARY
  49:../DaisyExamples/libDaisy/src/hid/switch.h ****     \param pol switch polarity -- Default: POLARITY_INVERTED
  50:../DaisyExamples/libDaisy/src/hid/switch.h ****     \param pu switch pull up/down -- Default: PULL_UP
  51:../DaisyExamples/libDaisy/src/hid/switch.h ****     */
  52:../DaisyExamples/libDaisy/src/hid/switch.h ****     void
  53:../DaisyExamples/libDaisy/src/hid/switch.h ****     Init(dsy_gpio_pin pin, float update_rate, Type t, Polarity pol, Pull pu);
  54:../DaisyExamples/libDaisy/src/hid/switch.h **** 
  55:../DaisyExamples/libDaisy/src/hid/switch.h ****     /**
  56:../DaisyExamples/libDaisy/src/hid/switch.h ****        Simplified Init.
  57:../DaisyExamples/libDaisy/src/hid/switch.h ****        \param pin port/pin object to tell the switch which hardware pin to use.
  58:../DaisyExamples/libDaisy/src/hid/switch.h ****        \param update_rate Left for backwards compatibility until next breaking change.
  59:../DaisyExamples/libDaisy/src/hid/switch.h ****     */
  60:../DaisyExamples/libDaisy/src/hid/switch.h ****     void Init(dsy_gpio_pin pin, float update_rate = 0.f);
  61:../DaisyExamples/libDaisy/src/hid/switch.h **** 
  62:../DaisyExamples/libDaisy/src/hid/switch.h ****     /** 
  63:../DaisyExamples/libDaisy/src/hid/switch.h ****     Called at update_rate to debounce and handle timing for the switch.
  64:../DaisyExamples/libDaisy/src/hid/switch.h ****     In order for events not to be missed, its important that the Edge/Pressed checks
  65:../DaisyExamples/libDaisy/src/hid/switch.h ****     be made at the same rate as the debounce function is being called.
  66:../DaisyExamples/libDaisy/src/hid/switch.h ****     */
  67:../DaisyExamples/libDaisy/src/hid/switch.h ****     void Debounce();
  68:../DaisyExamples/libDaisy/src/hid/switch.h **** 
  69:../DaisyExamples/libDaisy/src/hid/switch.h ****     /** \return true if a button was just pressed. */
  70:../DaisyExamples/libDaisy/src/hid/switch.h ****     inline bool RisingEdge() const { return updated_ ? state_ == 0x7f : false; }
 871              		.loc 3 70 17 view .LVU225
 872              	.LBB296:
 873              		.loc 3 70 38 view .LVU226
 874              		.loc 3 70 54 is_stmt 0 view .LVU227
 875 005e 2379     		ldrb	r3, [r4, #4]	@ zero_extendqisi2
 876 0060 1BB1     		cbz	r3, .L16
 877              	.LVL76:
 878              		.loc 3 70 54 view .LVU228
 879              	.LBE296:
 880              	.LBE295:
 881              		.loc 9 148 6 view .LVU229
 882 0062 A37A     		ldrb	r3, [r4, #10]	@ zero_extendqisi2
 883 0064 7F2B     		cmp	r3, #127
 884 0066 00F07B81 		beq	.L78
 885              	.L16:
 149:keys.cpp      ****     {
ARM GAS  /var/folders/7c/668hyr3s7rlgsbdftclf3hsr0000gn/T//cctzORKV.s 			page 31


 150:keys.cpp      ****         octave = octave * 2;
 151:keys.cpp      ****         // hw.SetLed(true);
 152:keys.cpp      ****     }
 153:keys.cpp      ****     if(octave_down.RisingEdge())
 886              		.loc 9 153 5 is_stmt 1 view .LVU230
 887              	.LVL77:
 888              	.LBB297:
 889              	.LBI297:
 890              		.loc 3 70 17 view .LVU231
 891              	.LBB298:
 892              		.loc 3 70 38 view .LVU232
 893              		.loc 3 70 45 is_stmt 0 view .LVU233
 894 006a 994B     		ldr	r3, .L92+56
 895              		.loc 3 70 54 view .LVU234
 896 006c 1A79     		ldrb	r2, [r3, #4]	@ zero_extendqisi2
 897 006e 1AB1     		cbz	r2, .L17
 898              	.LVL78:
 899              		.loc 3 70 54 view .LVU235
 900              	.LBE298:
 901              	.LBE297:
 902              		.loc 9 153 5 view .LVU236
 903 0070 9B7A     		ldrb	r3, [r3, #10]	@ zero_extendqisi2
 904 0072 7F2B     		cmp	r3, #127
 905 0074 00F06C81 		beq	.L79
 906              	.L17:
 154:keys.cpp      ****     {
 155:keys.cpp      **** 
 156:keys.cpp      ****         octave = octave / 2;
 157:keys.cpp      **** 
 158:keys.cpp      ****         // hw.SetLed(true);
 159:keys.cpp      ****     }   
 160:keys.cpp      ****     if(C.RisingEdge())
 907              		.loc 9 160 5 is_stmt 1 view .LVU237
 908              	.LVL79:
 909              	.LBB299:
 910              	.LBI299:
 911              		.loc 3 70 17 view .LVU238
 912              	.LBB300:
 913              		.loc 3 70 38 view .LVU239
 914              		.loc 3 70 45 is_stmt 0 view .LVU240
 915 0078 874B     		ldr	r3, .L92
 916              		.loc 3 70 54 view .LVU241
 917 007a 1A79     		ldrb	r2, [r3, #4]	@ zero_extendqisi2
 918 007c 1AB1     		cbz	r2, .L19
 919              	.LVL80:
 920              		.loc 3 70 54 view .LVU242
 921              	.LBE300:
 922              	.LBE299:
 923              		.loc 9 160 5 view .LVU243
 924 007e 9B7A     		ldrb	r3, [r3, #10]	@ zero_extendqisi2
 925 0080 7F2B     		cmp	r3, #127
 926 0082 00F05481 		beq	.L80
 927              	.L19:
 161:keys.cpp      ****     {
 162:keys.cpp      **** 
 163:keys.cpp      ****         oscFreq = 261.63f * octave;
 164:keys.cpp      ****         ad.Trigger();
ARM GAS  /var/folders/7c/668hyr3s7rlgsbdftclf3hsr0000gn/T//cctzORKV.s 			page 32


 165:keys.cpp      ****         // hw.SetLed(true);
 166:keys.cpp      ****     }
 167:keys.cpp      ****     if(CS.RisingEdge())
 928              		.loc 9 167 5 is_stmt 1 view .LVU244
 929              	.LVL81:
 930              	.LBB301:
 931              	.LBI301:
 932              		.loc 3 70 17 view .LVU245
 933              	.LBB302:
 934              		.loc 3 70 38 view .LVU246
 935              		.loc 3 70 45 is_stmt 0 view .LVU247
 936 0086 854B     		ldr	r3, .L92+4
 937              		.loc 3 70 54 view .LVU248
 938 0088 1A79     		ldrb	r2, [r3, #4]	@ zero_extendqisi2
 939 008a 1AB1     		cbz	r2, .L20
 940              	.LVL82:
 941              		.loc 3 70 54 view .LVU249
 942              	.LBE302:
 943              	.LBE301:
 944              		.loc 9 167 5 view .LVU250
 945 008c 9B7A     		ldrb	r3, [r3, #10]	@ zero_extendqisi2
 946 008e 7F2B     		cmp	r3, #127
 947 0090 00F03C81 		beq	.L81
 948              	.L20:
 168:keys.cpp      ****     {
 169:keys.cpp      **** 
 170:keys.cpp      ****         oscFreq = 277.18f * octave;
 171:keys.cpp      ****         // oscFreq = 277.18f; //C#
 172:keys.cpp      ****         ad.Trigger();
 173:keys.cpp      ****         // hw.SetLed(true);
 174:keys.cpp      ****     }
 175:keys.cpp      ****     if(D.RisingEdge())
 949              		.loc 9 175 5 is_stmt 1 view .LVU251
 950              	.LVL83:
 951              	.LBB303:
 952              	.LBI303:
 953              		.loc 3 70 17 view .LVU252
 954              	.LBB304:
 955              		.loc 3 70 38 view .LVU253
 956              		.loc 3 70 45 is_stmt 0 view .LVU254
 957 0094 824B     		ldr	r3, .L92+8
 958              		.loc 3 70 54 view .LVU255
 959 0096 1A79     		ldrb	r2, [r3, #4]	@ zero_extendqisi2
 960 0098 1AB1     		cbz	r2, .L21
 961              	.LVL84:
 962              		.loc 3 70 54 view .LVU256
 963              	.LBE304:
 964              	.LBE303:
 965              		.loc 9 175 5 view .LVU257
 966 009a 9B7A     		ldrb	r3, [r3, #10]	@ zero_extendqisi2
 967 009c 7F2B     		cmp	r3, #127
 968 009e 00F0EA80 		beq	.L82
 969              	.L21:
 176:keys.cpp      ****     {
 177:keys.cpp      **** 
 178:keys.cpp      ****         oscFreq = 293.66f * octave;
 179:keys.cpp      ****         ad.Trigger();
ARM GAS  /var/folders/7c/668hyr3s7rlgsbdftclf3hsr0000gn/T//cctzORKV.s 			page 33


 180:keys.cpp      ****         // hw.SetLed(true);
 181:keys.cpp      ****     }
 182:keys.cpp      ****     if(DS.RisingEdge())
 970              		.loc 9 182 5 is_stmt 1 view .LVU258
 971              	.LVL85:
 972              	.LBB305:
 973              	.LBI305:
 974              		.loc 3 70 17 view .LVU259
 975              	.LBB306:
 976              		.loc 3 70 38 view .LVU260
 977              		.loc 3 70 45 is_stmt 0 view .LVU261
 978 00a2 804B     		ldr	r3, .L92+12
 979              		.loc 3 70 54 view .LVU262
 980 00a4 1A79     		ldrb	r2, [r3, #4]	@ zero_extendqisi2
 981 00a6 1AB1     		cbz	r2, .L22
 982              	.LVL86:
 983              		.loc 3 70 54 view .LVU263
 984              	.LBE306:
 985              	.LBE305:
 986              		.loc 9 182 5 view .LVU264
 987 00a8 9B7A     		ldrb	r3, [r3, #10]	@ zero_extendqisi2
 988 00aa 7F2B     		cmp	r3, #127
 989 00ac 00F0D280 		beq	.L83
 990              	.L22:
 183:keys.cpp      ****     {
 184:keys.cpp      **** 
 185:keys.cpp      ****         oscFreq = 311.13f * octave;
 186:keys.cpp      ****         // oscFreq = 277.18f; //C#
 187:keys.cpp      ****         ad.Trigger();
 188:keys.cpp      ****         // hw.SetLed(true);
 189:keys.cpp      ****     }
 190:keys.cpp      ****     if(E.RisingEdge())
 991              		.loc 9 190 5 is_stmt 1 view .LVU265
 992              	.LVL87:
 993              	.LBB307:
 994              	.LBI307:
 995              		.loc 3 70 17 view .LVU266
 996              	.LBB308:
 997              		.loc 3 70 38 view .LVU267
 998              		.loc 3 70 45 is_stmt 0 view .LVU268
 999 00b0 7D4B     		ldr	r3, .L92+16
 1000              		.loc 3 70 54 view .LVU269
 1001 00b2 1A79     		ldrb	r2, [r3, #4]	@ zero_extendqisi2
 1002 00b4 1AB1     		cbz	r2, .L23
 1003              	.LVL88:
 1004              		.loc 3 70 54 view .LVU270
 1005              	.LBE308:
 1006              	.LBE307:
 1007              		.loc 9 190 5 view .LVU271
 1008 00b6 9B7A     		ldrb	r3, [r3, #10]	@ zero_extendqisi2
 1009 00b8 7F2B     		cmp	r3, #127
 1010 00ba 00F0BA80 		beq	.L84
 1011              	.L23:
 191:keys.cpp      ****     {
 192:keys.cpp      **** 
 193:keys.cpp      ****         oscFreq = 329.63f * octave;
 194:keys.cpp      ****         ad.Trigger();
ARM GAS  /var/folders/7c/668hyr3s7rlgsbdftclf3hsr0000gn/T//cctzORKV.s 			page 34


 195:keys.cpp      ****         // hw.SetLed(true);
 196:keys.cpp      ****     }
 197:keys.cpp      ****     if(F.RisingEdge())
 1012              		.loc 9 197 5 is_stmt 1 view .LVU272
 1013              	.LVL89:
 1014              	.LBB309:
 1015              	.LBI309:
 1016              		.loc 3 70 17 view .LVU273
 1017              	.LBB310:
 1018              		.loc 3 70 38 view .LVU274
 1019              		.loc 3 70 45 is_stmt 0 view .LVU275
 1020 00be 7B4B     		ldr	r3, .L92+20
 1021              		.loc 3 70 54 view .LVU276
 1022 00c0 1A79     		ldrb	r2, [r3, #4]	@ zero_extendqisi2
 1023 00c2 1AB1     		cbz	r2, .L24
 1024              	.LVL90:
 1025              		.loc 3 70 54 view .LVU277
 1026              	.LBE310:
 1027              	.LBE309:
 1028              		.loc 9 197 5 view .LVU278
 1029 00c4 9B7A     		ldrb	r3, [r3, #10]	@ zero_extendqisi2
 1030 00c6 7F2B     		cmp	r3, #127
 1031 00c8 00F0A280 		beq	.L85
 1032              	.L24:
 198:keys.cpp      ****     {
 199:keys.cpp      **** 
 200:keys.cpp      ****         oscFreq = 349.23f * octave;
 201:keys.cpp      ****         // oscFreq = 369.99f; // F#
 202:keys.cpp      **** 
 203:keys.cpp      ****         ad.Trigger();
 204:keys.cpp      ****         // hw.SetLed(true);
 205:keys.cpp      ****     }
 206:keys.cpp      ****     if(FS.RisingEdge())
 1033              		.loc 9 206 5 is_stmt 1 view .LVU279
 1034              	.LVL91:
 1035              	.LBB311:
 1036              	.LBI311:
 1037              		.loc 3 70 17 view .LVU280
 1038              	.LBB312:
 1039              		.loc 3 70 38 view .LVU281
 1040              		.loc 3 70 45 is_stmt 0 view .LVU282
 1041 00cc 784B     		ldr	r3, .L92+24
 1042              		.loc 3 70 54 view .LVU283
 1043 00ce 1A79     		ldrb	r2, [r3, #4]	@ zero_extendqisi2
 1044 00d0 1AB1     		cbz	r2, .L25
 1045              	.LVL92:
 1046              		.loc 3 70 54 view .LVU284
 1047              	.LBE312:
 1048              	.LBE311:
 1049              		.loc 9 206 5 view .LVU285
 1050 00d2 9B7A     		ldrb	r3, [r3, #10]	@ zero_extendqisi2
 1051 00d4 7F2B     		cmp	r3, #127
 1052 00d6 00F08A80 		beq	.L86
 1053              	.L25:
 207:keys.cpp      ****     {
 208:keys.cpp      **** 
 209:keys.cpp      ****         oscFreq = 369.99f * octave;
ARM GAS  /var/folders/7c/668hyr3s7rlgsbdftclf3hsr0000gn/T//cctzORKV.s 			page 35


 210:keys.cpp      ****         // oscFreq = 277.18f; //C#
 211:keys.cpp      ****         ad.Trigger();
 212:keys.cpp      ****         // hw.SetLed(true);
 213:keys.cpp      ****     }
 214:keys.cpp      ****     if(G.RisingEdge())
 1054              		.loc 9 214 5 is_stmt 1 view .LVU286
 1055              	.LVL93:
 1056              	.LBB313:
 1057              	.LBI313:
 1058              		.loc 3 70 17 view .LVU287
 1059              	.LBB314:
 1060              		.loc 3 70 38 view .LVU288
 1061              		.loc 3 70 45 is_stmt 0 view .LVU289
 1062 00da 764B     		ldr	r3, .L92+28
 1063              		.loc 3 70 54 view .LVU290
 1064 00dc 1A79     		ldrb	r2, [r3, #4]	@ zero_extendqisi2
 1065 00de 12B1     		cbz	r2, .L26
 1066              	.LVL94:
 1067              		.loc 3 70 54 view .LVU291
 1068              	.LBE314:
 1069              	.LBE313:
 1070              		.loc 9 214 5 view .LVU292
 1071 00e0 9B7A     		ldrb	r3, [r3, #10]	@ zero_extendqisi2
 1072 00e2 7F2B     		cmp	r3, #127
 1073 00e4 72D0     		beq	.L87
 1074              	.L26:
 215:keys.cpp      ****     {
 216:keys.cpp      **** 
 217:keys.cpp      ****         oscFreq = 392.0f * octave;
 218:keys.cpp      ****         ad.Trigger();
 219:keys.cpp      ****         // hw.SetLed(true);
 220:keys.cpp      ****     }
 221:keys.cpp      ****     if(GS.RisingEdge())
 1075              		.loc 9 221 5 is_stmt 1 view .LVU293
 1076              	.LVL95:
 1077              	.LBB315:
 1078              	.LBI315:
 1079              		.loc 3 70 17 view .LVU294
 1080              	.LBB316:
 1081              		.loc 3 70 38 view .LVU295
 1082              		.loc 3 70 45 is_stmt 0 view .LVU296
 1083 00e6 744B     		ldr	r3, .L92+32
 1084              		.loc 3 70 54 view .LVU297
 1085 00e8 1A79     		ldrb	r2, [r3, #4]	@ zero_extendqisi2
 1086 00ea 12B1     		cbz	r2, .L27
 1087              	.LVL96:
 1088              		.loc 3 70 54 view .LVU298
 1089              	.LBE316:
 1090              	.LBE315:
 1091              		.loc 9 221 5 view .LVU299
 1092 00ec 9B7A     		ldrb	r3, [r3, #10]	@ zero_extendqisi2
 1093 00ee 7F2B     		cmp	r3, #127
 1094 00f0 5BD0     		beq	.L88
 1095              	.L27:
 222:keys.cpp      ****     {
 223:keys.cpp      **** 
 224:keys.cpp      ****         oscFreq = 415.30f * octave;
ARM GAS  /var/folders/7c/668hyr3s7rlgsbdftclf3hsr0000gn/T//cctzORKV.s 			page 36


 225:keys.cpp      ****         ad.Trigger();
 226:keys.cpp      ****         // hw.SetLed(true);
 227:keys.cpp      ****     }
 228:keys.cpp      ****     if(A.RisingEdge())
 1096              		.loc 9 228 5 is_stmt 1 view .LVU300
 1097              	.LVL97:
 1098              	.LBB317:
 1099              	.LBI317:
 1100              		.loc 3 70 17 view .LVU301
 1101              	.LBB318:
 1102              		.loc 3 70 38 view .LVU302
 1103              		.loc 3 70 45 is_stmt 0 view .LVU303
 1104 00f2 724B     		ldr	r3, .L92+36
 1105              		.loc 3 70 54 view .LVU304
 1106 00f4 1A79     		ldrb	r2, [r3, #4]	@ zero_extendqisi2
 1107 00f6 12B1     		cbz	r2, .L28
 1108              	.LVL98:
 1109              		.loc 3 70 54 view .LVU305
 1110              	.LBE318:
 1111              	.LBE317:
 1112              		.loc 9 228 5 view .LVU306
 1113 00f8 9B7A     		ldrb	r3, [r3, #10]	@ zero_extendqisi2
 1114 00fa 7F2B     		cmp	r3, #127
 1115 00fc 44D0     		beq	.L89
 1116              	.L28:
 229:keys.cpp      ****     {
 230:keys.cpp      **** 
 231:keys.cpp      ****         oscFreq = 440.0f * octave;
 232:keys.cpp      ****         ad.Trigger();
 233:keys.cpp      ****         // hw.SetLed(true);
 234:keys.cpp      ****     }
 235:keys.cpp      ****     if(AS.RisingEdge())
 1117              		.loc 9 235 5 is_stmt 1 view .LVU307
 1118              	.LVL99:
 1119              	.LBB319:
 1120              	.LBI319:
 1121              		.loc 3 70 17 view .LVU308
 1122              	.LBB320:
 1123              		.loc 3 70 38 view .LVU309
 1124              		.loc 3 70 45 is_stmt 0 view .LVU310
 1125 00fe 704B     		ldr	r3, .L92+40
 1126              		.loc 3 70 54 view .LVU311
 1127 0100 1A79     		ldrb	r2, [r3, #4]	@ zero_extendqisi2
 1128 0102 12B1     		cbz	r2, .L29
 1129              	.LVL100:
 1130              		.loc 3 70 54 view .LVU312
 1131              	.LBE320:
 1132              	.LBE319:
 1133              		.loc 9 235 5 view .LVU313
 1134 0104 9B7A     		ldrb	r3, [r3, #10]	@ zero_extendqisi2
 1135 0106 7F2B     		cmp	r3, #127
 1136 0108 2DD0     		beq	.L90
 1137              	.L29:
 236:keys.cpp      ****     {
 237:keys.cpp      **** 
 238:keys.cpp      ****         oscFreq = 466.16f * octave;
 239:keys.cpp      ****         ad.Trigger();
ARM GAS  /var/folders/7c/668hyr3s7rlgsbdftclf3hsr0000gn/T//cctzORKV.s 			page 37


 240:keys.cpp      ****         // hw.SetLed(true);
 241:keys.cpp      ****     }
 242:keys.cpp      ****     if(B.RisingEdge())
 1138              		.loc 9 242 5 is_stmt 1 view .LVU314
 1139              	.LVL101:
 1140              	.LBB321:
 1141              	.LBI321:
 1142              		.loc 3 70 17 view .LVU315
 1143              	.LBB322:
 1144              		.loc 3 70 38 view .LVU316
 1145              		.loc 3 70 45 is_stmt 0 view .LVU317
 1146 010a 6F4B     		ldr	r3, .L92+48
 1147              		.loc 3 70 54 view .LVU318
 1148 010c 1A79     		ldrb	r2, [r3, #4]	@ zero_extendqisi2
 1149 010e 12B1     		cbz	r2, .L30
 1150              	.LVL102:
 1151              		.loc 3 70 54 view .LVU319
 1152              	.LBE322:
 1153              	.LBE321:
 1154              		.loc 9 242 5 view .LVU320
 1155 0110 9B7A     		ldrb	r3, [r3, #10]	@ zero_extendqisi2
 1156 0112 7F2B     		cmp	r3, #127
 1157 0114 16D0     		beq	.L91
 1158              	.L30:
 243:keys.cpp      ****     {
 244:keys.cpp      **** 
 245:keys.cpp      ****         oscFreq = 493.88f * octave;
 246:keys.cpp      ****         ad.Trigger();
 247:keys.cpp      ****         // hw.SetLed(true);
 248:keys.cpp      ****     }
 249:keys.cpp      ****     if(C2.RisingEdge())
 1159              		.loc 9 249 5 is_stmt 1 view .LVU321
 1160              	.LVL103:
 1161              	.LBB323:
 1162              	.LBI323:
 1163              		.loc 3 70 17 view .LVU322
 1164              	.LBB324:
 1165              		.loc 3 70 38 view .LVU323
 1166              		.loc 3 70 45 is_stmt 0 view .LVU324
 1167 0116 6D4B     		ldr	r3, .L92+52
 1168              		.loc 3 70 54 view .LVU325
 1169 0118 1A79     		ldrb	r2, [r3, #4]	@ zero_extendqisi2
 1170 011a 92B1     		cbz	r2, .L15
 1171              	.LVL104:
 1172              		.loc 3 70 54 view .LVU326
 1173              	.LBE324:
 1174              	.LBE323:
 1175              		.loc 9 249 5 view .LVU327
 1176 011c 9B7A     		ldrb	r3, [r3, #10]	@ zero_extendqisi2
 1177 011e 7F2B     		cmp	r3, #127
 1178 0120 0FD1     		bne	.L15
 250:keys.cpp      ****     {
 251:keys.cpp      **** 
 252:keys.cpp      ****         oscFreq = 523.25f * octave;
 1179              		.loc 9 252 9 is_stmt 1 view .LVU328
 1180              		.loc 9 252 27 is_stmt 0 view .LVU329
 1181 0122 6C49     		ldr	r1, .L92+60
ARM GAS  /var/folders/7c/668hyr3s7rlgsbdftclf3hsr0000gn/T//cctzORKV.s 			page 38


 1182 0124 9FED6C7A 		vldr.32	s14, .L92+64
 1183 0128 D1ED007A 		vldr.32	s15, [r1]	@ int
 1184              	.LBB325:
 1185              	.LBB326:
  64:../DaisyExamples/DaisySP/Source/Control/adenv.h ****     /** Sets the length of time (in seconds) for a specific segment. */
 1186              		.loc 1 64 38 view .LVU330
 1187 012c 0121     		movs	r1, #1
 1188              	.LBE326:
 1189              	.LBE325:
 1190              		.loc 9 252 17 view .LVU331
 1191 012e 6B4B     		ldr	r3, .L92+68
 1192              		.loc 9 252 27 view .LVU332
 1193 0130 F8EEE77A 		vcvt.f32.s32	s15, s15
 1194              	.LBB329:
 1195              	.LBB327:
  64:../DaisyExamples/DaisySP/Source/Control/adenv.h ****     /** Sets the length of time (in seconds) for a specific segment. */
 1196              		.loc 1 64 38 view .LVU333
 1197 0134 6A4A     		ldr	r2, .L92+72
 1198 0136 82F83410 		strb	r1, [r2, #52]
 1199              	.LBE327:
 1200              	.LBE329:
 1201              		.loc 9 252 27 view .LVU334
 1202 013a 67EE877A 		vmul.f32	s15, s15, s14
 1203              		.loc 9 252 17 view .LVU335
 1204 013e C3ED007A 		vstr.32	s15, [r3]
 253:keys.cpp      ****         ad.Trigger();
 1205              		.loc 9 253 9 is_stmt 1 view .LVU336
 1206              	.LVL105:
 1207              	.LBB330:
 1208              	.LBI325:
  64:../DaisyExamples/DaisySP/Source/Control/adenv.h ****     /** Sets the length of time (in seconds) for a specific segment. */
 1209              		.loc 1 64 17 view .LVU337
 1210              	.LBB328:
  64:../DaisyExamples/DaisySP/Source/Control/adenv.h ****     /** Sets the length of time (in seconds) for a specific segment. */
 1211              		.loc 1 64 29 view .LVU338
 1212              	.L15:
  64:../DaisyExamples/DaisySP/Source/Control/adenv.h ****     /** Sets the length of time (in seconds) for a specific segment. */
 1213              		.loc 1 64 29 is_stmt 0 view .LVU339
 1214              	.LBE328:
 1215              	.LBE330:
 254:keys.cpp      ****         // hw.SetLed(true);
 255:keys.cpp      ****     }
 256:keys.cpp      **** 
 257:keys.cpp      **** }
 1216              		.loc 9 257 1 view .LVU340
 1217 0142 10BD     		pop	{r4, pc}
 1218              	.L91:
 245:keys.cpp      ****         ad.Trigger();
 1219              		.loc 9 245 9 is_stmt 1 view .LVU341
 245:keys.cpp      ****         ad.Trigger();
 1220              		.loc 9 245 27 is_stmt 0 view .LVU342
 1221 0144 6349     		ldr	r1, .L92+60
 1222 0146 9FED677A 		vldr.32	s14, .L92+76
 1223 014a D1ED007A 		vldr.32	s15, [r1]	@ int
 1224              	.LBB331:
 1225              	.LBB332:
  64:../DaisyExamples/DaisySP/Source/Control/adenv.h ****     /** Sets the length of time (in seconds) for a specific segment. */
ARM GAS  /var/folders/7c/668hyr3s7rlgsbdftclf3hsr0000gn/T//cctzORKV.s 			page 39


 1226              		.loc 1 64 38 view .LVU343
 1227 014e 0121     		movs	r1, #1
 1228              	.LBE332:
 1229              	.LBE331:
 245:keys.cpp      ****         ad.Trigger();
 1230              		.loc 9 245 17 view .LVU344
 1231 0150 624B     		ldr	r3, .L92+68
 245:keys.cpp      ****         ad.Trigger();
 1232              		.loc 9 245 27 view .LVU345
 1233 0152 F8EEE77A 		vcvt.f32.s32	s15, s15
 1234              	.LBB335:
 1235              	.LBB333:
  64:../DaisyExamples/DaisySP/Source/Control/adenv.h ****     /** Sets the length of time (in seconds) for a specific segment. */
 1236              		.loc 1 64 38 view .LVU346
 1237 0156 624A     		ldr	r2, .L92+72
 1238 0158 82F83410 		strb	r1, [r2, #52]
 1239              	.LBE333:
 1240              	.LBE335:
 245:keys.cpp      ****         ad.Trigger();
 1241              		.loc 9 245 27 view .LVU347
 1242 015c 67EE877A 		vmul.f32	s15, s15, s14
 245:keys.cpp      ****         ad.Trigger();
 1243              		.loc 9 245 17 view .LVU348
 1244 0160 C3ED007A 		vstr.32	s15, [r3]
 246:keys.cpp      ****         // hw.SetLed(true);
 1245              		.loc 9 246 9 is_stmt 1 view .LVU349
 1246              	.LVL106:
 1247              	.LBB336:
 1248              	.LBI331:
  64:../DaisyExamples/DaisySP/Source/Control/adenv.h ****     /** Sets the length of time (in seconds) for a specific segment. */
 1249              		.loc 1 64 17 view .LVU350
 1250              	.LBB334:
  64:../DaisyExamples/DaisySP/Source/Control/adenv.h ****     /** Sets the length of time (in seconds) for a specific segment. */
 1251              		.loc 1 64 29 view .LVU351
  64:../DaisyExamples/DaisySP/Source/Control/adenv.h ****     /** Sets the length of time (in seconds) for a specific segment. */
 1252              		.loc 1 64 43 is_stmt 0 view .LVU352
 1253 0164 D7E7     		b	.L30
 1254              	.LVL107:
 1255              	.L90:
  64:../DaisyExamples/DaisySP/Source/Control/adenv.h ****     /** Sets the length of time (in seconds) for a specific segment. */
 1256              		.loc 1 64 43 view .LVU353
 1257              	.LBE334:
 1258              	.LBE336:
 238:keys.cpp      ****         ad.Trigger();
 1259              		.loc 9 238 9 is_stmt 1 view .LVU354
 238:keys.cpp      ****         ad.Trigger();
 1260              		.loc 9 238 27 is_stmt 0 view .LVU355
 1261 0166 5B49     		ldr	r1, .L92+60
 1262 0168 9FED5F7A 		vldr.32	s14, .L92+80
 1263 016c D1ED007A 		vldr.32	s15, [r1]	@ int
 1264              	.LBB337:
 1265              	.LBB338:
  64:../DaisyExamples/DaisySP/Source/Control/adenv.h ****     /** Sets the length of time (in seconds) for a specific segment. */
 1266              		.loc 1 64 38 view .LVU356
 1267 0170 0121     		movs	r1, #1
 1268              	.LBE338:
 1269              	.LBE337:
ARM GAS  /var/folders/7c/668hyr3s7rlgsbdftclf3hsr0000gn/T//cctzORKV.s 			page 40


 238:keys.cpp      ****         ad.Trigger();
 1270              		.loc 9 238 17 view .LVU357
 1271 0172 5A4B     		ldr	r3, .L92+68
 238:keys.cpp      ****         ad.Trigger();
 1272              		.loc 9 238 27 view .LVU358
 1273 0174 F8EEE77A 		vcvt.f32.s32	s15, s15
 1274              	.LBB341:
 1275              	.LBB339:
  64:../DaisyExamples/DaisySP/Source/Control/adenv.h ****     /** Sets the length of time (in seconds) for a specific segment. */
 1276              		.loc 1 64 38 view .LVU359
 1277 0178 594A     		ldr	r2, .L92+72
 1278 017a 82F83410 		strb	r1, [r2, #52]
 1279              	.LBE339:
 1280              	.LBE341:
 238:keys.cpp      ****         ad.Trigger();
 1281              		.loc 9 238 27 view .LVU360
 1282 017e 67EE877A 		vmul.f32	s15, s15, s14
 238:keys.cpp      ****         ad.Trigger();
 1283              		.loc 9 238 17 view .LVU361
 1284 0182 C3ED007A 		vstr.32	s15, [r3]
 239:keys.cpp      ****         // hw.SetLed(true);
 1285              		.loc 9 239 9 is_stmt 1 view .LVU362
 1286              	.LVL108:
 1287              	.LBB342:
 1288              	.LBI337:
  64:../DaisyExamples/DaisySP/Source/Control/adenv.h ****     /** Sets the length of time (in seconds) for a specific segment. */
 1289              		.loc 1 64 17 view .LVU363
 1290              	.LBB340:
  64:../DaisyExamples/DaisySP/Source/Control/adenv.h ****     /** Sets the length of time (in seconds) for a specific segment. */
 1291              		.loc 1 64 29 view .LVU364
  64:../DaisyExamples/DaisySP/Source/Control/adenv.h ****     /** Sets the length of time (in seconds) for a specific segment. */
 1292              		.loc 1 64 43 is_stmt 0 view .LVU365
 1293 0186 C0E7     		b	.L29
 1294              	.LVL109:
 1295              	.L89:
  64:../DaisyExamples/DaisySP/Source/Control/adenv.h ****     /** Sets the length of time (in seconds) for a specific segment. */
 1296              		.loc 1 64 43 view .LVU366
 1297              	.LBE340:
 1298              	.LBE342:
 231:keys.cpp      ****         ad.Trigger();
 1299              		.loc 9 231 9 is_stmt 1 view .LVU367
 231:keys.cpp      ****         ad.Trigger();
 1300              		.loc 9 231 26 is_stmt 0 view .LVU368
 1301 0188 5249     		ldr	r1, .L92+60
 1302 018a 9FED587A 		vldr.32	s14, .L92+84
 1303 018e D1ED007A 		vldr.32	s15, [r1]	@ int
 1304              	.LBB343:
 1305              	.LBB344:
  64:../DaisyExamples/DaisySP/Source/Control/adenv.h ****     /** Sets the length of time (in seconds) for a specific segment. */
 1306              		.loc 1 64 38 view .LVU369
 1307 0192 0121     		movs	r1, #1
 1308              	.LBE344:
 1309              	.LBE343:
 231:keys.cpp      ****         ad.Trigger();
 1310              		.loc 9 231 17 view .LVU370
 1311 0194 514B     		ldr	r3, .L92+68
 231:keys.cpp      ****         ad.Trigger();
ARM GAS  /var/folders/7c/668hyr3s7rlgsbdftclf3hsr0000gn/T//cctzORKV.s 			page 41


 1312              		.loc 9 231 26 view .LVU371
 1313 0196 F8EEE77A 		vcvt.f32.s32	s15, s15
 1314              	.LBB347:
 1315              	.LBB345:
  64:../DaisyExamples/DaisySP/Source/Control/adenv.h ****     /** Sets the length of time (in seconds) for a specific segment. */
 1316              		.loc 1 64 38 view .LVU372
 1317 019a 514A     		ldr	r2, .L92+72
 1318 019c 82F83410 		strb	r1, [r2, #52]
 1319              	.LBE345:
 1320              	.LBE347:
 231:keys.cpp      ****         ad.Trigger();
 1321              		.loc 9 231 26 view .LVU373
 1322 01a0 67EE877A 		vmul.f32	s15, s15, s14
 231:keys.cpp      ****         ad.Trigger();
 1323              		.loc 9 231 17 view .LVU374
 1324 01a4 C3ED007A 		vstr.32	s15, [r3]
 232:keys.cpp      ****         // hw.SetLed(true);
 1325              		.loc 9 232 9 is_stmt 1 view .LVU375
 1326              	.LVL110:
 1327              	.LBB348:
 1328              	.LBI343:
  64:../DaisyExamples/DaisySP/Source/Control/adenv.h ****     /** Sets the length of time (in seconds) for a specific segment. */
 1329              		.loc 1 64 17 view .LVU376
 1330              	.LBB346:
  64:../DaisyExamples/DaisySP/Source/Control/adenv.h ****     /** Sets the length of time (in seconds) for a specific segment. */
 1331              		.loc 1 64 29 view .LVU377
  64:../DaisyExamples/DaisySP/Source/Control/adenv.h ****     /** Sets the length of time (in seconds) for a specific segment. */
 1332              		.loc 1 64 43 is_stmt 0 view .LVU378
 1333 01a8 A9E7     		b	.L28
 1334              	.LVL111:
 1335              	.L88:
  64:../DaisyExamples/DaisySP/Source/Control/adenv.h ****     /** Sets the length of time (in seconds) for a specific segment. */
 1336              		.loc 1 64 43 view .LVU379
 1337              	.LBE346:
 1338              	.LBE348:
 224:keys.cpp      ****         ad.Trigger();
 1339              		.loc 9 224 9 is_stmt 1 view .LVU380
 224:keys.cpp      ****         ad.Trigger();
 1340              		.loc 9 224 27 is_stmt 0 view .LVU381
 1341 01aa 4A49     		ldr	r1, .L92+60
 1342 01ac 9FED507A 		vldr.32	s14, .L92+88
 1343 01b0 D1ED007A 		vldr.32	s15, [r1]	@ int
 1344              	.LBB349:
 1345              	.LBB350:
  64:../DaisyExamples/DaisySP/Source/Control/adenv.h ****     /** Sets the length of time (in seconds) for a specific segment. */
 1346              		.loc 1 64 38 view .LVU382
 1347 01b4 0121     		movs	r1, #1
 1348              	.LBE350:
 1349              	.LBE349:
 224:keys.cpp      ****         ad.Trigger();
 1350              		.loc 9 224 17 view .LVU383
 1351 01b6 494B     		ldr	r3, .L92+68
 224:keys.cpp      ****         ad.Trigger();
 1352              		.loc 9 224 27 view .LVU384
 1353 01b8 F8EEE77A 		vcvt.f32.s32	s15, s15
 1354              	.LBB353:
 1355              	.LBB351:
ARM GAS  /var/folders/7c/668hyr3s7rlgsbdftclf3hsr0000gn/T//cctzORKV.s 			page 42


  64:../DaisyExamples/DaisySP/Source/Control/adenv.h ****     /** Sets the length of time (in seconds) for a specific segment. */
 1356              		.loc 1 64 38 view .LVU385
 1357 01bc 484A     		ldr	r2, .L92+72
 1358 01be 82F83410 		strb	r1, [r2, #52]
 1359              	.LBE351:
 1360              	.LBE353:
 224:keys.cpp      ****         ad.Trigger();
 1361              		.loc 9 224 27 view .LVU386
 1362 01c2 67EE877A 		vmul.f32	s15, s15, s14
 224:keys.cpp      ****         ad.Trigger();
 1363              		.loc 9 224 17 view .LVU387
 1364 01c6 C3ED007A 		vstr.32	s15, [r3]
 225:keys.cpp      ****         // hw.SetLed(true);
 1365              		.loc 9 225 9 is_stmt 1 view .LVU388
 1366              	.LVL112:
 1367              	.LBB354:
 1368              	.LBI349:
  64:../DaisyExamples/DaisySP/Source/Control/adenv.h ****     /** Sets the length of time (in seconds) for a specific segment. */
 1369              		.loc 1 64 17 view .LVU389
 1370              	.LBB352:
  64:../DaisyExamples/DaisySP/Source/Control/adenv.h ****     /** Sets the length of time (in seconds) for a specific segment. */
 1371              		.loc 1 64 29 view .LVU390
  64:../DaisyExamples/DaisySP/Source/Control/adenv.h ****     /** Sets the length of time (in seconds) for a specific segment. */
 1372              		.loc 1 64 43 is_stmt 0 view .LVU391
 1373 01ca 92E7     		b	.L27
 1374              	.LVL113:
 1375              	.L87:
  64:../DaisyExamples/DaisySP/Source/Control/adenv.h ****     /** Sets the length of time (in seconds) for a specific segment. */
 1376              		.loc 1 64 43 view .LVU392
 1377              	.LBE352:
 1378              	.LBE354:
 217:keys.cpp      ****         ad.Trigger();
 1379              		.loc 9 217 9 is_stmt 1 view .LVU393
 217:keys.cpp      ****         ad.Trigger();
 1380              		.loc 9 217 26 is_stmt 0 view .LVU394
 1381 01cc 4149     		ldr	r1, .L92+60
 1382 01ce 9FED497A 		vldr.32	s14, .L92+92
 1383 01d2 D1ED007A 		vldr.32	s15, [r1]	@ int
 1384              	.LBB355:
 1385              	.LBB356:
  64:../DaisyExamples/DaisySP/Source/Control/adenv.h ****     /** Sets the length of time (in seconds) for a specific segment. */
 1386              		.loc 1 64 38 view .LVU395
 1387 01d6 0121     		movs	r1, #1
 1388              	.LBE356:
 1389              	.LBE355:
 217:keys.cpp      ****         ad.Trigger();
 1390              		.loc 9 217 17 view .LVU396
 1391 01d8 404B     		ldr	r3, .L92+68
 217:keys.cpp      ****         ad.Trigger();
 1392              		.loc 9 217 26 view .LVU397
 1393 01da F8EEE77A 		vcvt.f32.s32	s15, s15
 1394              	.LBB359:
 1395              	.LBB357:
  64:../DaisyExamples/DaisySP/Source/Control/adenv.h ****     /** Sets the length of time (in seconds) for a specific segment. */
 1396              		.loc 1 64 38 view .LVU398
 1397 01de 404A     		ldr	r2, .L92+72
 1398 01e0 82F83410 		strb	r1, [r2, #52]
ARM GAS  /var/folders/7c/668hyr3s7rlgsbdftclf3hsr0000gn/T//cctzORKV.s 			page 43


 1399              	.LBE357:
 1400              	.LBE359:
 217:keys.cpp      ****         ad.Trigger();
 1401              		.loc 9 217 26 view .LVU399
 1402 01e4 67EE877A 		vmul.f32	s15, s15, s14
 217:keys.cpp      ****         ad.Trigger();
 1403              		.loc 9 217 17 view .LVU400
 1404 01e8 C3ED007A 		vstr.32	s15, [r3]
 218:keys.cpp      ****         // hw.SetLed(true);
 1405              		.loc 9 218 9 is_stmt 1 view .LVU401
 1406              	.LVL114:
 1407              	.LBB360:
 1408              	.LBI355:
  64:../DaisyExamples/DaisySP/Source/Control/adenv.h ****     /** Sets the length of time (in seconds) for a specific segment. */
 1409              		.loc 1 64 17 view .LVU402
 1410              	.LBB358:
  64:../DaisyExamples/DaisySP/Source/Control/adenv.h ****     /** Sets the length of time (in seconds) for a specific segment. */
 1411              		.loc 1 64 29 view .LVU403
  64:../DaisyExamples/DaisySP/Source/Control/adenv.h ****     /** Sets the length of time (in seconds) for a specific segment. */
 1412              		.loc 1 64 43 is_stmt 0 view .LVU404
 1413 01ec 7BE7     		b	.L26
 1414              	.LVL115:
 1415              	.L86:
  64:../DaisyExamples/DaisySP/Source/Control/adenv.h ****     /** Sets the length of time (in seconds) for a specific segment. */
 1416              		.loc 1 64 43 view .LVU405
 1417              	.LBE358:
 1418              	.LBE360:
 209:keys.cpp      ****         // oscFreq = 277.18f; //C#
 1419              		.loc 9 209 9 is_stmt 1 view .LVU406
 209:keys.cpp      ****         // oscFreq = 277.18f; //C#
 1420              		.loc 9 209 27 is_stmt 0 view .LVU407
 1421 01ee 3949     		ldr	r1, .L92+60
 1422 01f0 9FED417A 		vldr.32	s14, .L92+96
 1423 01f4 D1ED007A 		vldr.32	s15, [r1]	@ int
 1424              	.LBB361:
 1425              	.LBB362:
  64:../DaisyExamples/DaisySP/Source/Control/adenv.h ****     /** Sets the length of time (in seconds) for a specific segment. */
 1426              		.loc 1 64 38 view .LVU408
 1427 01f8 0121     		movs	r1, #1
 1428              	.LBE362:
 1429              	.LBE361:
 209:keys.cpp      ****         // oscFreq = 277.18f; //C#
 1430              		.loc 9 209 17 view .LVU409
 1431 01fa 384B     		ldr	r3, .L92+68
 209:keys.cpp      ****         // oscFreq = 277.18f; //C#
 1432              		.loc 9 209 27 view .LVU410
 1433 01fc F8EEE77A 		vcvt.f32.s32	s15, s15
 1434              	.LBB365:
 1435              	.LBB363:
  64:../DaisyExamples/DaisySP/Source/Control/adenv.h ****     /** Sets the length of time (in seconds) for a specific segment. */
 1436              		.loc 1 64 38 view .LVU411
 1437 0200 374A     		ldr	r2, .L92+72
 1438 0202 82F83410 		strb	r1, [r2, #52]
 1439              	.LBE363:
 1440              	.LBE365:
 209:keys.cpp      ****         // oscFreq = 277.18f; //C#
 1441              		.loc 9 209 27 view .LVU412
ARM GAS  /var/folders/7c/668hyr3s7rlgsbdftclf3hsr0000gn/T//cctzORKV.s 			page 44


 1442 0206 67EE877A 		vmul.f32	s15, s15, s14
 209:keys.cpp      ****         // oscFreq = 277.18f; //C#
 1443              		.loc 9 209 17 view .LVU413
 1444 020a C3ED007A 		vstr.32	s15, [r3]
 211:keys.cpp      ****         // hw.SetLed(true);
 1445              		.loc 9 211 9 is_stmt 1 view .LVU414
 1446              	.LVL116:
 1447              	.LBB366:
 1448              	.LBI361:
  64:../DaisyExamples/DaisySP/Source/Control/adenv.h ****     /** Sets the length of time (in seconds) for a specific segment. */
 1449              		.loc 1 64 17 view .LVU415
 1450              	.LBB364:
  64:../DaisyExamples/DaisySP/Source/Control/adenv.h ****     /** Sets the length of time (in seconds) for a specific segment. */
 1451              		.loc 1 64 29 view .LVU416
  64:../DaisyExamples/DaisySP/Source/Control/adenv.h ****     /** Sets the length of time (in seconds) for a specific segment. */
 1452              		.loc 1 64 43 is_stmt 0 view .LVU417
 1453 020e 64E7     		b	.L25
 1454              	.LVL117:
 1455              	.L85:
  64:../DaisyExamples/DaisySP/Source/Control/adenv.h ****     /** Sets the length of time (in seconds) for a specific segment. */
 1456              		.loc 1 64 43 view .LVU418
 1457              	.LBE364:
 1458              	.LBE366:
 200:keys.cpp      ****         // oscFreq = 369.99f; // F#
 1459              		.loc 9 200 9 is_stmt 1 view .LVU419
 200:keys.cpp      ****         // oscFreq = 369.99f; // F#
 1460              		.loc 9 200 27 is_stmt 0 view .LVU420
 1461 0210 3049     		ldr	r1, .L92+60
 1462 0212 9FED3A7A 		vldr.32	s14, .L92+100
 1463 0216 D1ED007A 		vldr.32	s15, [r1]	@ int
 1464              	.LBB367:
 1465              	.LBB368:
  64:../DaisyExamples/DaisySP/Source/Control/adenv.h ****     /** Sets the length of time (in seconds) for a specific segment. */
 1466              		.loc 1 64 38 view .LVU421
 1467 021a 0121     		movs	r1, #1
 1468              	.LBE368:
 1469              	.LBE367:
 200:keys.cpp      ****         // oscFreq = 369.99f; // F#
 1470              		.loc 9 200 17 view .LVU422
 1471 021c 2F4B     		ldr	r3, .L92+68
 200:keys.cpp      ****         // oscFreq = 369.99f; // F#
 1472              		.loc 9 200 27 view .LVU423
 1473 021e F8EEE77A 		vcvt.f32.s32	s15, s15
 1474              	.LBB371:
 1475              	.LBB369:
  64:../DaisyExamples/DaisySP/Source/Control/adenv.h ****     /** Sets the length of time (in seconds) for a specific segment. */
 1476              		.loc 1 64 38 view .LVU424
 1477 0222 2F4A     		ldr	r2, .L92+72
 1478 0224 82F83410 		strb	r1, [r2, #52]
 1479              	.LBE369:
 1480              	.LBE371:
 200:keys.cpp      ****         // oscFreq = 369.99f; // F#
 1481              		.loc 9 200 27 view .LVU425
 1482 0228 67EE877A 		vmul.f32	s15, s15, s14
 200:keys.cpp      ****         // oscFreq = 369.99f; // F#
 1483              		.loc 9 200 17 view .LVU426
 1484 022c C3ED007A 		vstr.32	s15, [r3]
ARM GAS  /var/folders/7c/668hyr3s7rlgsbdftclf3hsr0000gn/T//cctzORKV.s 			page 45


 203:keys.cpp      ****         // hw.SetLed(true);
 1485              		.loc 9 203 9 is_stmt 1 view .LVU427
 1486              	.LVL118:
 1487              	.LBB372:
 1488              	.LBI367:
  64:../DaisyExamples/DaisySP/Source/Control/adenv.h ****     /** Sets the length of time (in seconds) for a specific segment. */
 1489              		.loc 1 64 17 view .LVU428
 1490              	.LBB370:
  64:../DaisyExamples/DaisySP/Source/Control/adenv.h ****     /** Sets the length of time (in seconds) for a specific segment. */
 1491              		.loc 1 64 29 view .LVU429
  64:../DaisyExamples/DaisySP/Source/Control/adenv.h ****     /** Sets the length of time (in seconds) for a specific segment. */
 1492              		.loc 1 64 43 is_stmt 0 view .LVU430
 1493 0230 4CE7     		b	.L24
 1494              	.LVL119:
 1495              	.L84:
  64:../DaisyExamples/DaisySP/Source/Control/adenv.h ****     /** Sets the length of time (in seconds) for a specific segment. */
 1496              		.loc 1 64 43 view .LVU431
 1497              	.LBE370:
 1498              	.LBE372:
 193:keys.cpp      ****         ad.Trigger();
 1499              		.loc 9 193 9 is_stmt 1 view .LVU432
 193:keys.cpp      ****         ad.Trigger();
 1500              		.loc 9 193 27 is_stmt 0 view .LVU433
 1501 0232 2849     		ldr	r1, .L92+60
 1502 0234 9FED327A 		vldr.32	s14, .L92+104
 1503 0238 D1ED007A 		vldr.32	s15, [r1]	@ int
 1504              	.LBB373:
 1505              	.LBB374:
  64:../DaisyExamples/DaisySP/Source/Control/adenv.h ****     /** Sets the length of time (in seconds) for a specific segment. */
 1506              		.loc 1 64 38 view .LVU434
 1507 023c 0121     		movs	r1, #1
 1508              	.LBE374:
 1509              	.LBE373:
 193:keys.cpp      ****         ad.Trigger();
 1510              		.loc 9 193 17 view .LVU435
 1511 023e 274B     		ldr	r3, .L92+68
 193:keys.cpp      ****         ad.Trigger();
 1512              		.loc 9 193 27 view .LVU436
 1513 0240 F8EEE77A 		vcvt.f32.s32	s15, s15
 1514              	.LBB377:
 1515              	.LBB375:
  64:../DaisyExamples/DaisySP/Source/Control/adenv.h ****     /** Sets the length of time (in seconds) for a specific segment. */
 1516              		.loc 1 64 38 view .LVU437
 1517 0244 264A     		ldr	r2, .L92+72
 1518 0246 82F83410 		strb	r1, [r2, #52]
 1519              	.LBE375:
 1520              	.LBE377:
 193:keys.cpp      ****         ad.Trigger();
 1521              		.loc 9 193 27 view .LVU438
 1522 024a 67EE877A 		vmul.f32	s15, s15, s14
 193:keys.cpp      ****         ad.Trigger();
 1523              		.loc 9 193 17 view .LVU439
 1524 024e C3ED007A 		vstr.32	s15, [r3]
 194:keys.cpp      ****         // hw.SetLed(true);
 1525              		.loc 9 194 9 is_stmt 1 view .LVU440
 1526              	.LVL120:
 1527              	.LBB378:
ARM GAS  /var/folders/7c/668hyr3s7rlgsbdftclf3hsr0000gn/T//cctzORKV.s 			page 46


 1528              	.LBI373:
  64:../DaisyExamples/DaisySP/Source/Control/adenv.h ****     /** Sets the length of time (in seconds) for a specific segment. */
 1529              		.loc 1 64 17 view .LVU441
 1530              	.LBB376:
  64:../DaisyExamples/DaisySP/Source/Control/adenv.h ****     /** Sets the length of time (in seconds) for a specific segment. */
 1531              		.loc 1 64 29 view .LVU442
  64:../DaisyExamples/DaisySP/Source/Control/adenv.h ****     /** Sets the length of time (in seconds) for a specific segment. */
 1532              		.loc 1 64 43 is_stmt 0 view .LVU443
 1533 0252 34E7     		b	.L23
 1534              	.LVL121:
 1535              	.L83:
  64:../DaisyExamples/DaisySP/Source/Control/adenv.h ****     /** Sets the length of time (in seconds) for a specific segment. */
 1536              		.loc 1 64 43 view .LVU444
 1537              	.LBE376:
 1538              	.LBE378:
 185:keys.cpp      ****         // oscFreq = 277.18f; //C#
 1539              		.loc 9 185 9 is_stmt 1 view .LVU445
 185:keys.cpp      ****         // oscFreq = 277.18f; //C#
 1540              		.loc 9 185 27 is_stmt 0 view .LVU446
 1541 0254 1F49     		ldr	r1, .L92+60
 1542 0256 9FED2B7A 		vldr.32	s14, .L92+108
 1543 025a D1ED007A 		vldr.32	s15, [r1]	@ int
 1544              	.LBB379:
 1545              	.LBB380:
  64:../DaisyExamples/DaisySP/Source/Control/adenv.h ****     /** Sets the length of time (in seconds) for a specific segment. */
 1546              		.loc 1 64 38 view .LVU447
 1547 025e 0121     		movs	r1, #1
 1548              	.LBE380:
 1549              	.LBE379:
 185:keys.cpp      ****         // oscFreq = 277.18f; //C#
 1550              		.loc 9 185 17 view .LVU448
 1551 0260 1E4B     		ldr	r3, .L92+68
 185:keys.cpp      ****         // oscFreq = 277.18f; //C#
 1552              		.loc 9 185 27 view .LVU449
 1553 0262 F8EEE77A 		vcvt.f32.s32	s15, s15
 1554              	.LBB383:
 1555              	.LBB381:
  64:../DaisyExamples/DaisySP/Source/Control/adenv.h ****     /** Sets the length of time (in seconds) for a specific segment. */
 1556              		.loc 1 64 38 view .LVU450
 1557 0266 1E4A     		ldr	r2, .L92+72
 1558 0268 82F83410 		strb	r1, [r2, #52]
 1559              	.LBE381:
 1560              	.LBE383:
 185:keys.cpp      ****         // oscFreq = 277.18f; //C#
 1561              		.loc 9 185 27 view .LVU451
 1562 026c 67EE877A 		vmul.f32	s15, s15, s14
 185:keys.cpp      ****         // oscFreq = 277.18f; //C#
 1563              		.loc 9 185 17 view .LVU452
 1564 0270 C3ED007A 		vstr.32	s15, [r3]
 187:keys.cpp      ****         // hw.SetLed(true);
 1565              		.loc 9 187 9 is_stmt 1 view .LVU453
 1566              	.LVL122:
 1567              	.LBB384:
 1568              	.LBI379:
  64:../DaisyExamples/DaisySP/Source/Control/adenv.h ****     /** Sets the length of time (in seconds) for a specific segment. */
 1569              		.loc 1 64 17 view .LVU454
 1570              	.LBB382:
ARM GAS  /var/folders/7c/668hyr3s7rlgsbdftclf3hsr0000gn/T//cctzORKV.s 			page 47


  64:../DaisyExamples/DaisySP/Source/Control/adenv.h ****     /** Sets the length of time (in seconds) for a specific segment. */
 1571              		.loc 1 64 29 view .LVU455
  64:../DaisyExamples/DaisySP/Source/Control/adenv.h ****     /** Sets the length of time (in seconds) for a specific segment. */
 1572              		.loc 1 64 43 is_stmt 0 view .LVU456
 1573 0274 1CE7     		b	.L22
 1574              	.LVL123:
 1575              	.L82:
  64:../DaisyExamples/DaisySP/Source/Control/adenv.h ****     /** Sets the length of time (in seconds) for a specific segment. */
 1576              		.loc 1 64 43 view .LVU457
 1577              	.LBE382:
 1578              	.LBE384:
 178:keys.cpp      ****         ad.Trigger();
 1579              		.loc 9 178 9 is_stmt 1 view .LVU458
 178:keys.cpp      ****         ad.Trigger();
 1580              		.loc 9 178 27 is_stmt 0 view .LVU459
 1581 0276 1749     		ldr	r1, .L92+60
 1582 0278 9FED237A 		vldr.32	s14, .L92+112
 1583 027c D1ED007A 		vldr.32	s15, [r1]	@ int
 1584              	.LBB385:
 1585              	.LBB386:
  64:../DaisyExamples/DaisySP/Source/Control/adenv.h ****     /** Sets the length of time (in seconds) for a specific segment. */
 1586              		.loc 1 64 38 view .LVU460
 1587 0280 0121     		movs	r1, #1
 1588              	.LBE386:
 1589              	.LBE385:
 178:keys.cpp      ****         ad.Trigger();
 1590              		.loc 9 178 17 view .LVU461
 1591 0282 164B     		ldr	r3, .L92+68
 178:keys.cpp      ****         ad.Trigger();
 1592              		.loc 9 178 27 view .LVU462
 1593 0284 F8EEE77A 		vcvt.f32.s32	s15, s15
 1594              	.LBB389:
 1595              	.LBB387:
  64:../DaisyExamples/DaisySP/Source/Control/adenv.h ****     /** Sets the length of time (in seconds) for a specific segment. */
 1596              		.loc 1 64 38 view .LVU463
 1597 0288 154A     		ldr	r2, .L92+72
 1598 028a 82F83410 		strb	r1, [r2, #52]
 1599              	.LBE387:
 1600              	.LBE389:
 178:keys.cpp      ****         ad.Trigger();
 1601              		.loc 9 178 27 view .LVU464
 1602 028e 67EE877A 		vmul.f32	s15, s15, s14
 178:keys.cpp      ****         ad.Trigger();
 1603              		.loc 9 178 17 view .LVU465
 1604 0292 C3ED007A 		vstr.32	s15, [r3]
 179:keys.cpp      ****         // hw.SetLed(true);
 1605              		.loc 9 179 9 is_stmt 1 view .LVU466
 1606              	.LVL124:
 1607              	.LBB390:
 1608              	.LBI385:
  64:../DaisyExamples/DaisySP/Source/Control/adenv.h ****     /** Sets the length of time (in seconds) for a specific segment. */
 1609              		.loc 1 64 17 view .LVU467
 1610              	.LBB388:
  64:../DaisyExamples/DaisySP/Source/Control/adenv.h ****     /** Sets the length of time (in seconds) for a specific segment. */
 1611              		.loc 1 64 29 view .LVU468
  64:../DaisyExamples/DaisySP/Source/Control/adenv.h ****     /** Sets the length of time (in seconds) for a specific segment. */
 1612              		.loc 1 64 43 is_stmt 0 view .LVU469
ARM GAS  /var/folders/7c/668hyr3s7rlgsbdftclf3hsr0000gn/T//cctzORKV.s 			page 48


 1613 0296 04E7     		b	.L21
 1614              	.L93:
 1615              		.align	2
 1616              	.L92:
 1617 0298 00000000 		.word	.LANCHOR17
 1618 029c 00000000 		.word	.LANCHOR16
 1619 02a0 00000000 		.word	.LANCHOR15
 1620 02a4 00000000 		.word	.LANCHOR14
 1621 02a8 00000000 		.word	.LANCHOR13
 1622 02ac 00000000 		.word	.LANCHOR12
 1623 02b0 00000000 		.word	.LANCHOR11
 1624 02b4 00000000 		.word	.LANCHOR10
 1625 02b8 00000000 		.word	.LANCHOR9
 1626 02bc 00000000 		.word	.LANCHOR8
 1627 02c0 00000000 		.word	.LANCHOR7
 1628 02c4 00000000 		.word	.LANCHOR18
 1629 02c8 00000000 		.word	.LANCHOR6
 1630 02cc 00000000 		.word	.LANCHOR5
 1631 02d0 00000000 		.word	.LANCHOR19
 1632 02d4 00000000 		.word	.LANCHOR3
 1633 02d8 00D00244 		.word	1141035008
 1634 02dc 00000000 		.word	.LANCHOR1
 1635 02e0 00000000 		.word	.LANCHOR0
 1636 02e4 A4F0F643 		.word	1140256932
 1637 02e8 7B14E943 		.word	1139348603
 1638 02ec 0000DC43 		.word	1138491392
 1639 02f0 66A6CF43 		.word	1137682022
 1640 02f4 0000C443 		.word	1136918528
 1641 02f8 B8FEB843 		.word	1136197304
 1642 02fc 719DAE43 		.word	1135517041
 1643 0300 A4D0A443 		.word	1134874788
 1644 0304 A4909B43 		.word	1134268580
 1645 0308 7BD49243 		.word	1133696123
 1646              	.LVL125:
 1647              	.L81:
  64:../DaisyExamples/DaisySP/Source/Control/adenv.h ****     /** Sets the length of time (in seconds) for a specific segment. */
 1648              		.loc 1 64 43 view .LVU470
 1649              	.LBE388:
 1650              	.LBE390:
 170:keys.cpp      ****         // oscFreq = 277.18f; //C#
 1651              		.loc 9 170 9 is_stmt 1 view .LVU471
 170:keys.cpp      ****         // oscFreq = 277.18f; //C#
 1652              		.loc 9 170 27 is_stmt 0 view .LVU472
 1653 030c 1749     		ldr	r1, .L94
 1654 030e 9FED187A 		vldr.32	s14, .L94+4
 1655 0312 D1ED007A 		vldr.32	s15, [r1]	@ int
 1656              	.LBB391:
 1657              	.LBB392:
  64:../DaisyExamples/DaisySP/Source/Control/adenv.h ****     /** Sets the length of time (in seconds) for a specific segment. */
 1658              		.loc 1 64 38 view .LVU473
 1659 0316 0121     		movs	r1, #1
 1660              	.LBE392:
 1661              	.LBE391:
 170:keys.cpp      ****         // oscFreq = 277.18f; //C#
 1662              		.loc 9 170 17 view .LVU474
 1663 0318 164B     		ldr	r3, .L94+8
 170:keys.cpp      ****         // oscFreq = 277.18f; //C#
ARM GAS  /var/folders/7c/668hyr3s7rlgsbdftclf3hsr0000gn/T//cctzORKV.s 			page 49


 1664              		.loc 9 170 27 view .LVU475
 1665 031a F8EEE77A 		vcvt.f32.s32	s15, s15
 1666              	.LBB395:
 1667              	.LBB393:
  64:../DaisyExamples/DaisySP/Source/Control/adenv.h ****     /** Sets the length of time (in seconds) for a specific segment. */
 1668              		.loc 1 64 38 view .LVU476
 1669 031e 164A     		ldr	r2, .L94+12
 1670 0320 82F83410 		strb	r1, [r2, #52]
 1671              	.LBE393:
 1672              	.LBE395:
 170:keys.cpp      ****         // oscFreq = 277.18f; //C#
 1673              		.loc 9 170 27 view .LVU477
 1674 0324 67EE877A 		vmul.f32	s15, s15, s14
 170:keys.cpp      ****         // oscFreq = 277.18f; //C#
 1675              		.loc 9 170 17 view .LVU478
 1676 0328 C3ED007A 		vstr.32	s15, [r3]
 172:keys.cpp      ****         // hw.SetLed(true);
 1677              		.loc 9 172 9 is_stmt 1 view .LVU479
 1678              	.LVL126:
 1679              	.LBB396:
 1680              	.LBI391:
  64:../DaisyExamples/DaisySP/Source/Control/adenv.h ****     /** Sets the length of time (in seconds) for a specific segment. */
 1681              		.loc 1 64 17 view .LVU480
 1682              	.LBB394:
  64:../DaisyExamples/DaisySP/Source/Control/adenv.h ****     /** Sets the length of time (in seconds) for a specific segment. */
 1683              		.loc 1 64 29 view .LVU481
  64:../DaisyExamples/DaisySP/Source/Control/adenv.h ****     /** Sets the length of time (in seconds) for a specific segment. */
 1684              		.loc 1 64 43 is_stmt 0 view .LVU482
 1685 032c B2E6     		b	.L20
 1686              	.LVL127:
 1687              	.L80:
  64:../DaisyExamples/DaisySP/Source/Control/adenv.h ****     /** Sets the length of time (in seconds) for a specific segment. */
 1688              		.loc 1 64 43 view .LVU483
 1689              	.LBE394:
 1690              	.LBE396:
 163:keys.cpp      ****         ad.Trigger();
 1691              		.loc 9 163 9 is_stmt 1 view .LVU484
 163:keys.cpp      ****         ad.Trigger();
 1692              		.loc 9 163 27 is_stmt 0 view .LVU485
 1693 032e 0F49     		ldr	r1, .L94
 1694 0330 9FED127A 		vldr.32	s14, .L94+16
 1695 0334 D1ED007A 		vldr.32	s15, [r1]	@ int
 1696              	.LBB397:
 1697              	.LBB398:
  64:../DaisyExamples/DaisySP/Source/Control/adenv.h ****     /** Sets the length of time (in seconds) for a specific segment. */
 1698              		.loc 1 64 38 view .LVU486
 1699 0338 0121     		movs	r1, #1
 1700              	.LBE398:
 1701              	.LBE397:
 163:keys.cpp      ****         ad.Trigger();
 1702              		.loc 9 163 17 view .LVU487
 1703 033a 0E4B     		ldr	r3, .L94+8
 163:keys.cpp      ****         ad.Trigger();
 1704              		.loc 9 163 27 view .LVU488
 1705 033c F8EEE77A 		vcvt.f32.s32	s15, s15
 1706              	.LBB401:
 1707              	.LBB399:
ARM GAS  /var/folders/7c/668hyr3s7rlgsbdftclf3hsr0000gn/T//cctzORKV.s 			page 50


  64:../DaisyExamples/DaisySP/Source/Control/adenv.h ****     /** Sets the length of time (in seconds) for a specific segment. */
 1708              		.loc 1 64 38 view .LVU489
 1709 0340 0D4A     		ldr	r2, .L94+12
 1710 0342 82F83410 		strb	r1, [r2, #52]
 1711              	.LBE399:
 1712              	.LBE401:
 163:keys.cpp      ****         ad.Trigger();
 1713              		.loc 9 163 27 view .LVU490
 1714 0346 67EE877A 		vmul.f32	s15, s15, s14
 163:keys.cpp      ****         ad.Trigger();
 1715              		.loc 9 163 17 view .LVU491
 1716 034a C3ED007A 		vstr.32	s15, [r3]
 164:keys.cpp      ****         // hw.SetLed(true);
 1717              		.loc 9 164 9 is_stmt 1 view .LVU492
 1718              	.LVL128:
 1719              	.LBB402:
 1720              	.LBI397:
  64:../DaisyExamples/DaisySP/Source/Control/adenv.h ****     /** Sets the length of time (in seconds) for a specific segment. */
 1721              		.loc 1 64 17 view .LVU493
 1722              	.LBB400:
  64:../DaisyExamples/DaisySP/Source/Control/adenv.h ****     /** Sets the length of time (in seconds) for a specific segment. */
 1723              		.loc 1 64 29 view .LVU494
  64:../DaisyExamples/DaisySP/Source/Control/adenv.h ****     /** Sets the length of time (in seconds) for a specific segment. */
 1724              		.loc 1 64 43 is_stmt 0 view .LVU495
 1725 034e 9AE6     		b	.L19
 1726              	.LVL129:
 1727              	.L79:
  64:../DaisyExamples/DaisySP/Source/Control/adenv.h ****     /** Sets the length of time (in seconds) for a specific segment. */
 1728              		.loc 1 64 43 view .LVU496
 1729              	.LBE400:
 1730              	.LBE402:
 156:keys.cpp      **** 
 1731              		.loc 9 156 9 is_stmt 1 view .LVU497
 156:keys.cpp      **** 
 1732              		.loc 9 156 16 is_stmt 0 view .LVU498
 1733 0350 064A     		ldr	r2, .L94
 156:keys.cpp      **** 
 1734              		.loc 9 156 25 view .LVU499
 1735 0352 1368     		ldr	r3, [r2]
 1736 0354 002B     		cmp	r3, #0
 1737 0356 B8BF     		it	lt
 1738 0358 0133     		addlt	r3, r3, #1
 1739 035a 5B10     		asrs	r3, r3, #1
 156:keys.cpp      **** 
 1740              		.loc 9 156 16 view .LVU500
 1741 035c 1360     		str	r3, [r2]
 1742 035e 8BE6     		b	.L17
 1743              	.L78:
 150:keys.cpp      ****         // hw.SetLed(true);
 1744              		.loc 9 150 9 is_stmt 1 view .LVU501
 150:keys.cpp      ****         // hw.SetLed(true);
 1745              		.loc 9 150 16 is_stmt 0 view .LVU502
 1746 0360 024A     		ldr	r2, .L94
 150:keys.cpp      ****         // hw.SetLed(true);
 1747              		.loc 9 150 25 view .LVU503
 1748 0362 1368     		ldr	r3, [r2]
 1749 0364 5B00     		lsls	r3, r3, #1
ARM GAS  /var/folders/7c/668hyr3s7rlgsbdftclf3hsr0000gn/T//cctzORKV.s 			page 51


 150:keys.cpp      ****         // hw.SetLed(true);
 1750              		.loc 9 150 16 view .LVU504
 1751 0366 1360     		str	r3, [r2]
 1752 0368 7FE6     		b	.L16
 1753              	.L95:
 1754 036a 00BF     		.align	2
 1755              	.L94:
 1756 036c 00000000 		.word	.LANCHOR3
 1757 0370 0A978A43 		.word	1133156106
 1758 0374 00000000 		.word	.LANCHOR1
 1759 0378 00000000 		.word	.LANCHOR0
 1760 037c A4D08243 		.word	1132646564
 1761              		.cfi_endproc
 1762              	.LFE4685:
 1764              		.section	.text._ZL13AudioCallbackPKfPfj,"ax",%progbits
 1765              		.align	1
 1766              		.p2align 2,,3
 1767              		.syntax unified
 1768              		.thumb
 1769              		.thumb_func
 1771              	_ZL13AudioCallbackPKfPfj:
 1772              	.LVL130:
 1773              	.LFB4683:
  53:keys.cpp      ****     Controls();
 1774              		.loc 9 53 1 is_stmt 1 view -0
 1775              		.cfi_startproc
 1776              		@ args = 0, pretend = 0, frame = 0
 1777              		@ frame_needed = 0, uses_anonymous_args = 0
  54:keys.cpp      **** 
 1778              		.loc 9 54 5 view .LVU506
 1779              	.LBB411:
 1780              	.LBI411:
 258:keys.cpp      **** 
 259:keys.cpp      **** void Controls()
 1781              		.loc 9 259 6 view .LVU507
 1782              	.LBB412:
 260:keys.cpp      **** {
 261:keys.cpp      ****     // pod.ProcessAnalogControls();
 262:keys.cpp      ****     // pod.ProcessDigitalControls();
 263:keys.cpp      **** 
 264:keys.cpp      ****     // UpdateEncoder();
 265:keys.cpp      **** 
 266:keys.cpp      ****     // UpdateKnobs();
 267:keys.cpp      **** 
 268:keys.cpp      ****     // UpdateLeds();
 269:keys.cpp      **** 
 270:keys.cpp      ****     UpdateButtons();
 1783              		.loc 9 270 5 view .LVU508
 1784              	.LBE412:
 1785              	.LBE411:
  53:keys.cpp      ****     Controls();
 1786              		.loc 9 53 1 is_stmt 0 view .LVU509
 1787 0000 2DE9F041 		push	{r4, r5, r6, r7, r8, lr}
 1788              		.cfi_def_cfa_offset 24
 1789              		.cfi_offset 4, -24
 1790              		.cfi_offset 5, -20
 1791              		.cfi_offset 6, -16
ARM GAS  /var/folders/7c/668hyr3s7rlgsbdftclf3hsr0000gn/T//cctzORKV.s 			page 52


 1792              		.cfi_offset 7, -12
 1793              		.cfi_offset 8, -8
 1794              		.cfi_offset 14, -4
 1795 0004 1746     		mov	r7, r2
 1796 0006 0C46     		mov	r4, r1
 1797 0008 2DED028B 		vpush.64	{d8}
 1798              		.cfi_def_cfa_offset 32
 1799              		.cfi_offset 80, -32
 1800              		.cfi_offset 81, -28
 1801              	.LBB414:
 1802              	.LBB413:
 1803              		.loc 9 270 18 view .LVU510
 1804 000c FFF7FEFF 		bl	_Z13UpdateButtonsv
 1805              	.LVL131:
 1806              		.loc 9 270 18 view .LVU511
 1807              	.LBE413:
 1808              	.LBE414:
  57:keys.cpp      ****     {
 1809              		.loc 9 57 5 is_stmt 1 view .LVU512
 1810              	.LBB415:
  57:keys.cpp      ****     {
 1811              		.loc 9 57 25 view .LVU513
 1812 0010 1FB3     		cbz	r7, .L96
 1813 0012 013F     		subs	r7, r7, #1
 1814              	.LVL132:
  57:keys.cpp      ****     {
 1815              		.loc 9 57 25 is_stmt 0 view .LVU514
 1816 0014 0025     		movs	r5, #0
 1817 0016 DFF85480 		ldr	r8, .L104+8
 1818 001a 7F08     		lsrs	r7, r7, #1
 1819              	.LVL133:
  57:keys.cpp      ****     {
 1820              		.loc 9 57 25 view .LVU515
 1821 001c 114E     		ldr	r6, .L104
 1822              	.LVL134:
 1823              	.L98:
 1824              	.LBB416:
  59:keys.cpp      ****         NextSamples(sig);
 1825              		.loc 9 59 9 is_stmt 1 view .LVU516
  60:keys.cpp      **** 
 1826              		.loc 9 60 9 view .LVU517
 1827              	.LBB417:
 1828              	.LBI417:
  37:keys.cpp      **** {
 1829              		.loc 9 37 6 view .LVU518
 1830              	.LBB418:
  39:keys.cpp      ****     // vibrato      = lfo.Process();
 1831              		.loc 9 39 5 view .LVU519
  39:keys.cpp      ****     // vibrato      = lfo.Process();
 1832              		.loc 9 39 30 is_stmt 0 view .LVU520
 1833 001e 1248     		ldr	r0, .L104+4
 1834              	.LBE418:
 1835              	.LBE417:
 1836              	.LBE416:
  57:keys.cpp      ****     {
 1837              		.loc 9 57 25 view .LVU521
 1838 0020 0834     		adds	r4, r4, #8
ARM GAS  /var/folders/7c/668hyr3s7rlgsbdftclf3hsr0000gn/T//cctzORKV.s 			page 53


 1839              	.LBB425:
 1840              	.LBB424:
 1841              	.LBB423:
  39:keys.cpp      ****     // vibrato      = lfo.Process();
 1842              		.loc 9 39 30 view .LVU522
 1843 0022 FFF7FEFF 		bl	_ZN7daisysp5AdEnv7ProcessEv
 1844              	.LVL135:
  43:keys.cpp      **** 
 1845              		.loc 9 43 16 view .LVU523
 1846 0026 D8ED007A 		vldr.32	s15, [r8]
  39:keys.cpp      ****     // vibrato      = lfo.Process();
 1847              		.loc 9 39 30 view .LVU524
 1848 002a B0EE408A 		vmov.f32	s16, s0
 1849              	.LVL136:
  43:keys.cpp      **** 
 1850              		.loc 9 43 5 is_stmt 1 view .LVU525
 1851              	.LBB419:
 1852              	.LBI419:
  67:../DaisyExamples/DaisySP/Source/Synthesis/oscillator.h ****     {
 1853              		.loc 2 67 17 view .LVU526
 1854              	.LBB420:
  69:../DaisyExamples/DaisySP/Source/Synthesis/oscillator.h ****         phase_inc_ = CalcPhaseInc(f);
 1855              		.loc 2 69 9 view .LVU527
  70:../DaisyExamples/DaisySP/Source/Synthesis/oscillator.h ****     }
 1856              		.loc 2 70 34 is_stmt 0 view .LVU528
 1857 002e 0D48     		ldr	r0, .L104
 1858 0030 B0EE670A 		vmov.f32	s0, s15
 1859              	.LVL137:
  69:../DaisyExamples/DaisySP/Source/Synthesis/oscillator.h ****         phase_inc_ = CalcPhaseInc(f);
 1860              		.loc 2 69 20 view .LVU529
 1861 0034 C6ED027A 		vstr.32	s15, [r6, #8]
  70:../DaisyExamples/DaisySP/Source/Synthesis/oscillator.h ****     }
 1862              		.loc 2 70 9 is_stmt 1 view .LVU530
  70:../DaisyExamples/DaisySP/Source/Synthesis/oscillator.h ****     }
 1863              		.loc 2 70 34 is_stmt 0 view .LVU531
 1864 0038 FFF7FEFF 		bl	_ZN7daisysp10Oscillator12CalcPhaseIncEf
 1865              	.LVL138:
  70:../DaisyExamples/DaisySP/Source/Synthesis/oscillator.h ****     }
 1866              		.loc 2 70 34 view .LVU532
 1867              	.LBE420:
 1868              	.LBE419:
  45:keys.cpp      ****     // sig = flt.Process(sig);
 1869              		.loc 9 45 22 view .LVU533
 1870 003c 0948     		ldr	r0, .L104
 1871              	.LBB422:
 1872              	.LBB421:
  70:../DaisyExamples/DaisySP/Source/Synthesis/oscillator.h ****     }
 1873              		.loc 2 70 20 view .LVU534
 1874 003e 86ED070A 		vstr.32	s0, [r6, #28]
 1875              	.LVL139:
  70:../DaisyExamples/DaisySP/Source/Synthesis/oscillator.h ****     }
 1876              		.loc 2 70 20 view .LVU535
 1877              	.LBE421:
 1878              	.LBE422:
  45:keys.cpp      ****     // sig = flt.Process(sig);
 1879              		.loc 9 45 5 is_stmt 1 view .LVU536
  45:keys.cpp      ****     // sig = flt.Process(sig);
ARM GAS  /var/folders/7c/668hyr3s7rlgsbdftclf3hsr0000gn/T//cctzORKV.s 			page 54


 1880              		.loc 9 45 22 is_stmt 0 view .LVU537
 1881 0042 FFF7FEFF 		bl	_ZN7daisysp10Oscillator7ProcessEv
 1882              	.LVL140:
  47:keys.cpp      **** }
 1883              		.loc 9 47 5 is_stmt 1 view .LVU538
  47:keys.cpp      **** }
 1884              		.loc 9 47 9 is_stmt 0 view .LVU539
 1885 0046 28EE000A 		vmul.f32	s0, s16, s0
 1886              	.LVL141:
  47:keys.cpp      **** }
 1887              		.loc 9 47 9 view .LVU540
 1888              	.LBE423:
 1889              	.LBE424:
  63:keys.cpp      **** 
 1890              		.loc 9 63 9 is_stmt 1 view .LVU541
 1891              	.LBE425:
  57:keys.cpp      ****     {
 1892              		.loc 9 57 25 is_stmt 0 view .LVU542
 1893 004a BD42     		cmp	r5, r7
 1894 004c 05F10105 		add	r5, r5, #1
 1895              	.LVL142:
 1896              	.LBB426:
  63:keys.cpp      **** 
 1897              		.loc 9 63 16 view .LVU543
 1898 0050 04ED020A 		vstr.32	s0, [r4, #-8]
  66:keys.cpp      ****     }
 1899              		.loc 9 66 9 is_stmt 1 view .LVU544
  66:keys.cpp      ****     }
 1900              		.loc 9 66 20 is_stmt 0 view .LVU545
 1901 0054 04ED010A 		vstr.32	s0, [r4, #-4]
 1902              	.LVL143:
  66:keys.cpp      ****     }
 1903              		.loc 9 66 20 view .LVU546
 1904              	.LBE426:
  57:keys.cpp      ****     {
 1905              		.loc 9 57 5 is_stmt 1 view .LVU547
  57:keys.cpp      ****     {
 1906              		.loc 9 57 25 view .LVU548
 1907 0058 E1D1     		bne	.L98
 1908              	.L96:
 1909              	.LBE415:
  68:keys.cpp      **** 
 1910              		.loc 9 68 1 is_stmt 0 view .LVU549
 1911 005a BDEC028B 		vldm	sp!, {d8}
 1912              		.cfi_restore 80
 1913              		.cfi_restore 81
 1914              		.cfi_def_cfa_offset 24
 1915 005e BDE8F081 		pop	{r4, r5, r6, r7, r8, pc}
 1916              	.L105:
 1917 0062 00BF     		.align	2
 1918              	.L104:
 1919 0064 00000000 		.word	.LANCHOR2
 1920 0068 00000000 		.word	.LANCHOR0
 1921 006c 00000000 		.word	.LANCHOR1
 1922              		.cfi_endproc
 1923              	.LFE4683:
 1925              		.section	.text._Z8Controlsv,"ax",%progbits
ARM GAS  /var/folders/7c/668hyr3s7rlgsbdftclf3hsr0000gn/T//cctzORKV.s 			page 55


 1926              		.align	1
 1927              		.p2align 2,,3
 1928              		.global	_Z8Controlsv
 1929              		.syntax unified
 1930              		.thumb
 1931              		.thumb_func
 1933              	_Z8Controlsv:
 1934              	.LFB4686:
 260:keys.cpp      ****     // pod.ProcessAnalogControls();
 1935              		.loc 9 260 1 is_stmt 1 view -0
 1936              		.cfi_startproc
 1937              		@ args = 0, pretend = 0, frame = 0
 1938              		@ frame_needed = 0, uses_anonymous_args = 0
 1939              		@ link register save eliminated.
 1940              		.loc 9 270 5 view .LVU551
 1941              		.loc 9 270 18 is_stmt 0 view .LVU552
 1942 0000 FFF7FEBF 		b	_Z13UpdateButtonsv
 1943              	.LVL144:
 1944              		.cfi_endproc
 1945              	.LFE4686:
 1947              		.section	.text.startup._GLOBAL__sub_I_wave,"ax",%progbits
 1948              		.align	1
 1949              		.p2align 2,,3
 1950              		.syntax unified
 1951              		.thumb
 1952              		.thumb_func
 1954              	_GLOBAL__sub_I_wave:
 1955              	.LFB5249:
 271:keys.cpp      **** }...
 1956              		.loc 9 271 1 is_stmt 1 view -0
 1957              		.cfi_startproc
 1958              		@ args = 0, pretend = 0, frame = 0
 1959              		@ frame_needed = 0, uses_anonymous_args = 0
 1960              	.LBB482:
 1961              	.LBI482:
 1962              		.loc 9 271 1 view .LVU554
 1963              	.LVL145:
 1964              	.LBB483:
 1965              	.LBB484:
 1966              	.LBI484:
  21:../DaisyExamples/libDaisy/src/daisy_seed.h ****     ~DaisySeed() {}
 1967              		.loc 4 21 5 view .LVU555
 1968              	.LBB485:
 1969              	.LBB486:
 1970              	.LBI486:
 1971              		.file 10 "../DaisyExamples/libDaisy/src/per/qspi.h"
   1:../DaisyExamples/libDaisy/src/per/qspi.h **** #ifndef DSY_QSPI
   2:../DaisyExamples/libDaisy/src/per/qspi.h **** #define DSY_QSPI /**< Macro */
   3:../DaisyExamples/libDaisy/src/per/qspi.h **** 
   4:../DaisyExamples/libDaisy/src/per/qspi.h **** #ifndef UNIT_TEST // for unit tests, a dummy implementation
   5:../DaisyExamples/libDaisy/src/per/qspi.h **** 
   6:../DaisyExamples/libDaisy/src/per/qspi.h **** #include <cstdint>
   7:../DaisyExamples/libDaisy/src/per/qspi.h **** #include "daisy_core.h" // Added for dsy_gpio_pin typedef
   8:../DaisyExamples/libDaisy/src/per/qspi.h **** 
   9:../DaisyExamples/libDaisy/src/per/qspi.h **** #define DSY_QSPI_TEXT       \
  10:../DaisyExamples/libDaisy/src/per/qspi.h ****     __attribute__((section( \
  11:../DaisyExamples/libDaisy/src/per/qspi.h ****         ".qspiflash_text"))) /**< used for reading memory in memory_mapped mode. */
ARM GAS  /var/folders/7c/668hyr3s7rlgsbdftclf3hsr0000gn/T//cctzORKV.s 			page 56


  12:../DaisyExamples/libDaisy/src/per/qspi.h **** #define DSY_QSPI_DATA       \
  13:../DaisyExamples/libDaisy/src/per/qspi.h ****     __attribute__((section( \
  14:../DaisyExamples/libDaisy/src/per/qspi.h ****         ".qspiflash_data"))) /**< used for reading memory in memory_mapped mode. */
  15:../DaisyExamples/libDaisy/src/per/qspi.h **** #define DSY_QSPI_BSS        \
  16:../DaisyExamples/libDaisy/src/per/qspi.h ****     __attribute__((section( \
  17:../DaisyExamples/libDaisy/src/per/qspi.h ****         ".qspiflash_bss"))) /**< used for reading memory in memory_mapped mode. */
  18:../DaisyExamples/libDaisy/src/per/qspi.h **** 
  19:../DaisyExamples/libDaisy/src/per/qspi.h **** namespace daisy
  20:../DaisyExamples/libDaisy/src/per/qspi.h **** {
  21:../DaisyExamples/libDaisy/src/per/qspi.h **** /** @addtogroup serial
  22:../DaisyExamples/libDaisy/src/per/qspi.h **** @{
  23:../DaisyExamples/libDaisy/src/per/qspi.h **** */
  24:../DaisyExamples/libDaisy/src/per/qspi.h **** 
  25:../DaisyExamples/libDaisy/src/per/qspi.h **** /** 
  26:../DaisyExamples/libDaisy/src/per/qspi.h ****  Driver for QSPI peripheral to interface with external flash memory. \n 
  27:../DaisyExamples/libDaisy/src/per/qspi.h ****     Currently supported QSPI Devices: \n 
  28:../DaisyExamples/libDaisy/src/per/qspi.h ****     * IS25LP080D
  29:../DaisyExamples/libDaisy/src/per/qspi.h **** */
  30:../DaisyExamples/libDaisy/src/per/qspi.h **** class QSPIHandle
  31:../DaisyExamples/libDaisy/src/per/qspi.h **** {
  32:../DaisyExamples/libDaisy/src/per/qspi.h ****   public:
  33:../DaisyExamples/libDaisy/src/per/qspi.h ****     enum Result
  34:../DaisyExamples/libDaisy/src/per/qspi.h ****     {
  35:../DaisyExamples/libDaisy/src/per/qspi.h ****         OK = 0,
  36:../DaisyExamples/libDaisy/src/per/qspi.h ****         ERR
  37:../DaisyExamples/libDaisy/src/per/qspi.h ****     };
  38:../DaisyExamples/libDaisy/src/per/qspi.h **** 
  39:../DaisyExamples/libDaisy/src/per/qspi.h ****     /** Indicates the current status of the module. 
  40:../DaisyExamples/libDaisy/src/per/qspi.h ****          *  Warnings are indicated by a leading W.
  41:../DaisyExamples/libDaisy/src/per/qspi.h ****          *  Errors are indicated by a leading E and cause an immediate exit.
  42:../DaisyExamples/libDaisy/src/per/qspi.h ****          * 
  43:../DaisyExamples/libDaisy/src/per/qspi.h ****          *  \param GOOD - No errors have been reported.
  44:../DaisyExamples/libDaisy/src/per/qspi.h ****          *  \param E_HAL_ERROR - HAL code did not return HAL_OK.
  45:../DaisyExamples/libDaisy/src/per/qspi.h ****          *  \param E_SWITCHING_MODES - An error was encountered while switching QSPI peripheral mod
  46:../DaisyExamples/libDaisy/src/per/qspi.h ****          *  \param E_INVALID_MODE - QSPI should not be written to while the program is executing fr
  47:../DaisyExamples/libDaisy/src/per/qspi.h ****          */
  48:../DaisyExamples/libDaisy/src/per/qspi.h ****     enum Status
  49:../DaisyExamples/libDaisy/src/per/qspi.h ****     {
  50:../DaisyExamples/libDaisy/src/per/qspi.h ****         GOOD = 0,
  51:../DaisyExamples/libDaisy/src/per/qspi.h ****         E_HAL_ERROR,
  52:../DaisyExamples/libDaisy/src/per/qspi.h ****         E_SWITCHING_MODES,
  53:../DaisyExamples/libDaisy/src/per/qspi.h ****         E_INVALID_MODE,
  54:../DaisyExamples/libDaisy/src/per/qspi.h ****     };
  55:../DaisyExamples/libDaisy/src/per/qspi.h **** 
  56:../DaisyExamples/libDaisy/src/per/qspi.h ****     /** Configuration structure for interfacing with QSPI Driver */
  57:../DaisyExamples/libDaisy/src/per/qspi.h ****     struct Config
  58:../DaisyExamples/libDaisy/src/per/qspi.h ****     {
  59:../DaisyExamples/libDaisy/src/per/qspi.h ****         /** Flash Devices supported. (Both of these are more-or-less the same, just different sizes
  60:../DaisyExamples/libDaisy/src/per/qspi.h ****         enum Device
  61:../DaisyExamples/libDaisy/src/per/qspi.h ****         {
  62:../DaisyExamples/libDaisy/src/per/qspi.h ****             IS25LP080D,  /**< & */
  63:../DaisyExamples/libDaisy/src/per/qspi.h ****             IS25LP064A,  /**< & */
  64:../DaisyExamples/libDaisy/src/per/qspi.h ****             DEVICE_LAST, /**< & */
  65:../DaisyExamples/libDaisy/src/per/qspi.h ****         };
  66:../DaisyExamples/libDaisy/src/per/qspi.h **** 
  67:../DaisyExamples/libDaisy/src/per/qspi.h ****         /** 
  68:../DaisyExamples/libDaisy/src/per/qspi.h ****         Modes of operation.
ARM GAS  /var/folders/7c/668hyr3s7rlgsbdftclf3hsr0000gn/T//cctzORKV.s 			page 57


  69:../DaisyExamples/libDaisy/src/per/qspi.h ****         Memory Mapped mode: QSPI configured so that the QSPI can be
  70:../DaisyExamples/libDaisy/src/per/qspi.h ****         read from starting address 0x90000000. Writing is not
  71:../DaisyExamples/libDaisy/src/per/qspi.h ****         possible in this mode. \n 
  72:../DaisyExamples/libDaisy/src/per/qspi.h ****         Indirect Polling mode: Device driver enabled. 
  73:../DaisyExamples/libDaisy/src/per/qspi.h ****         */
  74:../DaisyExamples/libDaisy/src/per/qspi.h ****         enum Mode
  75:../DaisyExamples/libDaisy/src/per/qspi.h ****         {
  76:../DaisyExamples/libDaisy/src/per/qspi.h ****             MEMORY_MAPPED,    /**< & */
  77:../DaisyExamples/libDaisy/src/per/qspi.h ****             INDIRECT_POLLING, /**< & */
  78:../DaisyExamples/libDaisy/src/per/qspi.h ****             MODE_LAST,
  79:../DaisyExamples/libDaisy/src/per/qspi.h ****         };
  80:../DaisyExamples/libDaisy/src/per/qspi.h **** 
  81:../DaisyExamples/libDaisy/src/per/qspi.h ****         //SCK,  CE# (active low)
  82:../DaisyExamples/libDaisy/src/per/qspi.h ****         struct
  83:../DaisyExamples/libDaisy/src/per/qspi.h ****         {
  84:../DaisyExamples/libDaisy/src/per/qspi.h ****             dsy_gpio_pin io0; /**< & */
  85:../DaisyExamples/libDaisy/src/per/qspi.h ****             dsy_gpio_pin io1; /**< & */
  86:../DaisyExamples/libDaisy/src/per/qspi.h ****             dsy_gpio_pin io2; /**< & */
  87:../DaisyExamples/libDaisy/src/per/qspi.h ****             dsy_gpio_pin io3; /**< & */
  88:../DaisyExamples/libDaisy/src/per/qspi.h ****             dsy_gpio_pin clk; /**< & */
  89:../DaisyExamples/libDaisy/src/per/qspi.h ****             dsy_gpio_pin ncs; /**< & */
  90:../DaisyExamples/libDaisy/src/per/qspi.h ****         } pin_config;
  91:../DaisyExamples/libDaisy/src/per/qspi.h **** 
  92:../DaisyExamples/libDaisy/src/per/qspi.h ****         Device device;
  93:../DaisyExamples/libDaisy/src/per/qspi.h ****         Mode   mode;
  94:../DaisyExamples/libDaisy/src/per/qspi.h ****     };
  95:../DaisyExamples/libDaisy/src/per/qspi.h **** 
  96:../DaisyExamples/libDaisy/src/per/qspi.h ****     /** 
  97:../DaisyExamples/libDaisy/src/per/qspi.h ****         Initializes QSPI peripheral, and Resets, and prepares memory for access.
  98:../DaisyExamples/libDaisy/src/per/qspi.h ****         \param config should be populated with the mode, device and pin_config before calling this 
  99:../DaisyExamples/libDaisy/src/per/qspi.h ****         \return Result::OK or Result::ERR
 100:../DaisyExamples/libDaisy/src/per/qspi.h ****         */
 101:../DaisyExamples/libDaisy/src/per/qspi.h ****     Result Init(const Config& config);
 102:../DaisyExamples/libDaisy/src/per/qspi.h **** 
 103:../DaisyExamples/libDaisy/src/per/qspi.h ****     /** Returns the current config. */
 104:../DaisyExamples/libDaisy/src/per/qspi.h ****     const Config& GetConfig() const;
 105:../DaisyExamples/libDaisy/src/per/qspi.h **** 
 106:../DaisyExamples/libDaisy/src/per/qspi.h ****     // Couldn't this just be called before anything else in init? That
 107:../DaisyExamples/libDaisy/src/per/qspi.h ****     // would make manually calling it unnecessary.
 108:../DaisyExamples/libDaisy/src/per/qspi.h ****     /** 
 109:../DaisyExamples/libDaisy/src/per/qspi.h ****         Deinitializes the peripheral
 110:../DaisyExamples/libDaisy/src/per/qspi.h ****         This should be called before reinitializing QSPI in a different mode.
 111:../DaisyExamples/libDaisy/src/per/qspi.h ****         \return Result::OK or Result::ERR
 112:../DaisyExamples/libDaisy/src/per/qspi.h ****         */
 113:../DaisyExamples/libDaisy/src/per/qspi.h ****     Result DeInit();
 114:../DaisyExamples/libDaisy/src/per/qspi.h **** 
 115:../DaisyExamples/libDaisy/src/per/qspi.h ****     /** 
 116:../DaisyExamples/libDaisy/src/per/qspi.h ****         Writes a single page to to the specified address on the QSPI chip.
 117:../DaisyExamples/libDaisy/src/per/qspi.h ****         For IS25LP*, page size is 256 bytes.
 118:../DaisyExamples/libDaisy/src/per/qspi.h ****         \param address Address to write to
 119:../DaisyExamples/libDaisy/src/per/qspi.h ****         \param size Buffer size
 120:../DaisyExamples/libDaisy/src/per/qspi.h ****         \param buffer Buffer to write
 121:../DaisyExamples/libDaisy/src/per/qspi.h ****         \return Result::OK or Result::ERR
 122:../DaisyExamples/libDaisy/src/per/qspi.h ****         */
 123:../DaisyExamples/libDaisy/src/per/qspi.h ****     Result WritePage(uint32_t address, uint32_t size, uint8_t* buffer);
 124:../DaisyExamples/libDaisy/src/per/qspi.h **** 
 125:../DaisyExamples/libDaisy/src/per/qspi.h ****     /** 
ARM GAS  /var/folders/7c/668hyr3s7rlgsbdftclf3hsr0000gn/T//cctzORKV.s 			page 58


 126:../DaisyExamples/libDaisy/src/per/qspi.h ****         Writes data in buffer to to the QSPI. Starting at address to address+size 
 127:../DaisyExamples/libDaisy/src/per/qspi.h ****         \param address Address to write to
 128:../DaisyExamples/libDaisy/src/per/qspi.h ****         \param size Buffer size
 129:../DaisyExamples/libDaisy/src/per/qspi.h ****         \param buffer Buffer to write
 130:../DaisyExamples/libDaisy/src/per/qspi.h ****         \return Result::OK or Result::ERR
 131:../DaisyExamples/libDaisy/src/per/qspi.h ****         */
 132:../DaisyExamples/libDaisy/src/per/qspi.h ****     Result Write(uint32_t address, uint32_t size, uint8_t* buffer);
 133:../DaisyExamples/libDaisy/src/per/qspi.h **** 
 134:../DaisyExamples/libDaisy/src/per/qspi.h ****     /** 
 135:../DaisyExamples/libDaisy/src/per/qspi.h ****         Erases the area specified on the chip.
 136:../DaisyExamples/libDaisy/src/per/qspi.h ****         Erasures will happen by 4K, 32K or 64K increments.
 137:../DaisyExamples/libDaisy/src/per/qspi.h ****         Smallest erase possible is 4kB at a time. (on IS25LP*)
 138:../DaisyExamples/libDaisy/src/per/qspi.h ****         \param start_addr Address to begin erasing from
 139:../DaisyExamples/libDaisy/src/per/qspi.h ****         \param end_addr  Address to stop erasing at
 140:../DaisyExamples/libDaisy/src/per/qspi.h ****         \return Result::OK or Result::ERR
 141:../DaisyExamples/libDaisy/src/per/qspi.h ****         */
 142:../DaisyExamples/libDaisy/src/per/qspi.h ****     Result Erase(uint32_t start_addr, uint32_t end_addr);
 143:../DaisyExamples/libDaisy/src/per/qspi.h **** 
 144:../DaisyExamples/libDaisy/src/per/qspi.h ****     /**  
 145:../DaisyExamples/libDaisy/src/per/qspi.h ****          Erases a single sector of the chip.  
 146:../DaisyExamples/libDaisy/src/per/qspi.h ****         TODO: Document the size of this function. 
 147:../DaisyExamples/libDaisy/src/per/qspi.h ****         \param address Address of sector to erase
 148:../DaisyExamples/libDaisy/src/per/qspi.h ****         \return Result::OK or Result::ERR
 149:../DaisyExamples/libDaisy/src/per/qspi.h ****         */
 150:../DaisyExamples/libDaisy/src/per/qspi.h ****     Result EraseSector(uint32_t address);
 151:../DaisyExamples/libDaisy/src/per/qspi.h **** 
 152:../DaisyExamples/libDaisy/src/per/qspi.h ****     /** Returns the current class status. Useful for debugging.
 153:../DaisyExamples/libDaisy/src/per/qspi.h ****      *  \returns Status
 154:../DaisyExamples/libDaisy/src/per/qspi.h ****      */
 155:../DaisyExamples/libDaisy/src/per/qspi.h ****     Status GetStatus();
 156:../DaisyExamples/libDaisy/src/per/qspi.h **** 
 157:../DaisyExamples/libDaisy/src/per/qspi.h ****     /** Returns a pointer to the actual memory used 
 158:../DaisyExamples/libDaisy/src/per/qspi.h ****      *  The memory at this address is read-only
 159:../DaisyExamples/libDaisy/src/per/qspi.h ****      *  to write to it use the Write function.
 160:../DaisyExamples/libDaisy/src/per/qspi.h ****      * 
 161:../DaisyExamples/libDaisy/src/per/qspi.h ****      *  \param offset returns the pointer starting this 
 162:../DaisyExamples/libDaisy/src/per/qspi.h ****      *                many bytes into the memory
 163:../DaisyExamples/libDaisy/src/per/qspi.h ****     */
 164:../DaisyExamples/libDaisy/src/per/qspi.h ****     void* GetData(uint32_t offset = 0);
 165:../DaisyExamples/libDaisy/src/per/qspi.h **** 
 166:../DaisyExamples/libDaisy/src/per/qspi.h ****     QSPIHandle() : pimpl_(nullptr) {}
 1972              		.loc 10 166 5 view .LVU556
 1973              	.LBE486:
 1974              	.LBE485:
 1975              	.LBE484:
 1976              	.LBE483:
 1977              	.LBE482:
 1978              		.loc 9 271 1 is_stmt 0 view .LVU557
 1979 0000 38B5     		push	{r3, r4, r5, lr}
 1980              		.cfi_def_cfa_offset 16
 1981              		.cfi_offset 3, -16
 1982              		.cfi_offset 4, -12
 1983              		.cfi_offset 5, -8
 1984              		.cfi_offset 14, -4
 1985              	.LBB531:
 1986              	.LBB529:
 1987              	.LBB509:
ARM GAS  /var/folders/7c/668hyr3s7rlgsbdftclf3hsr0000gn/T//cctzORKV.s 			page 59


 1988              	.LBB506:
 1989              	.LBB491:
 1990              	.LBB487:
 1991              	.LBB488:
 1992              		.loc 10 166 34 view .LVU558
 1993 0002 3148     		ldr	r0, .L109
 1994 0004 0023     		movs	r3, #0
 1995              	.LBE488:
 1996              	.LBE487:
 1997              	.LBE491:
 1998              	.LBE506:
 1999              	.LBE509:
  10:keys.cpp      **** static DaisySeed hw;
 2000              		.loc 9 10 18 view .LVU559
 2001 0006 314C     		ldr	r4, .L109+4
 2002              	.LBB510:
 2003              	.LBB507:
 2004              	.LBB492:
 2005              	.LBB490:
 2006              	.LBB489:
 2007              		.loc 10 166 34 view .LVU560
 2008 0008 0360     		str	r3, [r0]
 2009              	.LVL146:
 2010              		.loc 10 166 34 view .LVU561
 2011              	.LBE489:
 2012              	.LBE490:
 2013              	.LBE492:
 2014              	.LBB493:
 2015              	.LBI493:
  95:../DaisyExamples/libDaisy/src/hid/audio.h ****     ~AudioHandle() {}
 2016              		.loc 8 95 5 is_stmt 1 view .LVU562
 2017              	.LBB494:
 2018              	.LBB495:
  95:../DaisyExamples/libDaisy/src/hid/audio.h ****     ~AudioHandle() {}
 2019              		.loc 8 95 35 is_stmt 0 view .LVU563
 2020 000a 4361     		str	r3, [r0, #20]
 2021              	.LVL147:
  95:../DaisyExamples/libDaisy/src/hid/audio.h ****     ~AudioHandle() {}
 2022              		.loc 8 95 35 view .LVU564
 2023              	.LBE495:
 2024              	.LBE494:
 2025              	.LBE493:
 2026              	.LBB496:
 2027              	.LBI496:
 109:../DaisyExamples/libDaisy/src/per/adc.h ****     ~AdcHandle() {}
 2028              		.loc 7 109 5 is_stmt 1 view .LVU565
 109:../DaisyExamples/libDaisy/src/per/adc.h ****     ~AdcHandle() {}
 2029              		.loc 7 109 5 is_stmt 0 view .LVU566
 2030              	.LBE496:
 2031              	.LBB497:
 2032              	.LBI497:
 2033              		.file 11 "../DaisyExamples/libDaisy/src/per/dac.h"
   1:../DaisyExamples/libDaisy/src/per/dac.h **** #pragma once
   2:../DaisyExamples/libDaisy/src/per/dac.h **** #ifndef DSY_DAC_H
   3:../DaisyExamples/libDaisy/src/per/dac.h **** #define DSY_DAC_H
   4:../DaisyExamples/libDaisy/src/per/dac.h **** 
   5:../DaisyExamples/libDaisy/src/per/dac.h **** #include "daisy_core.h"
ARM GAS  /var/folders/7c/668hyr3s7rlgsbdftclf3hsr0000gn/T//cctzORKV.s 			page 60


   6:../DaisyExamples/libDaisy/src/per/dac.h **** 
   7:../DaisyExamples/libDaisy/src/per/dac.h **** namespace daisy
   8:../DaisyExamples/libDaisy/src/per/dac.h **** {
   9:../DaisyExamples/libDaisy/src/per/dac.h **** /** @brief DAC handle for Built-in DAC Peripheral 
  10:../DaisyExamples/libDaisy/src/per/dac.h ****  *  @ingroup per_analog
  11:../DaisyExamples/libDaisy/src/per/dac.h ****  ** 
  12:../DaisyExamples/libDaisy/src/per/dac.h ****  ** For now only Normal Mode is supported,
  13:../DaisyExamples/libDaisy/src/per/dac.h ****  ** Sample and hold mode provides reduced power consumption, but requires a bit more setup.
  14:../DaisyExamples/libDaisy/src/per/dac.h ****  **
  15:../DaisyExamples/libDaisy/src/per/dac.h ****  ** For now connecting the DAC through other internal peripherals is also not supported.
  16:../DaisyExamples/libDaisy/src/per/dac.h ****  **
  17:../DaisyExamples/libDaisy/src/per/dac.h ****  ** Since the DAC channels have dedicated pins we don't need to pass in a pin config like with
  18:../DaisyExamples/libDaisy/src/per/dac.h ****  ** other modules. However, it is still important to not try to use the DAC pins for anything else.
  19:../DaisyExamples/libDaisy/src/per/dac.h ****  ** DAC Channel 1 is on PA4, and DAC Channel 2 is on PA5
  20:../DaisyExamples/libDaisy/src/per/dac.h ****  ***/
  21:../DaisyExamples/libDaisy/src/per/dac.h **** class DacHandle
  22:../DaisyExamples/libDaisy/src/per/dac.h **** {
  23:../DaisyExamples/libDaisy/src/per/dac.h ****   public:
  24:../DaisyExamples/libDaisy/src/per/dac.h ****     /** Return Values for the DacHandle class */
  25:../DaisyExamples/libDaisy/src/per/dac.h ****     enum class Result
  26:../DaisyExamples/libDaisy/src/per/dac.h ****     {
  27:../DaisyExamples/libDaisy/src/per/dac.h ****         OK,
  28:../DaisyExamples/libDaisy/src/per/dac.h ****         ERR,
  29:../DaisyExamples/libDaisy/src/per/dac.h ****     };
  30:../DaisyExamples/libDaisy/src/per/dac.h **** 
  31:../DaisyExamples/libDaisy/src/per/dac.h ****     /** Selects which channel(s) will be configured for use. */
  32:../DaisyExamples/libDaisy/src/per/dac.h ****     enum class Channel
  33:../DaisyExamples/libDaisy/src/per/dac.h ****     {
  34:../DaisyExamples/libDaisy/src/per/dac.h ****         ONE,
  35:../DaisyExamples/libDaisy/src/per/dac.h ****         TWO,
  36:../DaisyExamples/libDaisy/src/per/dac.h ****         BOTH,
  37:../DaisyExamples/libDaisy/src/per/dac.h ****     };
  38:../DaisyExamples/libDaisy/src/per/dac.h **** 
  39:../DaisyExamples/libDaisy/src/per/dac.h ****     /** Sets the Mode for the DAC channels.
  40:../DaisyExamples/libDaisy/src/per/dac.h ****      **
  41:../DaisyExamples/libDaisy/src/per/dac.h ****      ** Polling mode uses the blocking mode to transmit a single value at a time.
  42:../DaisyExamples/libDaisy/src/per/dac.h ****      **
  43:../DaisyExamples/libDaisy/src/per/dac.h ****      ** DMA mode uses a buffer, and periodically transmits it triggering a 
  44:../DaisyExamples/libDaisy/src/per/dac.h ****      ** callback to fill the buffer when it is ready for more samples.
  45:../DaisyExamples/libDaisy/src/per/dac.h ****      ***/
  46:../DaisyExamples/libDaisy/src/per/dac.h ****     enum class Mode
  47:../DaisyExamples/libDaisy/src/per/dac.h ****     {
  48:../DaisyExamples/libDaisy/src/per/dac.h ****         POLLING,
  49:../DaisyExamples/libDaisy/src/per/dac.h ****         DMA,
  50:../DaisyExamples/libDaisy/src/per/dac.h ****     };
  51:../DaisyExamples/libDaisy/src/per/dac.h **** 
  52:../DaisyExamples/libDaisy/src/per/dac.h ****     /** Sets the number of bits per sample transmitted out of the DAC.
  53:../DaisyExamples/libDaisy/src/per/dac.h ****      ** The output range will be: 0V - VDDA
  54:../DaisyExamples/libDaisy/src/per/dac.h ****      ** The resolution will be roughly: bitdepth / (VDDA - 0V) 
  55:../DaisyExamples/libDaisy/src/per/dac.h ****      ***/
  56:../DaisyExamples/libDaisy/src/per/dac.h ****     enum class BitDepth
  57:../DaisyExamples/libDaisy/src/per/dac.h ****     {
  58:../DaisyExamples/libDaisy/src/per/dac.h ****         BITS_8,
  59:../DaisyExamples/libDaisy/src/per/dac.h ****         BITS_12
  60:../DaisyExamples/libDaisy/src/per/dac.h ****     };
  61:../DaisyExamples/libDaisy/src/per/dac.h **** 
  62:../DaisyExamples/libDaisy/src/per/dac.h ****     /** Sets whether the DAC output is buffered for higher drive ability. */
ARM GAS  /var/folders/7c/668hyr3s7rlgsbdftclf3hsr0000gn/T//cctzORKV.s 			page 61


  63:../DaisyExamples/libDaisy/src/per/dac.h ****     enum class BufferState
  64:../DaisyExamples/libDaisy/src/per/dac.h ****     {
  65:../DaisyExamples/libDaisy/src/per/dac.h ****         ENABLED,
  66:../DaisyExamples/libDaisy/src/per/dac.h ****         DISABLED,
  67:../DaisyExamples/libDaisy/src/per/dac.h ****     };
  68:../DaisyExamples/libDaisy/src/per/dac.h **** 
  69:../DaisyExamples/libDaisy/src/per/dac.h ****     /** Configuration structure for initializing the DAC structure. */
  70:../DaisyExamples/libDaisy/src/per/dac.h ****     struct Config
  71:../DaisyExamples/libDaisy/src/per/dac.h ****     {
  72:../DaisyExamples/libDaisy/src/per/dac.h ****         /** Target Samplerate in Hz used to configure the internal 
  73:../DaisyExamples/libDaisy/src/per/dac.h ****          ** timebase for DMA mode. Does nothing in POLLING mode.
  74:../DaisyExamples/libDaisy/src/per/dac.h ****          ** If the value is 0 at Init time this will default to 48000Hz 
  75:../DaisyExamples/libDaisy/src/per/dac.h ****          ** otherwise the driver will attempt meet the target.*/
  76:../DaisyExamples/libDaisy/src/per/dac.h ****         uint32_t target_samplerate;
  77:../DaisyExamples/libDaisy/src/per/dac.h **** 
  78:../DaisyExamples/libDaisy/src/per/dac.h ****         Channel     chn;
  79:../DaisyExamples/libDaisy/src/per/dac.h ****         Mode        mode;
  80:../DaisyExamples/libDaisy/src/per/dac.h ****         BitDepth    bitdepth;
  81:../DaisyExamples/libDaisy/src/per/dac.h ****         BufferState buff_state;
  82:../DaisyExamples/libDaisy/src/per/dac.h ****     };
  83:../DaisyExamples/libDaisy/src/per/dac.h **** 
  84:../DaisyExamples/libDaisy/src/per/dac.h ****     DacHandle() : pimpl_(nullptr) {}
 2034              		.loc 11 84 5 is_stmt 1 view .LVU567
 2035              	.LBE497:
 2036              	.LBE507:
 2037              	.LBE510:
  10:keys.cpp      **** static DaisySeed hw;
 2038              		.loc 9 10 18 is_stmt 0 view .LVU568
 2039 000c 2246     		mov	r2, r4
 2040              	.LBB511:
 2041              	.LBB508:
 2042              	.LBB500:
 2043              	.LBB498:
 2044              	.LBB499:
 2045              		.loc 11 84 33 view .LVU569
 2046 000e 0362     		str	r3, [r0, #32]
 2047              	.LVL148:
 2048              		.loc 11 84 33 view .LVU570
 2049              	.LBE499:
 2050              	.LBE498:
 2051              	.LBE500:
 2052              	.LBB501:
 2053              	.LBI501:
  40:../DaisyExamples/libDaisy/src/hid/usb.h **** 
 2054              		.loc 6 40 5 is_stmt 1 view .LVU571
  40:../DaisyExamples/libDaisy/src/hid/usb.h **** 
 2055              		.loc 6 40 5 is_stmt 0 view .LVU572
 2056              	.LBE501:
 2057              	.LBB502:
 2058              	.LBI502:
  96:../DaisyExamples/libDaisy/src/sys/system.h ****     ~System() {}
 2059              		.loc 5 96 5 is_stmt 1 view .LVU573
  96:../DaisyExamples/libDaisy/src/sys/system.h ****     ~System() {}
 2060              		.loc 5 96 5 is_stmt 0 view .LVU574
 2061              	.LBE502:
 2062              	.LBB503:
 2063              	.LBI503:
ARM GAS  /var/folders/7c/668hyr3s7rlgsbdftclf3hsr0000gn/T//cctzORKV.s 			page 62


 2064              		.file 12 "../DaisyExamples/libDaisy/src/per/sai.h"
   1:../DaisyExamples/libDaisy/src/per/sai.h **** #pragma once
   2:../DaisyExamples/libDaisy/src/per/sai.h **** #ifndef DSY_SAI_H
   3:../DaisyExamples/libDaisy/src/per/sai.h **** #define DSY_SAI_H
   4:../DaisyExamples/libDaisy/src/per/sai.h **** 
   5:../DaisyExamples/libDaisy/src/per/sai.h **** #include "daisy_core.h"
   6:../DaisyExamples/libDaisy/src/per/sai.h **** 
   7:../DaisyExamples/libDaisy/src/per/sai.h **** namespace daisy
   8:../DaisyExamples/libDaisy/src/per/sai.h **** {
   9:../DaisyExamples/libDaisy/src/per/sai.h **** /** 
  10:../DaisyExamples/libDaisy/src/per/sai.h ****  * Support for I2S Audio Protocol with different bit-depth, samplerate options
  11:../DaisyExamples/libDaisy/src/per/sai.h ****  * Allows for master or slave, as well as freedom of selecting direction, 
  12:../DaisyExamples/libDaisy/src/per/sai.h ****  * and other behavior for each peripheral, and block.
  13:../DaisyExamples/libDaisy/src/per/sai.h ****  * 
  14:../DaisyExamples/libDaisy/src/per/sai.h ****  * DMA Transfer commands must use buffers located within non-cached memory or use cache maintenance
  15:../DaisyExamples/libDaisy/src/per/sai.h ****  * To declare an unitialized global element in the DMA memory section:
  16:../DaisyExamples/libDaisy/src/per/sai.h ****  *    int32_t DSY_DMA_BUFFER_SECTOR my_buffer[96];
  17:../DaisyExamples/libDaisy/src/per/sai.h ****  *
  18:../DaisyExamples/libDaisy/src/per/sai.h ****  * Callback functions will be called once per half of the buffer. In the above example, 
  19:../DaisyExamples/libDaisy/src/per/sai.h ****  * the callback function would be called once for every 48 samples.
  20:../DaisyExamples/libDaisy/src/per/sai.h ****  * 
  21:../DaisyExamples/libDaisy/src/per/sai.h ****  * Use SAI Handle like this:
  22:../DaisyExamples/libDaisy/src/per/sai.h ****  * 
  23:../DaisyExamples/libDaisy/src/per/sai.h ****  *  SaiHandle::Config sai_config;
  24:../DaisyExamples/libDaisy/src/per/sai.h ****  *  sai_config.periph          = SaiHandle::Config::Peripheral::SAI_1;
  25:../DaisyExamples/libDaisy/src/per/sai.h ****  *  sai_config.sr              = SaiHandle::Config::SampleRate::SAI_48KHZ;
  26:../DaisyExamples/libDaisy/src/per/sai.h ****  *  sai_config.bit_depth       = SaiHandle::Config::BitDepth::SAI_24BIT;
  27:../DaisyExamples/libDaisy/src/per/sai.h ****  *  sai_config.a_sync          = SaiHandle::Config::Sync::MASTER;
  28:../DaisyExamples/libDaisy/src/per/sai.h ****  *  sai_config.b_sync          = SaiHandle::Config::Sync::SLAVE;
  29:../DaisyExamples/libDaisy/src/per/sai.h ****  *  sai_config.a_dir           = SaiHandle::Config::Direction::RECEIVE;
  30:../DaisyExamples/libDaisy/src/per/sai.h ****  *  sai_config.b_dir           = SaiHandle::Config::Direction::TRANSMIT;
  31:../DaisyExamples/libDaisy/src/per/sai.h ****  *  sai_config.pin_config.fs   = {DSY_GPIOE, 4};
  32:../DaisyExamples/libDaisy/src/per/sai.h ****  *  sai_config.pin_config.mclk = {DSY_GPIOE, 2};
  33:../DaisyExamples/libDaisy/src/per/sai.h ****  *  sai_config.pin_config.sck  = {DSY_GPIOE, 5};
  34:../DaisyExamples/libDaisy/src/per/sai.h ****  *  sai_config.pin_config.sa   = {DSY_GPIOE, 6};
  35:../DaisyExamples/libDaisy/src/per/sai.h ****  *  sai_config.pin_config.sb   = {DSY_GPIOE, 3};
  36:../DaisyExamples/libDaisy/src/per/sai.h ****  *  // Then Initialize
  37:../DaisyExamples/libDaisy/src/per/sai.h ****  *  SaiHandle sai;
  38:../DaisyExamples/libDaisy/src/per/sai.h ****  *  sai.Init(sai_config);
  39:../DaisyExamples/libDaisy/src/per/sai.h ****  *  // Now you can use it:
  40:../DaisyExamples/libDaisy/src/per/sai.h ****  *  sai.StartDma(. . .);
  41:../DaisyExamples/libDaisy/src/per/sai.h ****  */
  42:../DaisyExamples/libDaisy/src/per/sai.h **** class SaiHandle
  43:../DaisyExamples/libDaisy/src/per/sai.h **** {
  44:../DaisyExamples/libDaisy/src/per/sai.h ****   public:
  45:../DaisyExamples/libDaisy/src/per/sai.h ****     /** Contains settings for initialising an SAI Interface */
  46:../DaisyExamples/libDaisy/src/per/sai.h ****     struct Config
  47:../DaisyExamples/libDaisy/src/per/sai.h ****     {
  48:../DaisyExamples/libDaisy/src/per/sai.h ****         /** Specifies the internal peripheral to use (mapped to different hardware pins) */
  49:../DaisyExamples/libDaisy/src/per/sai.h ****         enum class Peripheral
  50:../DaisyExamples/libDaisy/src/per/sai.h ****         {
  51:../DaisyExamples/libDaisy/src/per/sai.h ****             SAI_1,
  52:../DaisyExamples/libDaisy/src/per/sai.h ****             SAI_2,
  53:../DaisyExamples/libDaisy/src/per/sai.h ****         };
  54:../DaisyExamples/libDaisy/src/per/sai.h **** 
  55:../DaisyExamples/libDaisy/src/per/sai.h ****         /** Rate at which samples will be streaming to/from the device. */
  56:../DaisyExamples/libDaisy/src/per/sai.h ****         enum class SampleRate
ARM GAS  /var/folders/7c/668hyr3s7rlgsbdftclf3hsr0000gn/T//cctzORKV.s 			page 63


  57:../DaisyExamples/libDaisy/src/per/sai.h ****         {
  58:../DaisyExamples/libDaisy/src/per/sai.h ****             SAI_8KHZ,
  59:../DaisyExamples/libDaisy/src/per/sai.h ****             SAI_16KHZ,
  60:../DaisyExamples/libDaisy/src/per/sai.h ****             SAI_32KHZ,
  61:../DaisyExamples/libDaisy/src/per/sai.h ****             SAI_48KHZ,
  62:../DaisyExamples/libDaisy/src/per/sai.h ****             SAI_96KHZ,
  63:../DaisyExamples/libDaisy/src/per/sai.h ****         };
  64:../DaisyExamples/libDaisy/src/per/sai.h **** 
  65:../DaisyExamples/libDaisy/src/per/sai.h ****         /** Bit Depth that the hardware expects to be transferred to/from the device. */
  66:../DaisyExamples/libDaisy/src/per/sai.h ****         enum class BitDepth
  67:../DaisyExamples/libDaisy/src/per/sai.h ****         {
  68:../DaisyExamples/libDaisy/src/per/sai.h ****             SAI_16BIT,
  69:../DaisyExamples/libDaisy/src/per/sai.h ****             SAI_24BIT,
  70:../DaisyExamples/libDaisy/src/per/sai.h ****             SAI_32BIT,
  71:../DaisyExamples/libDaisy/src/per/sai.h ****         };
  72:../DaisyExamples/libDaisy/src/per/sai.h **** 
  73:../DaisyExamples/libDaisy/src/per/sai.h ****         /** Specifies whether a particular block is the master or the slave 
  74:../DaisyExamples/libDaisy/src/per/sai.h ****          ** If both are set to slave, no MCLK signal will be used, and it is
  75:../DaisyExamples/libDaisy/src/per/sai.h ****          ** expected that the codec will have its own xtal.
  76:../DaisyExamples/libDaisy/src/per/sai.h ****          */
  77:../DaisyExamples/libDaisy/src/per/sai.h ****         enum class Sync
  78:../DaisyExamples/libDaisy/src/per/sai.h ****         {
  79:../DaisyExamples/libDaisy/src/per/sai.h ****             MASTER,
  80:../DaisyExamples/libDaisy/src/per/sai.h ****             SLAVE,
  81:../DaisyExamples/libDaisy/src/per/sai.h ****         };
  82:../DaisyExamples/libDaisy/src/per/sai.h **** 
  83:../DaisyExamples/libDaisy/src/per/sai.h ****         /** Specifies the direction for each peripheral block. */
  84:../DaisyExamples/libDaisy/src/per/sai.h ****         enum class Direction
  85:../DaisyExamples/libDaisy/src/per/sai.h ****         {
  86:../DaisyExamples/libDaisy/src/per/sai.h ****             TRANSMIT,
  87:../DaisyExamples/libDaisy/src/per/sai.h ****             RECEIVE,
  88:../DaisyExamples/libDaisy/src/per/sai.h ****         };
  89:../DaisyExamples/libDaisy/src/per/sai.h **** 
  90:../DaisyExamples/libDaisy/src/per/sai.h ****         Peripheral periph;
  91:../DaisyExamples/libDaisy/src/per/sai.h ****         struct
  92:../DaisyExamples/libDaisy/src/per/sai.h ****         {
  93:../DaisyExamples/libDaisy/src/per/sai.h ****             dsy_gpio_pin mclk, fs, sck, sa, sb;
  94:../DaisyExamples/libDaisy/src/per/sai.h ****         } pin_config;
  95:../DaisyExamples/libDaisy/src/per/sai.h ****         SampleRate sr;
  96:../DaisyExamples/libDaisy/src/per/sai.h ****         BitDepth   bit_depth;
  97:../DaisyExamples/libDaisy/src/per/sai.h ****         Sync       a_sync, b_sync;
  98:../DaisyExamples/libDaisy/src/per/sai.h ****         Direction  a_dir, b_dir;
  99:../DaisyExamples/libDaisy/src/per/sai.h ****     };
 100:../DaisyExamples/libDaisy/src/per/sai.h **** 
 101:../DaisyExamples/libDaisy/src/per/sai.h ****     /** Return values for SAI functions */
 102:../DaisyExamples/libDaisy/src/per/sai.h ****     enum class Result
 103:../DaisyExamples/libDaisy/src/per/sai.h ****     {
 104:../DaisyExamples/libDaisy/src/per/sai.h ****         OK,
 105:../DaisyExamples/libDaisy/src/per/sai.h ****         ERR,
 106:../DaisyExamples/libDaisy/src/per/sai.h ****     };
 107:../DaisyExamples/libDaisy/src/per/sai.h **** 
 108:../DaisyExamples/libDaisy/src/per/sai.h ****     SaiHandle() : pimpl_(nullptr) {}
 2065              		.loc 12 108 5 is_stmt 1 view .LVU575
 2066              	.LBB504:
 2067              	.LBB505:
 2068              		.loc 12 108 33 is_stmt 0 view .LVU576
 2069 0010 C363     		str	r3, [r0, #60]
ARM GAS  /var/folders/7c/668hyr3s7rlgsbdftclf3hsr0000gn/T//cctzORKV.s 			page 64


 2070              	.LVL149:
 2071              		.loc 12 108 33 view .LVU577
 2072              	.LBE505:
 2073              	.LBE504:
 2074              	.LBE503:
 2075              	.LBE508:
 2076              	.LBE511:
  10:keys.cpp      **** static DaisySeed hw;
 2077              		.loc 9 10 18 view .LVU578
 2078 0012 2F49     		ldr	r1, .L109+8
  19:keys.cpp      **** Switch octave_up, octave_down;
 2079              		.loc 9 19 8 view .LVU579
 2080 0014 2F4D     		ldr	r5, .L109+12
  10:keys.cpp      **** static DaisySeed hw;
 2081              		.loc 9 10 18 view .LVU580
 2082 0016 FFF7FEFF 		bl	__aeabi_atexit
 2083              	.LVL150:
 2084              	.LBB512:
 2085              	.LBI512:
  23:../DaisyExamples/DaisySP/Source/Synthesis/oscillator.h ****     ~Oscillator() {}
 2086              		.loc 2 23 5 is_stmt 1 view .LVU581
  23:../DaisyExamples/DaisySP/Source/Synthesis/oscillator.h ****     ~Oscillator() {}
 2087              		.loc 2 23 5 is_stmt 0 view .LVU582
 2088              	.LBE512:
  11:keys.cpp      **** static Oscillator osc;
 2089              		.loc 9 11 19 view .LVU583
 2090 001a 2246     		mov	r2, r4
 2091 001c 2E49     		ldr	r1, .L109+16
 2092 001e 2F48     		ldr	r0, .L109+20
 2093 0020 FFF7FEFF 		bl	__aeabi_atexit
 2094              	.LVL151:
 2095              	.LBB513:
 2096              	.LBI513:
  42:../DaisyExamples/DaisySP/Source/Control/adenv.h ****     ~AdEnv() {}
 2097              		.loc 1 42 5 is_stmt 1 view .LVU584
  42:../DaisyExamples/DaisySP/Source/Control/adenv.h ****     ~AdEnv() {}
 2098              		.loc 1 42 5 is_stmt 0 view .LVU585
 2099              	.LBE513:
  12:keys.cpp      **** static AdEnv      ad;
 2100              		.loc 9 12 19 view .LVU586
 2101 0024 2246     		mov	r2, r4
 2102 0026 2E49     		ldr	r1, .L109+24
 2103 0028 2E48     		ldr	r0, .L109+28
 2104 002a FFF7FEFF 		bl	__aeabi_atexit
 2105              	.LVL152:
 2106              	.LBB514:
 2107              	.LBI514:
  41:../DaisyExamples/libDaisy/src/hid/switch.h ****     ~Switch() {}
 2108              		.loc 3 41 5 is_stmt 1 view .LVU587
  41:../DaisyExamples/libDaisy/src/hid/switch.h ****     ~Switch() {}
 2109              		.loc 3 41 5 is_stmt 0 view .LVU588
 2110              	.LBE514:
  19:keys.cpp      **** Switch octave_up, octave_down;
 2111              		.loc 9 19 8 view .LVU589
 2112 002e 2246     		mov	r2, r4
 2113 0030 2946     		mov	r1, r5
 2114 0032 2D48     		ldr	r0, .L109+32
ARM GAS  /var/folders/7c/668hyr3s7rlgsbdftclf3hsr0000gn/T//cctzORKV.s 			page 65


 2115 0034 FFF7FEFF 		bl	__aeabi_atexit
 2116              	.LVL153:
 2117              	.LBB515:
 2118              	.LBI515:
  41:../DaisyExamples/libDaisy/src/hid/switch.h ****     ~Switch() {}
 2119              		.loc 3 41 5 is_stmt 1 view .LVU590
  41:../DaisyExamples/libDaisy/src/hid/switch.h ****     ~Switch() {}
 2120              		.loc 3 41 5 is_stmt 0 view .LVU591
 2121              	.LBE515:
  19:keys.cpp      **** Switch octave_up, octave_down;
 2122              		.loc 9 19 19 view .LVU592
 2123 0038 2246     		mov	r2, r4
 2124 003a 2946     		mov	r1, r5
 2125 003c 2B48     		ldr	r0, .L109+36
 2126 003e FFF7FEFF 		bl	__aeabi_atexit
 2127              	.LVL154:
 2128              	.LBB516:
 2129              	.LBI516:
  41:../DaisyExamples/libDaisy/src/hid/switch.h ****     ~Switch() {}
 2130              		.loc 3 41 5 is_stmt 1 view .LVU593
  41:../DaisyExamples/libDaisy/src/hid/switch.h ****     ~Switch() {}
 2131              		.loc 3 41 5 is_stmt 0 view .LVU594
 2132              	.LBE516:
  21:keys.cpp      **** Switch C;
 2133              		.loc 9 21 8 view .LVU595
 2134 0042 2246     		mov	r2, r4
 2135 0044 2946     		mov	r1, r5
 2136 0046 2A48     		ldr	r0, .L109+40
 2137 0048 FFF7FEFF 		bl	__aeabi_atexit
 2138              	.LVL155:
 2139              	.LBB517:
 2140              	.LBI517:
  41:../DaisyExamples/libDaisy/src/hid/switch.h ****     ~Switch() {}
 2141              		.loc 3 41 5 is_stmt 1 view .LVU596
  41:../DaisyExamples/libDaisy/src/hid/switch.h ****     ~Switch() {}
 2142              		.loc 3 41 5 is_stmt 0 view .LVU597
 2143              	.LBE517:
  22:keys.cpp      **** Switch CS;
 2144              		.loc 9 22 8 view .LVU598
 2145 004c 2246     		mov	r2, r4
 2146 004e 2946     		mov	r1, r5
 2147 0050 2848     		ldr	r0, .L109+44
 2148 0052 FFF7FEFF 		bl	__aeabi_atexit
 2149              	.LVL156:
 2150              	.LBB518:
 2151              	.LBI518:
  41:../DaisyExamples/libDaisy/src/hid/switch.h ****     ~Switch() {}
 2152              		.loc 3 41 5 is_stmt 1 view .LVU599
  41:../DaisyExamples/libDaisy/src/hid/switch.h ****     ~Switch() {}
 2153              		.loc 3 41 5 is_stmt 0 view .LVU600
 2154              	.LBE518:
  23:keys.cpp      **** Switch D;
 2155              		.loc 9 23 8 view .LVU601
 2156 0056 2246     		mov	r2, r4
 2157 0058 2946     		mov	r1, r5
 2158 005a 2748     		ldr	r0, .L109+48
 2159 005c FFF7FEFF 		bl	__aeabi_atexit
ARM GAS  /var/folders/7c/668hyr3s7rlgsbdftclf3hsr0000gn/T//cctzORKV.s 			page 66


 2160              	.LVL157:
 2161              	.LBB519:
 2162              	.LBI519:
  41:../DaisyExamples/libDaisy/src/hid/switch.h ****     ~Switch() {}
 2163              		.loc 3 41 5 is_stmt 1 view .LVU602
  41:../DaisyExamples/libDaisy/src/hid/switch.h ****     ~Switch() {}
 2164              		.loc 3 41 5 is_stmt 0 view .LVU603
 2165              	.LBE519:
  24:keys.cpp      **** Switch DS;
 2166              		.loc 9 24 8 view .LVU604
 2167 0060 2246     		mov	r2, r4
 2168 0062 2946     		mov	r1, r5
 2169 0064 2548     		ldr	r0, .L109+52
 2170 0066 FFF7FEFF 		bl	__aeabi_atexit
 2171              	.LVL158:
 2172              	.LBB520:
 2173              	.LBI520:
  41:../DaisyExamples/libDaisy/src/hid/switch.h ****     ~Switch() {}
 2174              		.loc 3 41 5 is_stmt 1 view .LVU605
  41:../DaisyExamples/libDaisy/src/hid/switch.h ****     ~Switch() {}
 2175              		.loc 3 41 5 is_stmt 0 view .LVU606
 2176              	.LBE520:
  25:keys.cpp      **** Switch E;
 2177              		.loc 9 25 8 view .LVU607
 2178 006a 2246     		mov	r2, r4
 2179 006c 2946     		mov	r1, r5
 2180 006e 2448     		ldr	r0, .L109+56
 2181 0070 FFF7FEFF 		bl	__aeabi_atexit
 2182              	.LVL159:
 2183              	.LBB521:
 2184              	.LBI521:
  41:../DaisyExamples/libDaisy/src/hid/switch.h ****     ~Switch() {}
 2185              		.loc 3 41 5 is_stmt 1 view .LVU608
  41:../DaisyExamples/libDaisy/src/hid/switch.h ****     ~Switch() {}
 2186              		.loc 3 41 5 is_stmt 0 view .LVU609
 2187              	.LBE521:
  26:keys.cpp      **** Switch F;
 2188              		.loc 9 26 8 view .LVU610
 2189 0074 2246     		mov	r2, r4
 2190 0076 2946     		mov	r1, r5
 2191 0078 2248     		ldr	r0, .L109+60
 2192 007a FFF7FEFF 		bl	__aeabi_atexit
 2193              	.LVL160:
 2194              	.LBB522:
 2195              	.LBI522:
  41:../DaisyExamples/libDaisy/src/hid/switch.h ****     ~Switch() {}
 2196              		.loc 3 41 5 is_stmt 1 view .LVU611
  41:../DaisyExamples/libDaisy/src/hid/switch.h ****     ~Switch() {}
 2197              		.loc 3 41 5 is_stmt 0 view .LVU612
 2198              	.LBE522:
  27:keys.cpp      **** Switch FS;
 2199              		.loc 9 27 8 view .LVU613
 2200 007e 2246     		mov	r2, r4
 2201 0080 2946     		mov	r1, r5
 2202 0082 2148     		ldr	r0, .L109+64
 2203 0084 FFF7FEFF 		bl	__aeabi_atexit
 2204              	.LVL161:
ARM GAS  /var/folders/7c/668hyr3s7rlgsbdftclf3hsr0000gn/T//cctzORKV.s 			page 67


 2205              	.LBB523:
 2206              	.LBI523:
  41:../DaisyExamples/libDaisy/src/hid/switch.h ****     ~Switch() {}
 2207              		.loc 3 41 5 is_stmt 1 view .LVU614
  41:../DaisyExamples/libDaisy/src/hid/switch.h ****     ~Switch() {}
 2208              		.loc 3 41 5 is_stmt 0 view .LVU615
 2209              	.LBE523:
  28:keys.cpp      **** Switch G;
 2210              		.loc 9 28 8 view .LVU616
 2211 0088 2246     		mov	r2, r4
 2212 008a 2946     		mov	r1, r5
 2213 008c 1F48     		ldr	r0, .L109+68
 2214 008e FFF7FEFF 		bl	__aeabi_atexit
 2215              	.LVL162:
 2216              	.LBB524:
 2217              	.LBI524:
  41:../DaisyExamples/libDaisy/src/hid/switch.h ****     ~Switch() {}
 2218              		.loc 3 41 5 is_stmt 1 view .LVU617
  41:../DaisyExamples/libDaisy/src/hid/switch.h ****     ~Switch() {}
 2219              		.loc 3 41 5 is_stmt 0 view .LVU618
 2220              	.LBE524:
  29:keys.cpp      **** Switch GS;
 2221              		.loc 9 29 8 view .LVU619
 2222 0092 2246     		mov	r2, r4
 2223 0094 2946     		mov	r1, r5
 2224 0096 1E48     		ldr	r0, .L109+72
 2225 0098 FFF7FEFF 		bl	__aeabi_atexit
 2226              	.LVL163:
 2227              	.LBB525:
 2228              	.LBI525:
  41:../DaisyExamples/libDaisy/src/hid/switch.h ****     ~Switch() {}
 2229              		.loc 3 41 5 is_stmt 1 view .LVU620
  41:../DaisyExamples/libDaisy/src/hid/switch.h ****     ~Switch() {}
 2230              		.loc 3 41 5 is_stmt 0 view .LVU621
 2231              	.LBE525:
  30:keys.cpp      **** Switch A;
 2232              		.loc 9 30 8 view .LVU622
 2233 009c 2246     		mov	r2, r4
 2234 009e 2946     		mov	r1, r5
 2235 00a0 1C48     		ldr	r0, .L109+76
 2236 00a2 FFF7FEFF 		bl	__aeabi_atexit
 2237              	.LVL164:
 2238              	.LBB526:
 2239              	.LBI526:
  41:../DaisyExamples/libDaisy/src/hid/switch.h ****     ~Switch() {}
 2240              		.loc 3 41 5 is_stmt 1 view .LVU623
  41:../DaisyExamples/libDaisy/src/hid/switch.h ****     ~Switch() {}
 2241              		.loc 3 41 5 is_stmt 0 view .LVU624
 2242              	.LBE526:
  31:keys.cpp      **** Switch AS;
 2243              		.loc 9 31 8 view .LVU625
 2244 00a6 2246     		mov	r2, r4
 2245 00a8 2946     		mov	r1, r5
 2246 00aa 1B48     		ldr	r0, .L109+80
 2247 00ac FFF7FEFF 		bl	__aeabi_atexit
 2248              	.LVL165:
 2249              	.LBB527:
ARM GAS  /var/folders/7c/668hyr3s7rlgsbdftclf3hsr0000gn/T//cctzORKV.s 			page 68


 2250              	.LBI527:
  41:../DaisyExamples/libDaisy/src/hid/switch.h ****     ~Switch() {}
 2251              		.loc 3 41 5 is_stmt 1 view .LVU626
  41:../DaisyExamples/libDaisy/src/hid/switch.h ****     ~Switch() {}
 2252              		.loc 3 41 5 is_stmt 0 view .LVU627
 2253              	.LBE527:
  32:keys.cpp      **** Switch B;
 2254              		.loc 9 32 8 view .LVU628
 2255 00b0 2246     		mov	r2, r4
 2256 00b2 2946     		mov	r1, r5
 2257 00b4 1948     		ldr	r0, .L109+84
 2258 00b6 FFF7FEFF 		bl	__aeabi_atexit
 2259              	.LVL166:
 2260              	.LBB528:
 2261              	.LBI528:
  41:../DaisyExamples/libDaisy/src/hid/switch.h ****     ~Switch() {}
 2262              		.loc 3 41 5 is_stmt 1 view .LVU629
  41:../DaisyExamples/libDaisy/src/hid/switch.h ****     ~Switch() {}
 2263              		.loc 3 41 5 is_stmt 0 view .LVU630
 2264              	.LBE528:
  33:keys.cpp      **** Switch C2;
 2265              		.loc 9 33 8 view .LVU631
 2266 00ba 2246     		mov	r2, r4
 2267 00bc 2946     		mov	r1, r5
 2268 00be 1848     		ldr	r0, .L109+88
 2269              	.LBE529:
 2270              	.LBE531:
 2271              		.loc 9 271 1 view .LVU632
 2272 00c0 BDE83840 		pop	{r3, r4, r5, lr}
 2273              		.cfi_restore 14
 2274              		.cfi_restore 5
 2275              		.cfi_restore 4
 2276              		.cfi_restore 3
 2277              		.cfi_def_cfa_offset 0
 2278              	.LBB532:
 2279              	.LBB530:
  33:keys.cpp      **** Switch C2;
 2280              		.loc 9 33 8 view .LVU633
 2281 00c4 FFF7FEBF 		b	__aeabi_atexit
 2282              	.LVL167:
 2283              	.L110:
 2284              		.align	2
 2285              	.L109:
 2286 00c8 00000000 		.word	.LANCHOR4
 2287 00cc 00000000 		.word	__dso_handle
 2288 00d0 00000000 		.word	_ZN5daisy9DaisySeedD1Ev
 2289 00d4 00000000 		.word	_ZN5daisy6SwitchD1Ev
 2290 00d8 00000000 		.word	_ZN7daisysp10OscillatorD1Ev
 2291 00dc 00000000 		.word	.LANCHOR2
 2292 00e0 00000000 		.word	_ZN7daisysp5AdEnvD1Ev
 2293 00e4 00000000 		.word	.LANCHOR0
 2294 00e8 00000000 		.word	.LANCHOR18
 2295 00ec 00000000 		.word	.LANCHOR19
 2296 00f0 00000000 		.word	.LANCHOR17
 2297 00f4 00000000 		.word	.LANCHOR16
 2298 00f8 00000000 		.word	.LANCHOR15
 2299 00fc 00000000 		.word	.LANCHOR14
ARM GAS  /var/folders/7c/668hyr3s7rlgsbdftclf3hsr0000gn/T//cctzORKV.s 			page 69


 2300 0100 00000000 		.word	.LANCHOR13
 2301 0104 00000000 		.word	.LANCHOR12
 2302 0108 00000000 		.word	.LANCHOR11
 2303 010c 00000000 		.word	.LANCHOR10
 2304 0110 00000000 		.word	.LANCHOR9
 2305 0114 00000000 		.word	.LANCHOR8
 2306 0118 00000000 		.word	.LANCHOR7
 2307 011c 00000000 		.word	.LANCHOR6
 2308 0120 00000000 		.word	.LANCHOR5
 2309              	.LBE530:
 2310              	.LBE532:
 2311              		.cfi_endproc
 2312              	.LFE5249:
 2314              		.section	.init_array,"aw",%init_array
 2315              		.align	2
 2316 0000 00000000 		.word	_GLOBAL__sub_I_wave(target1)
 2317              		.global	C2
 2318              		.global	B
 2319              		.global	AS
 2320              		.global	A
 2321              		.global	GS
 2322              		.global	G
 2323              		.global	FS
 2324              		.global	F
 2325              		.global	E
 2326              		.global	DS
 2327              		.global	D
 2328              		.global	CS
 2329              		.global	C
 2330              		.global	octave_down
 2331              		.global	octave_up
 2332              		.global	oscFreq
 2333              		.global	vibrato
 2334              		.global	octave
 2335              		.global	mode
 2336              		.global	wave
 2337              		.section	.bss.A,"aw",%nobits
 2338              		.align	2
 2339              		.set	.LANCHOR8,. + 0
 2342              	A:
 2343 0000 00000000 		.space	16
 2343      00000000 
 2343      00000000 
 2343      00000000 
 2344              		.section	.bss.AS,"aw",%nobits
 2345              		.align	2
 2346              		.set	.LANCHOR7,. + 0
 2349              	AS:
 2350 0000 00000000 		.space	16
 2350      00000000 
 2350      00000000 
 2350      00000000 
 2351              		.section	.bss.B,"aw",%nobits
 2352              		.align	2
 2353              		.set	.LANCHOR6,. + 0
 2356              	B:
 2357 0000 00000000 		.space	16
ARM GAS  /var/folders/7c/668hyr3s7rlgsbdftclf3hsr0000gn/T//cctzORKV.s 			page 70


 2357      00000000 
 2357      00000000 
 2357      00000000 
 2358              		.section	.bss.C,"aw",%nobits
 2359              		.align	2
 2360              		.set	.LANCHOR17,. + 0
 2363              	C:
 2364 0000 00000000 		.space	16
 2364      00000000 
 2364      00000000 
 2364      00000000 
 2365              		.section	.bss.C2,"aw",%nobits
 2366              		.align	2
 2367              		.set	.LANCHOR5,. + 0
 2370              	C2:
 2371 0000 00000000 		.space	16
 2371      00000000 
 2371      00000000 
 2371      00000000 
 2372              		.section	.bss.CS,"aw",%nobits
 2373              		.align	2
 2374              		.set	.LANCHOR16,. + 0
 2377              	CS:
 2378 0000 00000000 		.space	16
 2378      00000000 
 2378      00000000 
 2378      00000000 
 2379              		.section	.bss.D,"aw",%nobits
 2380              		.align	2
 2381              		.set	.LANCHOR15,. + 0
 2384              	D:
 2385 0000 00000000 		.space	16
 2385      00000000 
 2385      00000000 
 2385      00000000 
 2386              		.section	.bss.DS,"aw",%nobits
 2387              		.align	2
 2388              		.set	.LANCHOR14,. + 0
 2391              	DS:
 2392 0000 00000000 		.space	16
 2392      00000000 
 2392      00000000 
 2392      00000000 
 2393              		.section	.bss.E,"aw",%nobits
 2394              		.align	2
 2395              		.set	.LANCHOR13,. + 0
 2398              	E:
 2399 0000 00000000 		.space	16
 2399      00000000 
 2399      00000000 
 2399      00000000 
 2400              		.section	.bss.F,"aw",%nobits
 2401              		.align	2
 2402              		.set	.LANCHOR12,. + 0
 2405              	F:
 2406 0000 00000000 		.space	16
 2406      00000000 
ARM GAS  /var/folders/7c/668hyr3s7rlgsbdftclf3hsr0000gn/T//cctzORKV.s 			page 71


 2406      00000000 
 2406      00000000 
 2407              		.section	.bss.FS,"aw",%nobits
 2408              		.align	2
 2409              		.set	.LANCHOR11,. + 0
 2412              	FS:
 2413 0000 00000000 		.space	16
 2413      00000000 
 2413      00000000 
 2413      00000000 
 2414              		.section	.bss.G,"aw",%nobits
 2415              		.align	2
 2416              		.set	.LANCHOR10,. + 0
 2419              	G:
 2420 0000 00000000 		.space	16
 2420      00000000 
 2420      00000000 
 2420      00000000 
 2421              		.section	.bss.GS,"aw",%nobits
 2422              		.align	2
 2423              		.set	.LANCHOR9,. + 0
 2426              	GS:
 2427 0000 00000000 		.space	16
 2427      00000000 
 2427      00000000 
 2427      00000000 
 2428              		.section	.bss._ZL2ad,"aw",%nobits
 2429              		.align	2
 2430              		.set	.LANCHOR0,. + 0
 2433              	_ZL2ad:
 2434 0000 00000000 		.space	56
 2434      00000000 
 2434      00000000 
 2434      00000000 
 2434      00000000 
 2435              		.section	.bss._ZL2hw,"aw",%nobits
 2436              		.align	2
 2437              		.set	.LANCHOR4,. + 0
 2440              	_ZL2hw:
 2441 0000 00000000 		.space	64
 2441      00000000 
 2441      00000000 
 2441      00000000 
 2441      00000000 
 2442              		.section	.bss._ZL3osc,"aw",%nobits
 2443              		.align	2
 2444              		.set	.LANCHOR2,. + 0
 2447              	_ZL3osc:
 2448 0000 00000000 		.space	44
 2448      00000000 
 2448      00000000 
 2448      00000000 
 2448      00000000 
 2449              		.section	.bss.mode,"aw",%nobits
 2450              		.align	2
 2453              	mode:
 2454 0000 00000000 		.space	4
ARM GAS  /var/folders/7c/668hyr3s7rlgsbdftclf3hsr0000gn/T//cctzORKV.s 			page 72


 2455              		.section	.bss.octave,"aw",%nobits
 2456              		.align	2
 2457              		.set	.LANCHOR3,. + 0
 2460              	octave:
 2461 0000 00000000 		.space	4
 2462              		.section	.bss.octave_down,"aw",%nobits
 2463              		.align	2
 2464              		.set	.LANCHOR19,. + 0
 2467              	octave_down:
 2468 0000 00000000 		.space	16
 2468      00000000 
 2468      00000000 
 2468      00000000 
 2469              		.section	.bss.octave_up,"aw",%nobits
 2470              		.align	2
 2471              		.set	.LANCHOR18,. + 0
 2474              	octave_up:
 2475 0000 00000000 		.space	16
 2475      00000000 
 2475      00000000 
 2475      00000000 
 2476              		.section	.bss.oscFreq,"aw",%nobits
 2477              		.align	2
 2478              		.set	.LANCHOR1,. + 0
 2481              	oscFreq:
 2482 0000 00000000 		.space	4
 2483              		.section	.bss.vibrato,"aw",%nobits
 2484              		.align	2
 2487              	vibrato:
 2488 0000 00000000 		.space	4
 2489              		.section	.bss.wave,"aw",%nobits
 2490              		.align	2
 2491              		.set	.LANCHOR20,. + 0
 2494              	wave:
 2495 0000 00000000 		.space	4
 2496              		.text
 2497              	.Letext0:
 2498              		.file 13 "/Library/DaisyToolchain/0.2.0/arm/arm-none-eabi/include/machine/_default_types.h"
 2499              		.file 14 "/Library/DaisyToolchain/0.2.0/arm/arm-none-eabi/include/sys/_stdint.h"
 2500              		.file 15 "/Library/DaisyToolchain/0.2.0/arm/arm-none-eabi/include/stdint.h"
 2501              		.file 16 "/Library/DaisyToolchain/0.2.0/arm/lib/gcc/arm-none-eabi/10.3.1/include/stddef.h"
 2502              		.file 17 "/Library/DaisyToolchain/0.2.0/arm/arm-none-eabi/include/c++/10.3.1/cmath"
 2503              		.file 18 "/Library/DaisyToolchain/0.2.0/arm/arm-none-eabi/include/c++/10.3.1/bits/std_abs.h"
 2504              		.file 19 "/Library/DaisyToolchain/0.2.0/arm/arm-none-eabi/include/c++/10.3.1/cstdint"
 2505              		.file 20 "/Library/DaisyToolchain/0.2.0/arm/arm-none-eabi/include/c++/10.3.1/cstdlib"
 2506              		.file 21 "/Library/DaisyToolchain/0.2.0/arm/arm-none-eabi/include/c++/10.3.1/type_traits"
 2507              		.file 22 "/Library/DaisyToolchain/0.2.0/arm/arm-none-eabi/include/c++/10.3.1/debug/debug.h"
 2508              		.file 23 "/Library/DaisyToolchain/0.2.0/arm/arm-none-eabi/include/c++/10.3.1/cwchar"
 2509              		.file 24 "/Library/DaisyToolchain/0.2.0/arm/arm-none-eabi/include/c++/10.3.1/bits/stl_pair.h"
 2510              		.file 25 "/Library/DaisyToolchain/0.2.0/arm/arm-none-eabi/include/c++/10.3.1/bits/exception_ptr.h"
 2511              		.file 26 "/Library/DaisyToolchain/0.2.0/arm/arm-none-eabi/include/c++/10.3.1/arm-none-eabi/thumb/v
 2512              		.file 27 "/Library/DaisyToolchain/0.2.0/arm/arm-none-eabi/include/c++/10.3.1/clocale"
 2513              		.file 28 "/Library/DaisyToolchain/0.2.0/arm/arm-none-eabi/include/c++/10.3.1/cstdio"
 2514              		.file 29 "/Library/DaisyToolchain/0.2.0/arm/arm-none-eabi/include/c++/10.3.1/bits/basic_string.h"
 2515              		.file 30 "/Library/DaisyToolchain/0.2.0/arm/arm-none-eabi/include/c++/10.3.1/bits/stl_iterator.h"
 2516              		.file 31 "/Library/DaisyToolchain/0.2.0/arm/arm-none-eabi/include/c++/10.3.1/bits/algorithmfwd.h"
 2517              		.file 32 "/Library/DaisyToolchain/0.2.0/arm/arm-none-eabi/include/c++/10.3.1/cstring"
ARM GAS  /var/folders/7c/668hyr3s7rlgsbdftclf3hsr0000gn/T//cctzORKV.s 			page 73


 2518              		.file 33 "/Library/DaisyToolchain/0.2.0/arm/arm-none-eabi/include/c++/10.3.1/cstdarg"
 2519              		.file 34 "/Library/DaisyToolchain/0.2.0/arm/arm-none-eabi/include/c++/10.3.1/bits/predefined_ops.h
 2520              		.file 35 "/Library/DaisyToolchain/0.2.0/arm/arm-none-eabi/include/sys/_types.h"
 2521              		.file 36 "/Library/DaisyToolchain/0.2.0/arm/arm-none-eabi/include/sys/reent.h"
 2522              		.file 37 "/Library/DaisyToolchain/0.2.0/arm/arm-none-eabi/include/sys/lock.h"
 2523              		.file 38 "/Library/DaisyToolchain/0.2.0/arm/arm-none-eabi/include/math.h"
 2524              		.file 39 "/Library/DaisyToolchain/0.2.0/arm/arm-none-eabi/include/stdlib.h"
 2525              		.file 40 "/Library/DaisyToolchain/0.2.0/arm/arm-none-eabi/include/c++/10.3.1/math.h"
 2526              		.file 41 "../DaisyExamples/DaisySP/Source/Utility/dsp.h"
 2527              		.file 42 "/Library/DaisyToolchain/0.2.0/arm/lib/gcc/arm-none-eabi/10.3.1/include/stdarg.h"
 2528              		.file 43 "/Library/DaisyToolchain/0.2.0/arm/arm-none-eabi/include/wchar.h"
 2529              		.file 44 "/Library/DaisyToolchain/0.2.0/arm/arm-none-eabi/include/locale.h"
 2530              		.file 45 "/Library/DaisyToolchain/0.2.0/arm/arm-none-eabi/include/stdio.h"
 2531              		.file 46 "/Library/DaisyToolchain/0.2.0/arm/arm-none-eabi/include/c++/10.3.1/stdlib.h"
 2532              		.file 47 "/Library/DaisyToolchain/0.2.0/arm/arm-none-eabi/include/string.h"
 2533              		.file 48 "../DaisyExamples/libDaisy/src/daisy_core.h"
 2534              		.file 49 "../DaisyExamples/libDaisy/src/per/tim.h"
 2535              		.file 50 "../DaisyExamples/libDaisy/src/util/wav_format.h"
 2536              		.file 51 "../DaisyExamples/libDaisy/src/dev/max11300.h"
 2537              		.file 52 "../DaisyExamples/libDaisy/src/per/gpio.h"
 2538              		.file 53 "../DaisyExamples/libDaisy/src/dev/sdram.h"
 2539              		.file 54 "<built-in>"
 2540              		.file 55 "../DaisyExamples/libDaisy/src/dev/sr_595.h"
ARM GAS  /var/folders/7c/668hyr3s7rlgsbdftclf3hsr0000gn/T//cctzORKV.s 			page 74

