ARM GAS  /var/folders/7c/668hyr3s7rlgsbdftclf3hsr0000gn/T//ccVahvvy.s 			page 1


   1              		.cpu cortex-m7
   2              		.arch armv7e-m
   3              		.fpu fpv5-d16
   4              		.eabi_attribute 28, 1
   5              		.eabi_attribute 20, 1
   6              		.eabi_attribute 21, 1
   7              		.eabi_attribute 23, 3
   8              		.eabi_attribute 24, 1
   9              		.eabi_attribute 25, 1
  10              		.eabi_attribute 26, 1
  11              		.eabi_attribute 30, 2
  12              		.eabi_attribute 34, 1
  13              		.eabi_attribute 18, 4
  14              		.file	"keys.cpp"
  15              		.text
  16              	.Ltext0:
  17              		.cfi_sections	.debug_frame
  18              		.section	.text._ZN7daisysp5AdEnvD2Ev,"axG",%progbits,_ZN7daisysp5AdEnvD5Ev,comdat
  19              		.align	1
  20              		.p2align 2,,3
  21              		.weak	_ZN7daisysp5AdEnvD2Ev
  22              		.syntax unified
  23              		.thumb
  24              		.thumb_func
  26              	_ZN7daisysp5AdEnvD2Ev:
  27              	.LVL0:
  28              	.LFB548:
  29              		.file 1 "../DaisyExamples/DaisySP/Source/Control/adenv.h"
   1:../DaisyExamples/DaisySP/Source/Control/adenv.h **** /*
   2:../DaisyExamples/DaisySP/Source/Control/adenv.h **** Copyright (c) 2020 Electrosmith, Corp
   3:../DaisyExamples/DaisySP/Source/Control/adenv.h **** 
   4:../DaisyExamples/DaisySP/Source/Control/adenv.h **** Use of this source code is governed by an MIT-style
   5:../DaisyExamples/DaisySP/Source/Control/adenv.h **** license that can be found in the LICENSE file or at
   6:../DaisyExamples/DaisySP/Source/Control/adenv.h **** https://opensource.org/licenses/MIT.
   7:../DaisyExamples/DaisySP/Source/Control/adenv.h **** */
   8:../DaisyExamples/DaisySP/Source/Control/adenv.h **** 
   9:../DaisyExamples/DaisySP/Source/Control/adenv.h **** #pragma once
  10:../DaisyExamples/DaisySP/Source/Control/adenv.h **** #ifndef ADENV_H
  11:../DaisyExamples/DaisySP/Source/Control/adenv.h **** #define ADENV_H
  12:../DaisyExamples/DaisySP/Source/Control/adenv.h **** #include <stdint.h>
  13:../DaisyExamples/DaisySP/Source/Control/adenv.h **** #ifdef __cplusplus
  14:../DaisyExamples/DaisySP/Source/Control/adenv.h **** 
  15:../DaisyExamples/DaisySP/Source/Control/adenv.h **** namespace daisysp
  16:../DaisyExamples/DaisySP/Source/Control/adenv.h **** {
  17:../DaisyExamples/DaisySP/Source/Control/adenv.h **** /** Distinct stages that the phase of the envelope can be located in.
  18:../DaisyExamples/DaisySP/Source/Control/adenv.h ****     @see AdEnv
  19:../DaisyExamples/DaisySP/Source/Control/adenv.h **** */
  20:../DaisyExamples/DaisySP/Source/Control/adenv.h **** enum AdEnvSegment
  21:../DaisyExamples/DaisySP/Source/Control/adenv.h **** {
  22:../DaisyExamples/DaisySP/Source/Control/adenv.h ****     /** located at phase location 0, and not currently running */
  23:../DaisyExamples/DaisySP/Source/Control/adenv.h ****     ADENV_SEG_IDLE,
  24:../DaisyExamples/DaisySP/Source/Control/adenv.h ****     /** First segment of envelope where phase moves from MIN value to MAX value */
  25:../DaisyExamples/DaisySP/Source/Control/adenv.h ****     ADENV_SEG_ATTACK,
  26:../DaisyExamples/DaisySP/Source/Control/adenv.h ****     /** Second segment of envelope where phase moves from MAX to MIN value */
  27:../DaisyExamples/DaisySP/Source/Control/adenv.h ****     ADENV_SEG_DECAY,
  28:../DaisyExamples/DaisySP/Source/Control/adenv.h ****     /** The final segment of the envelope (currently decay) */
  29:../DaisyExamples/DaisySP/Source/Control/adenv.h ****     ADENV_SEG_LAST,
ARM GAS  /var/folders/7c/668hyr3s7rlgsbdftclf3hsr0000gn/T//ccVahvvy.s 			page 2


  30:../DaisyExamples/DaisySP/Source/Control/adenv.h **** };
  31:../DaisyExamples/DaisySP/Source/Control/adenv.h **** 
  32:../DaisyExamples/DaisySP/Source/Control/adenv.h **** /** Trigger-able envelope with adjustable min/max, and independent per-segment time control.
  33:../DaisyExamples/DaisySP/Source/Control/adenv.h **** 
  34:../DaisyExamples/DaisySP/Source/Control/adenv.h ****     \author shensley
  35:../DaisyExamples/DaisySP/Source/Control/adenv.h ****     \todo - Add Cycling
  36:../DaisyExamples/DaisySP/Source/Control/adenv.h ****     \todo - Implement Curve (its only linear for now).
  37:../DaisyExamples/DaisySP/Source/Control/adenv.h ****     \todo - Maybe make this an ADsr_ that has AD/AR/Asr_ modes.
  38:../DaisyExamples/DaisySP/Source/Control/adenv.h ****  */
  39:../DaisyExamples/DaisySP/Source/Control/adenv.h **** class AdEnv
  40:../DaisyExamples/DaisySP/Source/Control/adenv.h **** {
  41:../DaisyExamples/DaisySP/Source/Control/adenv.h ****   public:
  42:../DaisyExamples/DaisySP/Source/Control/adenv.h ****     AdEnv() {}
  43:../DaisyExamples/DaisySP/Source/Control/adenv.h ****     ~AdEnv() {}
  30              		.loc 1 43 5 view -0
  31              		.cfi_startproc
  32              		@ args = 0, pretend = 0, frame = 0
  33              		@ frame_needed = 0, uses_anonymous_args = 0
  34              		@ link register save eliminated.
  35              		.loc 1 43 15 is_stmt 0 view .LVU1
  36 0000 7047     		bx	lr
  37              		.cfi_endproc
  38              	.LFE548:
  40              		.weak	_ZN7daisysp5AdEnvD1Ev
  41              		.thumb_set _ZN7daisysp5AdEnvD1Ev,_ZN7daisysp5AdEnvD2Ev
  42 0002 00BF     		.section	.text._ZN7daisysp10OscillatorD2Ev,"axG",%progbits,_ZN7daisysp10OscillatorD5Ev,comdat
  43              		.align	1
  44              		.p2align 2,,3
  45              		.weak	_ZN7daisysp10OscillatorD2Ev
  46              		.syntax unified
  47              		.thumb
  48              		.thumb_func
  50              	_ZN7daisysp10OscillatorD2Ev:
  51              	.LVL1:
  52              	.LFB2826:
  53              		.file 2 "../DaisyExamples/DaisySP/Source/Synthesis/oscillator.h"
   1:../DaisyExamples/DaisySP/Source/Synthesis/oscillator.h **** /*
   2:../DaisyExamples/DaisySP/Source/Synthesis/oscillator.h **** Copyright (c) 2020 Electrosmith, Corp
   3:../DaisyExamples/DaisySP/Source/Synthesis/oscillator.h **** 
   4:../DaisyExamples/DaisySP/Source/Synthesis/oscillator.h **** Use of this source code is governed by an MIT-style
   5:../DaisyExamples/DaisySP/Source/Synthesis/oscillator.h **** license that can be found in the LICENSE file or at
   6:../DaisyExamples/DaisySP/Source/Synthesis/oscillator.h **** https://opensource.org/licenses/MIT.
   7:../DaisyExamples/DaisySP/Source/Synthesis/oscillator.h **** */
   8:../DaisyExamples/DaisySP/Source/Synthesis/oscillator.h **** 
   9:../DaisyExamples/DaisySP/Source/Synthesis/oscillator.h **** #pragma once
  10:../DaisyExamples/DaisySP/Source/Synthesis/oscillator.h **** #ifndef DSY_OSCILLATOR_H
  11:../DaisyExamples/DaisySP/Source/Synthesis/oscillator.h **** #define DSY_OSCILLATOR_H
  12:../DaisyExamples/DaisySP/Source/Synthesis/oscillator.h **** #include <stdint.h>
  13:../DaisyExamples/DaisySP/Source/Synthesis/oscillator.h **** #include "Utility/dsp.h"
  14:../DaisyExamples/DaisySP/Source/Synthesis/oscillator.h **** #ifdef __cplusplus
  15:../DaisyExamples/DaisySP/Source/Synthesis/oscillator.h **** 
  16:../DaisyExamples/DaisySP/Source/Synthesis/oscillator.h **** namespace daisysp
  17:../DaisyExamples/DaisySP/Source/Synthesis/oscillator.h **** {
  18:../DaisyExamples/DaisySP/Source/Synthesis/oscillator.h **** /** Synthesis of several waveforms, including polyBLEP bandlimited waveforms.
  19:../DaisyExamples/DaisySP/Source/Synthesis/oscillator.h **** */
  20:../DaisyExamples/DaisySP/Source/Synthesis/oscillator.h **** class Oscillator
  21:../DaisyExamples/DaisySP/Source/Synthesis/oscillator.h **** {
ARM GAS  /var/folders/7c/668hyr3s7rlgsbdftclf3hsr0000gn/T//ccVahvvy.s 			page 3


  22:../DaisyExamples/DaisySP/Source/Synthesis/oscillator.h ****   public:
  23:../DaisyExamples/DaisySP/Source/Synthesis/oscillator.h ****     Oscillator() {}
  24:../DaisyExamples/DaisySP/Source/Synthesis/oscillator.h ****     ~Oscillator() {}
  54              		.loc 2 24 5 is_stmt 1 view -0
  55              		.cfi_startproc
  56              		@ args = 0, pretend = 0, frame = 0
  57              		@ frame_needed = 0, uses_anonymous_args = 0
  58              		@ link register save eliminated.
  59              		.loc 2 24 20 is_stmt 0 view .LVU3
  60 0000 7047     		bx	lr
  61              		.cfi_endproc
  62              	.LFE2826:
  64              		.weak	_ZN7daisysp10OscillatorD1Ev
  65              		.thumb_set _ZN7daisysp10OscillatorD1Ev,_ZN7daisysp10OscillatorD2Ev
  66 0002 00BF     		.section	.text._ZN5daisy6SwitchD2Ev,"axG",%progbits,_ZN5daisy6SwitchD5Ev,comdat
  67              		.align	1
  68              		.p2align 2,,3
  69              		.weak	_ZN5daisy6SwitchD2Ev
  70              		.syntax unified
  71              		.thumb
  72              		.thumb_func
  74              	_ZN5daisy6SwitchD2Ev:
  75              	.LVL2:
  76              	.LFB3767:
  77              		.file 3 "../DaisyExamples/libDaisy/src/hid/switch.h"
   1:../DaisyExamples/libDaisy/src/hid/switch.h **** #pragma once
   2:../DaisyExamples/libDaisy/src/hid/switch.h **** #ifndef DSY_SWITCH_H
   3:../DaisyExamples/libDaisy/src/hid/switch.h **** #define DSY_SWITCH_H
   4:../DaisyExamples/libDaisy/src/hid/switch.h **** #include "daisy_core.h"
   5:../DaisyExamples/libDaisy/src/hid/switch.h **** #include "per/gpio.h"
   6:../DaisyExamples/libDaisy/src/hid/switch.h **** #include "sys/system.h"
   7:../DaisyExamples/libDaisy/src/hid/switch.h **** 
   8:../DaisyExamples/libDaisy/src/hid/switch.h **** namespace daisy
   9:../DaisyExamples/libDaisy/src/hid/switch.h **** {
  10:../DaisyExamples/libDaisy/src/hid/switch.h **** /** 
  11:../DaisyExamples/libDaisy/src/hid/switch.h ****     Generic Class for handling momentary/latching switches \n 
  12:../DaisyExamples/libDaisy/src/hid/switch.h ****     Inspired/influenced by Mutable Instruments (pichenettes) Switch classes
  13:../DaisyExamples/libDaisy/src/hid/switch.h ****     @author Stephen Hensley
  14:../DaisyExamples/libDaisy/src/hid/switch.h ****     @date December 2019
  15:../DaisyExamples/libDaisy/src/hid/switch.h ****     @ingroup controls
  16:../DaisyExamples/libDaisy/src/hid/switch.h **** */
  17:../DaisyExamples/libDaisy/src/hid/switch.h **** class Switch
  18:../DaisyExamples/libDaisy/src/hid/switch.h **** {
  19:../DaisyExamples/libDaisy/src/hid/switch.h ****   public:
  20:../DaisyExamples/libDaisy/src/hid/switch.h ****     /** Specifies the expected behavior of the switch */
  21:../DaisyExamples/libDaisy/src/hid/switch.h ****     enum Type
  22:../DaisyExamples/libDaisy/src/hid/switch.h ****     {
  23:../DaisyExamples/libDaisy/src/hid/switch.h ****         TYPE_TOGGLE,    /**< & */
  24:../DaisyExamples/libDaisy/src/hid/switch.h ****         TYPE_MOMENTARY, /**< & */
  25:../DaisyExamples/libDaisy/src/hid/switch.h ****     };
  26:../DaisyExamples/libDaisy/src/hid/switch.h ****     /** Specifies whether the pressed is HIGH or LOW. */
  27:../DaisyExamples/libDaisy/src/hid/switch.h ****     enum Polarity
  28:../DaisyExamples/libDaisy/src/hid/switch.h ****     {
  29:../DaisyExamples/libDaisy/src/hid/switch.h ****         POLARITY_NORMAL,   /**< & */
  30:../DaisyExamples/libDaisy/src/hid/switch.h ****         POLARITY_INVERTED, /**< & */
  31:../DaisyExamples/libDaisy/src/hid/switch.h ****     };
  32:../DaisyExamples/libDaisy/src/hid/switch.h **** 
ARM GAS  /var/folders/7c/668hyr3s7rlgsbdftclf3hsr0000gn/T//ccVahvvy.s 			page 4


  33:../DaisyExamples/libDaisy/src/hid/switch.h ****     /** Specifies whether to use built-in Pull Up/Down resistors to hold button at a given state wh
  34:../DaisyExamples/libDaisy/src/hid/switch.h ****     enum Pull
  35:../DaisyExamples/libDaisy/src/hid/switch.h ****     {
  36:../DaisyExamples/libDaisy/src/hid/switch.h ****         PULL_UP,   /**< & */
  37:../DaisyExamples/libDaisy/src/hid/switch.h ****         PULL_DOWN, /**< & */
  38:../DaisyExamples/libDaisy/src/hid/switch.h ****         PULL_NONE, /**< & */
  39:../DaisyExamples/libDaisy/src/hid/switch.h ****     };
  40:../DaisyExamples/libDaisy/src/hid/switch.h **** 
  41:../DaisyExamples/libDaisy/src/hid/switch.h ****     Switch() {}
  42:../DaisyExamples/libDaisy/src/hid/switch.h ****     ~Switch() {}
  78              		.loc 3 42 5 is_stmt 1 view -0
  79              		.cfi_startproc
  80              		@ args = 0, pretend = 0, frame = 0
  81              		@ frame_needed = 0, uses_anonymous_args = 0
  82              		@ link register save eliminated.
  83              		.loc 3 42 16 is_stmt 0 view .LVU5
  84 0000 7047     		bx	lr
  85              		.cfi_endproc
  86              	.LFE3767:
  88              		.weak	_ZN5daisy6SwitchD1Ev
  89              		.thumb_set _ZN5daisy6SwitchD1Ev,_ZN5daisy6SwitchD2Ev
  90 0002 00BF     		.section	.text._ZN5daisy13AnalogControlD2Ev,"axG",%progbits,_ZN5daisy13AnalogControlD5Ev,comdat
  91              		.align	1
  92              		.p2align 2,,3
  93              		.weak	_ZN5daisy13AnalogControlD2Ev
  94              		.syntax unified
  95              		.thumb
  96              		.thumb_func
  98              	_ZN5daisy13AnalogControlD2Ev:
  99              	.LVL3:
 100              	.LFB3799:
 101              		.file 4 "../DaisyExamples/libDaisy/src/hid/ctrl.h"
   1:../DaisyExamples/libDaisy/src/hid/ctrl.h **** #pragma once
   2:../DaisyExamples/libDaisy/src/hid/ctrl.h **** #ifndef DSY_KNOB_H
   3:../DaisyExamples/libDaisy/src/hid/ctrl.h **** #define DSY_KNOB_H /**< & */
   4:../DaisyExamples/libDaisy/src/hid/ctrl.h **** #include <stdint.h>
   5:../DaisyExamples/libDaisy/src/hid/ctrl.h **** 
   6:../DaisyExamples/libDaisy/src/hid/ctrl.h **** #ifdef __cplusplus
   7:../DaisyExamples/libDaisy/src/hid/ctrl.h **** namespace daisy
   8:../DaisyExamples/libDaisy/src/hid/ctrl.h **** {
   9:../DaisyExamples/libDaisy/src/hid/ctrl.h **** /**
  10:../DaisyExamples/libDaisy/src/hid/ctrl.h ****     @brief Hardware Interface for control inputs \n 
  11:../DaisyExamples/libDaisy/src/hid/ctrl.h ****     Primarily designed for ADC input controls such as \n 
  12:../DaisyExamples/libDaisy/src/hid/ctrl.h ****     potentiometers, and control voltage. \n 
  13:../DaisyExamples/libDaisy/src/hid/ctrl.h ****     @author Stephen Hensley
  14:../DaisyExamples/libDaisy/src/hid/ctrl.h ****     @date November 2019
  15:../DaisyExamples/libDaisy/src/hid/ctrl.h ****     @ingroup controls
  16:../DaisyExamples/libDaisy/src/hid/ctrl.h **** */
  17:../DaisyExamples/libDaisy/src/hid/ctrl.h **** class AnalogControl
  18:../DaisyExamples/libDaisy/src/hid/ctrl.h **** {
  19:../DaisyExamples/libDaisy/src/hid/ctrl.h ****   public:
  20:../DaisyExamples/libDaisy/src/hid/ctrl.h ****     /** Constructor */
  21:../DaisyExamples/libDaisy/src/hid/ctrl.h ****     AnalogControl() {}
  22:../DaisyExamples/libDaisy/src/hid/ctrl.h ****     /** destructor */
  23:../DaisyExamples/libDaisy/src/hid/ctrl.h ****     ~AnalogControl() {}
 102              		.loc 4 23 5 is_stmt 1 view -0
 103              		.cfi_startproc
ARM GAS  /var/folders/7c/668hyr3s7rlgsbdftclf3hsr0000gn/T//ccVahvvy.s 			page 5


 104              		@ args = 0, pretend = 0, frame = 0
 105              		@ frame_needed = 0, uses_anonymous_args = 0
 106              		@ link register save eliminated.
 107              		.loc 4 23 23 is_stmt 0 view .LVU7
 108 0000 7047     		bx	lr
 109              		.cfi_endproc
 110              	.LFE3799:
 112              		.weak	_ZN5daisy13AnalogControlD1Ev
 113              		.thumb_set _ZN5daisy13AnalogControlD1Ev,_ZN5daisy13AnalogControlD2Ev
 114 0002 00BF     		.section	.text._ZN5daisy9DaisySeedD2Ev,"axG",%progbits,_ZN5daisy9DaisySeedD5Ev,comdat
 115              		.align	1
 116              		.p2align 2,,3
 117              		.weak	_ZN5daisy9DaisySeedD2Ev
 118              		.syntax unified
 119              		.thumb
 120              		.thumb_func
 122              	_ZN5daisy9DaisySeedD2Ev:
 123              	.LVL4:
 124              	.LFB4677:
 125              		.file 5 "../DaisyExamples/libDaisy/src/daisy_seed.h"
   1:../DaisyExamples/libDaisy/src/daisy_seed.h **** #pragma once
   2:../DaisyExamples/libDaisy/src/daisy_seed.h **** #ifndef DSY_SEED_H
   3:../DaisyExamples/libDaisy/src/daisy_seed.h **** #define DSY_SEED_H
   4:../DaisyExamples/libDaisy/src/daisy_seed.h **** 
   5:../DaisyExamples/libDaisy/src/daisy_seed.h **** #include "daisy.h"
   6:../DaisyExamples/libDaisy/src/daisy_seed.h **** 
   7:../DaisyExamples/libDaisy/src/daisy_seed.h **** //Uncomment this out if you're still using the rev2 hardware
   8:../DaisyExamples/libDaisy/src/daisy_seed.h **** //#define SEED_REV2
   9:../DaisyExamples/libDaisy/src/daisy_seed.h **** 
  10:../DaisyExamples/libDaisy/src/daisy_seed.h **** namespace daisy
  11:../DaisyExamples/libDaisy/src/daisy_seed.h **** {
  12:../DaisyExamples/libDaisy/src/daisy_seed.h **** /**
  13:../DaisyExamples/libDaisy/src/daisy_seed.h ****    @brief This is the higher-level interface for the Daisy board. \n 
  14:../DaisyExamples/libDaisy/src/daisy_seed.h ****     All basic peripheral configuration/initialization is setup here. \n
  15:../DaisyExamples/libDaisy/src/daisy_seed.h **** 
  16:../DaisyExamples/libDaisy/src/daisy_seed.h ****    @ingroup boards
  17:../DaisyExamples/libDaisy/src/daisy_seed.h **** */
  18:../DaisyExamples/libDaisy/src/daisy_seed.h **** class DaisySeed
  19:../DaisyExamples/libDaisy/src/daisy_seed.h **** {
  20:../DaisyExamples/libDaisy/src/daisy_seed.h ****   public:
  21:../DaisyExamples/libDaisy/src/daisy_seed.h ****     DaisySeed() {}
  22:../DaisyExamples/libDaisy/src/daisy_seed.h ****     ~DaisySeed() {}
 126              		.loc 5 22 5 is_stmt 1 view -0
 127              		.cfi_startproc
 128              		@ args = 0, pretend = 0, frame = 0
 129              		@ frame_needed = 0, uses_anonymous_args = 0
 130              		@ link register save eliminated.
 131              	.LBB253:
 132              	.LBI253:
 133              		.file 6 "../DaisyExamples/libDaisy/src/sys/system.h"
   1:../DaisyExamples/libDaisy/src/sys/system.h **** #ifndef DSY_SYSTEM_H
   2:../DaisyExamples/libDaisy/src/sys/system.h **** #define DSY_SYSTEM_H
   3:../DaisyExamples/libDaisy/src/sys/system.h **** 
   4:../DaisyExamples/libDaisy/src/sys/system.h **** #ifndef UNIT_TEST // for unit tests, a dummy implementation is provided below
   5:../DaisyExamples/libDaisy/src/sys/system.h **** 
   6:../DaisyExamples/libDaisy/src/sys/system.h **** #include <cstdint>
   7:../DaisyExamples/libDaisy/src/sys/system.h **** #include "per/tim.h"
ARM GAS  /var/folders/7c/668hyr3s7rlgsbdftclf3hsr0000gn/T//ccVahvvy.s 			page 6


   8:../DaisyExamples/libDaisy/src/sys/system.h **** 
   9:../DaisyExamples/libDaisy/src/sys/system.h **** namespace daisy
  10:../DaisyExamples/libDaisy/src/sys/system.h **** {
  11:../DaisyExamples/libDaisy/src/sys/system.h **** /** A handle for interacting with the Core System.
  12:../DaisyExamples/libDaisy/src/sys/system.h ****  ** This includes the Clock tree, MPU, global DMA initialization,
  13:../DaisyExamples/libDaisy/src/sys/system.h ****  ** cache handling, and any other necessary global initiailzation
  14:../DaisyExamples/libDaisy/src/sys/system.h ****  **
  15:../DaisyExamples/libDaisy/src/sys/system.h ****  ** @author shensley
  16:../DaisyExamples/libDaisy/src/sys/system.h ****  ** @ingroup system
  17:../DaisyExamples/libDaisy/src/sys/system.h ****  */
  18:../DaisyExamples/libDaisy/src/sys/system.h **** class System
  19:../DaisyExamples/libDaisy/src/sys/system.h **** {
  20:../DaisyExamples/libDaisy/src/sys/system.h ****   public:
  21:../DaisyExamples/libDaisy/src/sys/system.h ****     /** Contains settings for initializing the System */
  22:../DaisyExamples/libDaisy/src/sys/system.h ****     struct Config
  23:../DaisyExamples/libDaisy/src/sys/system.h ****     {
  24:../DaisyExamples/libDaisy/src/sys/system.h ****         /** Specifies the system clock frequency that feeds APB/AHB clocks, etc. */
  25:../DaisyExamples/libDaisy/src/sys/system.h ****         enum class SysClkFreq
  26:../DaisyExamples/libDaisy/src/sys/system.h ****         {
  27:../DaisyExamples/libDaisy/src/sys/system.h ****             FREQ_400MHZ,
  28:../DaisyExamples/libDaisy/src/sys/system.h ****             FREQ_480MHZ,
  29:../DaisyExamples/libDaisy/src/sys/system.h ****         };
  30:../DaisyExamples/libDaisy/src/sys/system.h **** 
  31:../DaisyExamples/libDaisy/src/sys/system.h ****         /** Method to call on the struct to set to defaults
  32:../DaisyExamples/libDaisy/src/sys/system.h ****          ** CPU Freq set to 400MHz
  33:../DaisyExamples/libDaisy/src/sys/system.h ****          ** Cache Enabled
  34:../DaisyExamples/libDaisy/src/sys/system.h ****          ** */
  35:../DaisyExamples/libDaisy/src/sys/system.h ****         void Defaults()
  36:../DaisyExamples/libDaisy/src/sys/system.h ****         {
  37:../DaisyExamples/libDaisy/src/sys/system.h ****             cpu_freq    = SysClkFreq::FREQ_400MHZ;
  38:../DaisyExamples/libDaisy/src/sys/system.h ****             use_dcache  = true;
  39:../DaisyExamples/libDaisy/src/sys/system.h ****             use_icache  = true;
  40:../DaisyExamples/libDaisy/src/sys/system.h ****             skip_clocks = false;
  41:../DaisyExamples/libDaisy/src/sys/system.h ****         }
  42:../DaisyExamples/libDaisy/src/sys/system.h **** 
  43:../DaisyExamples/libDaisy/src/sys/system.h ****         /** Method to call on the struct to set to boost mode:
  44:../DaisyExamples/libDaisy/src/sys/system.h ****          ** CPU Freq set to 480MHz
  45:../DaisyExamples/libDaisy/src/sys/system.h ****          ** Cache Enabled
  46:../DaisyExamples/libDaisy/src/sys/system.h ****          ** */
  47:../DaisyExamples/libDaisy/src/sys/system.h ****         void Boost()
  48:../DaisyExamples/libDaisy/src/sys/system.h ****         {
  49:../DaisyExamples/libDaisy/src/sys/system.h ****             cpu_freq    = SysClkFreq::FREQ_480MHZ;
  50:../DaisyExamples/libDaisy/src/sys/system.h ****             use_dcache  = true;
  51:../DaisyExamples/libDaisy/src/sys/system.h ****             use_icache  = true;
  52:../DaisyExamples/libDaisy/src/sys/system.h ****             skip_clocks = false;
  53:../DaisyExamples/libDaisy/src/sys/system.h ****         }
  54:../DaisyExamples/libDaisy/src/sys/system.h **** 
  55:../DaisyExamples/libDaisy/src/sys/system.h ****         SysClkFreq cpu_freq;
  56:../DaisyExamples/libDaisy/src/sys/system.h ****         bool       use_dcache;
  57:../DaisyExamples/libDaisy/src/sys/system.h ****         bool       use_icache;
  58:../DaisyExamples/libDaisy/src/sys/system.h ****         bool       skip_clocks;
  59:../DaisyExamples/libDaisy/src/sys/system.h ****     };
  60:../DaisyExamples/libDaisy/src/sys/system.h **** 
  61:../DaisyExamples/libDaisy/src/sys/system.h ****     /** Describes the different regions of memory available to the Daisy */
  62:../DaisyExamples/libDaisy/src/sys/system.h ****     enum MemoryRegion
  63:../DaisyExamples/libDaisy/src/sys/system.h ****     {
  64:../DaisyExamples/libDaisy/src/sys/system.h ****         INTERNAL_FLASH = 0,
ARM GAS  /var/folders/7c/668hyr3s7rlgsbdftclf3hsr0000gn/T//ccVahvvy.s 			page 7


  65:../DaisyExamples/libDaisy/src/sys/system.h ****         ITCMRAM,
  66:../DaisyExamples/libDaisy/src/sys/system.h ****         DTCMRAM,
  67:../DaisyExamples/libDaisy/src/sys/system.h ****         SRAM_D1,
  68:../DaisyExamples/libDaisy/src/sys/system.h ****         SRAM_D2,
  69:../DaisyExamples/libDaisy/src/sys/system.h ****         SRAM_D3,
  70:../DaisyExamples/libDaisy/src/sys/system.h ****         SDRAM,
  71:../DaisyExamples/libDaisy/src/sys/system.h ****         QSPI,
  72:../DaisyExamples/libDaisy/src/sys/system.h ****         INVALID_ADDRESS,
  73:../DaisyExamples/libDaisy/src/sys/system.h ****     };
  74:../DaisyExamples/libDaisy/src/sys/system.h **** 
  75:../DaisyExamples/libDaisy/src/sys/system.h ****     /** Bootloader struct for controlling bootloading parameters */
  76:../DaisyExamples/libDaisy/src/sys/system.h ****     struct BootInfo
  77:../DaisyExamples/libDaisy/src/sys/system.h ****     {
  78:../DaisyExamples/libDaisy/src/sys/system.h ****         enum class Type : uint32_t
  79:../DaisyExamples/libDaisy/src/sys/system.h ****         {
  80:../DaisyExamples/libDaisy/src/sys/system.h ****             INVALID      = 0x00000000,
  81:../DaisyExamples/libDaisy/src/sys/system.h ****             JUMP         = 0xDEADBEEF,
  82:../DaisyExamples/libDaisy/src/sys/system.h ****             SKIP_TIMEOUT = 0x5AFEB007,
  83:../DaisyExamples/libDaisy/src/sys/system.h ****             INF_TIMEOUT  = 0xB0074EFA,
  84:../DaisyExamples/libDaisy/src/sys/system.h ****         } status;
  85:../DaisyExamples/libDaisy/src/sys/system.h ****         uint32_t data;
  86:../DaisyExamples/libDaisy/src/sys/system.h ****         enum class Version : uint32_t
  87:../DaisyExamples/libDaisy/src/sys/system.h ****         {
  88:../DaisyExamples/libDaisy/src/sys/system.h ****             LT_v6_0 = 0, // Less than v6.0
  89:../DaisyExamples/libDaisy/src/sys/system.h ****             NONE,        // No bootloader present
  90:../DaisyExamples/libDaisy/src/sys/system.h ****             v6_0,        // v6.0
  91:../DaisyExamples/libDaisy/src/sys/system.h ****             v6_1,        // v6.1 or greater
  92:../DaisyExamples/libDaisy/src/sys/system.h ****             LAST
  93:../DaisyExamples/libDaisy/src/sys/system.h ****         } version;
  94:../DaisyExamples/libDaisy/src/sys/system.h ****     };
  95:../DaisyExamples/libDaisy/src/sys/system.h **** 
  96:../DaisyExamples/libDaisy/src/sys/system.h ****     System() {}
  97:../DaisyExamples/libDaisy/src/sys/system.h ****     ~System() {}
 134              		.loc 6 97 5 view .LVU9
 135              		.loc 6 97 5 is_stmt 0 view .LVU10
 136              	.LBE253:
 137              	.LBB254:
 138              	.LBI254:
 139              		.file 7 "../DaisyExamples/libDaisy/src/hid/usb.h"
   1:../DaisyExamples/libDaisy/src/hid/usb.h **** #pragma once
   2:../DaisyExamples/libDaisy/src/hid/usb.h **** #ifndef DSY_HID_USB_H
   3:../DaisyExamples/libDaisy/src/hid/usb.h **** #define DSY_HID_USB_H
   4:../DaisyExamples/libDaisy/src/hid/usb.h **** #include <stdint.h>
   5:../DaisyExamples/libDaisy/src/hid/usb.h **** #include <stdlib.h>
   6:../DaisyExamples/libDaisy/src/hid/usb.h **** 
   7:../DaisyExamples/libDaisy/src/hid/usb.h **** namespace daisy
   8:../DaisyExamples/libDaisy/src/hid/usb.h **** /** @addtogroup human_interface
   9:../DaisyExamples/libDaisy/src/hid/usb.h ****     @{
  10:../DaisyExamples/libDaisy/src/hid/usb.h **** */
  11:../DaisyExamples/libDaisy/src/hid/usb.h **** 
  12:../DaisyExamples/libDaisy/src/hid/usb.h **** {
  13:../DaisyExamples/libDaisy/src/hid/usb.h **** /** 
  14:../DaisyExamples/libDaisy/src/hid/usb.h ****     @brief Interface for initializing and using the USB Peripherals on the daisy
  15:../DaisyExamples/libDaisy/src/hid/usb.h ****     @author Stephen Hensley
  16:../DaisyExamples/libDaisy/src/hid/usb.h ****     @date December 2019
  17:../DaisyExamples/libDaisy/src/hid/usb.h **** */
  18:../DaisyExamples/libDaisy/src/hid/usb.h **** class UsbHandle
ARM GAS  /var/folders/7c/668hyr3s7rlgsbdftclf3hsr0000gn/T//ccVahvvy.s 			page 8


  19:../DaisyExamples/libDaisy/src/hid/usb.h **** {
  20:../DaisyExamples/libDaisy/src/hid/usb.h ****   public:
  21:../DaisyExamples/libDaisy/src/hid/usb.h ****     /** Return values for USBHandle Functions */
  22:../DaisyExamples/libDaisy/src/hid/usb.h ****     enum class Result
  23:../DaisyExamples/libDaisy/src/hid/usb.h ****     {
  24:../DaisyExamples/libDaisy/src/hid/usb.h ****         OK,
  25:../DaisyExamples/libDaisy/src/hid/usb.h ****         ERR,
  26:../DaisyExamples/libDaisy/src/hid/usb.h ****     };
  27:../DaisyExamples/libDaisy/src/hid/usb.h **** 
  28:../DaisyExamples/libDaisy/src/hid/usb.h ****     /** Specified which of the two USB Peripherals to initialize. */
  29:../DaisyExamples/libDaisy/src/hid/usb.h ****     enum UsbPeriph
  30:../DaisyExamples/libDaisy/src/hid/usb.h ****     {
  31:../DaisyExamples/libDaisy/src/hid/usb.h ****         FS_INTERNAL, /**< Internal pin */
  32:../DaisyExamples/libDaisy/src/hid/usb.h ****         FS_EXTERNAL, /**< FS External D+ pin is Pin 38 (GPIO32). FS External D- pin is Pin 37 (GPIO
  33:../DaisyExamples/libDaisy/src/hid/usb.h ****         FS_BOTH,     /**< Both */
  34:../DaisyExamples/libDaisy/src/hid/usb.h ****     };
  35:../DaisyExamples/libDaisy/src/hid/usb.h **** 
  36:../DaisyExamples/libDaisy/src/hid/usb.h **** 
  37:../DaisyExamples/libDaisy/src/hid/usb.h ****     /** Function called upon reception of a buffer */
  38:../DaisyExamples/libDaisy/src/hid/usb.h ****     typedef void (*ReceiveCallback)(uint8_t* buff, uint32_t* len);
  39:../DaisyExamples/libDaisy/src/hid/usb.h **** 
  40:../DaisyExamples/libDaisy/src/hid/usb.h ****     UsbHandle() {}
  41:../DaisyExamples/libDaisy/src/hid/usb.h **** 
  42:../DaisyExamples/libDaisy/src/hid/usb.h ****     ~UsbHandle() {}
 140              		.loc 7 42 5 is_stmt 1 view .LVU11
 141              		.loc 7 42 5 is_stmt 0 view .LVU12
 142              	.LBE254:
 143              	.LBB255:
 144              	.LBI255:
 145              		.file 8 "../DaisyExamples/libDaisy/src/per/adc.h"
   1:../DaisyExamples/libDaisy/src/per/adc.h **** #pragma once
   2:../DaisyExamples/libDaisy/src/per/adc.h **** #ifndef DSY_ADC_H
   3:../DaisyExamples/libDaisy/src/per/adc.h **** #define DSY_ADC_H /**< Macro */
   4:../DaisyExamples/libDaisy/src/per/adc.h **** #include <stdint.h>
   5:../DaisyExamples/libDaisy/src/per/adc.h **** #include <stdlib.h>
   6:../DaisyExamples/libDaisy/src/per/adc.h **** #include "daisy_core.h"
   7:../DaisyExamples/libDaisy/src/per/adc.h **** #include "per/gpio.h"
   8:../DaisyExamples/libDaisy/src/per/adc.h **** 
   9:../DaisyExamples/libDaisy/src/per/adc.h **** #define DSY_ADC_MAX_CHANNELS 16 /**< Maximum number of ADC channels */
  10:../DaisyExamples/libDaisy/src/per/adc.h **** 
  11:../DaisyExamples/libDaisy/src/per/adc.h **** namespace daisy
  12:../DaisyExamples/libDaisy/src/per/adc.h **** {
  13:../DaisyExamples/libDaisy/src/per/adc.h **** /** @addtogroup per_analog
  14:../DaisyExamples/libDaisy/src/per/adc.h ****     @{
  15:../DaisyExamples/libDaisy/src/per/adc.h **** */
  16:../DaisyExamples/libDaisy/src/per/adc.h **** 
  17:../DaisyExamples/libDaisy/src/per/adc.h **** /* While there may not be many configuration options here,
  18:../DaisyExamples/libDaisy/src/per/adc.h **** using a struct like this allows us to add more configuration
  19:../DaisyExamples/libDaisy/src/per/adc.h **** later without breaking existing functionality.
  20:../DaisyExamples/libDaisy/src/per/adc.h **** */
  21:../DaisyExamples/libDaisy/src/per/adc.h **** 
  22:../DaisyExamples/libDaisy/src/per/adc.h **** /** @brief   Configuration Structure for an ADC Channel 
  23:../DaisyExamples/libDaisy/src/per/adc.h ****  *  @details This can be used to configure a a single input, 
  24:../DaisyExamples/libDaisy/src/per/adc.h ****  *           or a multiplexed input, allowing up to 8 inputs on 
  25:../DaisyExamples/libDaisy/src/per/adc.h ****  *           one channel.
  26:../DaisyExamples/libDaisy/src/per/adc.h ****  *  @note    Sharing data lines to multiple muxes _is_ possible, but
  27:../DaisyExamples/libDaisy/src/per/adc.h ****  *           each channel sharing data lines must be set to the maximum
ARM GAS  /var/folders/7c/668hyr3s7rlgsbdftclf3hsr0000gn/T//ccVahvvy.s 			page 9


  28:../DaisyExamples/libDaisy/src/per/adc.h ****  *           number of channels, even if some multiplexers have fewer
  29:../DaisyExamples/libDaisy/src/per/adc.h ****  *           inputs connected.
  30:../DaisyExamples/libDaisy/src/per/adc.h **** */
  31:../DaisyExamples/libDaisy/src/per/adc.h **** struct AdcChannelConfig
  32:../DaisyExamples/libDaisy/src/per/adc.h **** {
  33:../DaisyExamples/libDaisy/src/per/adc.h ****     /** Which pin to use for multiplexing */
  34:../DaisyExamples/libDaisy/src/per/adc.h ****     enum MuxPin
  35:../DaisyExamples/libDaisy/src/per/adc.h ****     {
  36:../DaisyExamples/libDaisy/src/per/adc.h ****         MUX_SEL_0,    /**< & */
  37:../DaisyExamples/libDaisy/src/per/adc.h ****         MUX_SEL_1,    /**< & */
  38:../DaisyExamples/libDaisy/src/per/adc.h ****         MUX_SEL_2,    /**< & */
  39:../DaisyExamples/libDaisy/src/per/adc.h ****         MUX_SEL_LAST, /**< & */
  40:../DaisyExamples/libDaisy/src/per/adc.h ****     };
  41:../DaisyExamples/libDaisy/src/per/adc.h **** 
  42:../DaisyExamples/libDaisy/src/per/adc.h ****     /** \brief per channel conversion speed added to fixed time based on bitdepth, etc. */
  43:../DaisyExamples/libDaisy/src/per/adc.h ****     enum ConversionSpeed
  44:../DaisyExamples/libDaisy/src/per/adc.h ****     {
  45:../DaisyExamples/libDaisy/src/per/adc.h ****         SPEED_1CYCLES_5,
  46:../DaisyExamples/libDaisy/src/per/adc.h ****         SPEED_2CYCLES_5,
  47:../DaisyExamples/libDaisy/src/per/adc.h ****         SPEED_8CYCLES_5,
  48:../DaisyExamples/libDaisy/src/per/adc.h ****         SPEED_16CYCLES_5,
  49:../DaisyExamples/libDaisy/src/per/adc.h ****         SPEED_32CYCLES_5,
  50:../DaisyExamples/libDaisy/src/per/adc.h ****         SPEED_64CYCLES_5,
  51:../DaisyExamples/libDaisy/src/per/adc.h ****         SPEED_387CYCLES_5,
  52:../DaisyExamples/libDaisy/src/per/adc.h ****         SPEED_810CYCLES_5,
  53:../DaisyExamples/libDaisy/src/per/adc.h ****     };
  54:../DaisyExamples/libDaisy/src/per/adc.h **** 
  55:../DaisyExamples/libDaisy/src/per/adc.h ****     /** Initializes a single ADC pin as an ADC. 
  56:../DaisyExamples/libDaisy/src/per/adc.h ****     \param pin Pin to init.
  57:../DaisyExamples/libDaisy/src/per/adc.h ****     \param speed conversion speed for this pin defaults to 8.5 cycles
  58:../DaisyExamples/libDaisy/src/per/adc.h ****      */
  59:../DaisyExamples/libDaisy/src/per/adc.h ****     void InitSingle(dsy_gpio_pin pin, ConversionSpeed speed = SPEED_8CYCLES_5);
  60:../DaisyExamples/libDaisy/src/per/adc.h **** 
  61:../DaisyExamples/libDaisy/src/per/adc.h ****     /** 
  62:../DaisyExamples/libDaisy/src/per/adc.h ****     Initializes a single ADC pin as a Multiplexed ADC.
  63:../DaisyExamples/libDaisy/src/per/adc.h ****     Requires a CD405X Multiplexer connected to the pin.
  64:../DaisyExamples/libDaisy/src/per/adc.h ****     You only need to supply the mux pins that are required,
  65:../DaisyExamples/libDaisy/src/per/adc.h ****     e.g. a 4052 mux would only require mux_0 and mux_1.
  66:../DaisyExamples/libDaisy/src/per/adc.h ****     Internal Callbacks handle the pin addressing.
  67:../DaisyExamples/libDaisy/src/per/adc.h ****     \param adc_pin &
  68:../DaisyExamples/libDaisy/src/per/adc.h ****     \param mux_channels must be 1-8
  69:../DaisyExamples/libDaisy/src/per/adc.h ****     \param mux_0 First mux pin
  70:../DaisyExamples/libDaisy/src/per/adc.h ****     \param mux_1 Second mux pin
  71:../DaisyExamples/libDaisy/src/per/adc.h ****     \param mux_2 Third mux pin
  72:../DaisyExamples/libDaisy/src/per/adc.h ****     \param speed conversion speed for this pin defaults to 8.5 cycles
  73:../DaisyExamples/libDaisy/src/per/adc.h ****     */
  74:../DaisyExamples/libDaisy/src/per/adc.h ****     void InitMux(dsy_gpio_pin    adc_pin,
  75:../DaisyExamples/libDaisy/src/per/adc.h ****                  size_t          mux_channels,
  76:../DaisyExamples/libDaisy/src/per/adc.h ****                  dsy_gpio_pin    mux_0,
  77:../DaisyExamples/libDaisy/src/per/adc.h ****                  dsy_gpio_pin    mux_1 = {DSY_GPIOX, 0},
  78:../DaisyExamples/libDaisy/src/per/adc.h ****                  dsy_gpio_pin    mux_2 = {DSY_GPIOX, 0},
  79:../DaisyExamples/libDaisy/src/per/adc.h ****                  ConversionSpeed speed = SPEED_8CYCLES_5);
  80:../DaisyExamples/libDaisy/src/per/adc.h **** 
  81:../DaisyExamples/libDaisy/src/per/adc.h ****     dsy_gpio        pin_;                   /**< & */
  82:../DaisyExamples/libDaisy/src/per/adc.h ****     dsy_gpio        mux_pin_[MUX_SEL_LAST]; /**< & */
  83:../DaisyExamples/libDaisy/src/per/adc.h ****     uint8_t         mux_channels_;          /**< & */
  84:../DaisyExamples/libDaisy/src/per/adc.h ****     ConversionSpeed speed_;
ARM GAS  /var/folders/7c/668hyr3s7rlgsbdftclf3hsr0000gn/T//ccVahvvy.s 			page 10


  85:../DaisyExamples/libDaisy/src/per/adc.h **** };
  86:../DaisyExamples/libDaisy/src/per/adc.h **** 
  87:../DaisyExamples/libDaisy/src/per/adc.h **** /**
  88:../DaisyExamples/libDaisy/src/per/adc.h ****    @brief Handler for analog to digital conversion
  89:../DaisyExamples/libDaisy/src/per/adc.h **** */
  90:../DaisyExamples/libDaisy/src/per/adc.h **** class AdcHandle
  91:../DaisyExamples/libDaisy/src/per/adc.h **** {
  92:../DaisyExamples/libDaisy/src/per/adc.h ****   public:
  93:../DaisyExamples/libDaisy/src/per/adc.h ****     /** Supported oversampling amounts */
  94:../DaisyExamples/libDaisy/src/per/adc.h ****     enum OverSampling
  95:../DaisyExamples/libDaisy/src/per/adc.h ****     {
  96:../DaisyExamples/libDaisy/src/per/adc.h ****         OVS_NONE, /**< & */
  97:../DaisyExamples/libDaisy/src/per/adc.h ****         OVS_4,    /**< & */
  98:../DaisyExamples/libDaisy/src/per/adc.h ****         OVS_8,    /**< & */
  99:../DaisyExamples/libDaisy/src/per/adc.h ****         OVS_16,   /**< & */
 100:../DaisyExamples/libDaisy/src/per/adc.h ****         OVS_32,   /**< & */
 101:../DaisyExamples/libDaisy/src/per/adc.h ****         OVS_64,   /**< & */
 102:../DaisyExamples/libDaisy/src/per/adc.h ****         OVS_128,  /**< & */
 103:../DaisyExamples/libDaisy/src/per/adc.h ****         OVS_256,  /**< & */
 104:../DaisyExamples/libDaisy/src/per/adc.h ****         OVS_512,  /**< & */
 105:../DaisyExamples/libDaisy/src/per/adc.h ****         OVS_1024, /**< & */
 106:../DaisyExamples/libDaisy/src/per/adc.h ****         OVS_LAST, /**< & */
 107:../DaisyExamples/libDaisy/src/per/adc.h ****     };
 108:../DaisyExamples/libDaisy/src/per/adc.h **** 
 109:../DaisyExamples/libDaisy/src/per/adc.h ****     AdcHandle() {}
 110:../DaisyExamples/libDaisy/src/per/adc.h ****     ~AdcHandle() {}
 146              		.loc 8 110 5 is_stmt 1 view .LVU13
 147              		.loc 8 110 5 is_stmt 0 view .LVU14
 148              	.LBE255:
 149              	.LBB256:
 150              	.LBI256:
 151              		.file 9 "../DaisyExamples/libDaisy/src/hid/audio.h"
   1:../DaisyExamples/libDaisy/src/hid/audio.h **** #ifndef DSY_AUDIO_H
   2:../DaisyExamples/libDaisy/src/hid/audio.h **** #define DSY_AUDIO_H /**< & */
   3:../DaisyExamples/libDaisy/src/hid/audio.h **** 
   4:../DaisyExamples/libDaisy/src/hid/audio.h **** #include "per/sai.h"
   5:../DaisyExamples/libDaisy/src/hid/audio.h **** 
   6:../DaisyExamples/libDaisy/src/hid/audio.h **** namespace daisy
   7:../DaisyExamples/libDaisy/src/hid/audio.h **** {
   8:../DaisyExamples/libDaisy/src/hid/audio.h **** /** @brief Audio Engine Handle
   9:../DaisyExamples/libDaisy/src/hid/audio.h ****  *  @ingroup audio 
  10:../DaisyExamples/libDaisy/src/hid/audio.h ****  *  @details This class allows for higher level access to an audio engine.
  11:../DaisyExamples/libDaisy/src/hid/audio.h ****  *           If you're using a SOM like the DaisySeed or DaisyPatchSM (or any 
  12:../DaisyExamples/libDaisy/src/hid/audio.h ****  *            board that includes one of those objects) then the intialization
  13:../DaisyExamples/libDaisy/src/hid/audio.h ****  *            is already taken  care of.
  14:../DaisyExamples/libDaisy/src/hid/audio.h ****  *           If you're setting up your own custom hardware, or need to make changes
  15:../DaisyExamples/libDaisy/src/hid/audio.h ****  *           you will have to take the following steps:
  16:../DaisyExamples/libDaisy/src/hid/audio.h ****  *             1. Create and Initialize an SaiHandle or two depending on your requirements
  17:../DaisyExamples/libDaisy/src/hid/audio.h ****  *             2. Initialize the Audio Handle with the desired settings and the Initialized SaiHand
  18:../DaisyExamples/libDaisy/src/hid/audio.h ****  *             3. If the connected codec requires special configuration or initialization, do so
  19:../DaisyExamples/libDaisy/src/hid/audio.h ****  *             4. Write a callback method using either the AudioCallback or the InterleavingAudioCa
  20:../DaisyExamples/libDaisy/src/hid/audio.h ****  *             5. Start the Audio using one of the StartAudio function
  21:../DaisyExamples/libDaisy/src/hid/audio.h ****  */
  22:../DaisyExamples/libDaisy/src/hid/audio.h **** class AudioHandle
  23:../DaisyExamples/libDaisy/src/hid/audio.h **** {
  24:../DaisyExamples/libDaisy/src/hid/audio.h ****   public:
  25:../DaisyExamples/libDaisy/src/hid/audio.h ****     /** Manually configurable details about the Audio Engine */
ARM GAS  /var/folders/7c/668hyr3s7rlgsbdftclf3hsr0000gn/T//ccVahvvy.s 			page 11


  26:../DaisyExamples/libDaisy/src/hid/audio.h ****     /** TODO: Figure out how to get samplerate in here. */
  27:../DaisyExamples/libDaisy/src/hid/audio.h ****     struct Config
  28:../DaisyExamples/libDaisy/src/hid/audio.h ****     {
  29:../DaisyExamples/libDaisy/src/hid/audio.h ****         /** number of samples to process per callback */
  30:../DaisyExamples/libDaisy/src/hid/audio.h ****         size_t blocksize;
  31:../DaisyExamples/libDaisy/src/hid/audio.h **** 
  32:../DaisyExamples/libDaisy/src/hid/audio.h ****         /**< Sample rate of audio */
  33:../DaisyExamples/libDaisy/src/hid/audio.h ****         SaiHandle::Config::SampleRate samplerate;
  34:../DaisyExamples/libDaisy/src/hid/audio.h **** 
  35:../DaisyExamples/libDaisy/src/hid/audio.h ****         /** factor for adjustment before and after callback for hardware that may have extra headro
  36:../DaisyExamples/libDaisy/src/hid/audio.h ****         float postgain;
  37:../DaisyExamples/libDaisy/src/hid/audio.h **** 
  38:../DaisyExamples/libDaisy/src/hid/audio.h ****         /** factor for additional one-sided compensation to audio path for hardware that may
  39:../DaisyExamples/libDaisy/src/hid/audio.h ****          *  have unequal input/output ranges
  40:../DaisyExamples/libDaisy/src/hid/audio.h ****          */
  41:../DaisyExamples/libDaisy/src/hid/audio.h ****         float output_compensation;
  42:../DaisyExamples/libDaisy/src/hid/audio.h **** 
  43:../DaisyExamples/libDaisy/src/hid/audio.h ****         /** Sets default values for config struct */
  44:../DaisyExamples/libDaisy/src/hid/audio.h ****         Config()
  45:../DaisyExamples/libDaisy/src/hid/audio.h ****         : blocksize(48),
  46:../DaisyExamples/libDaisy/src/hid/audio.h ****           samplerate(SaiHandle::Config::SampleRate::SAI_48KHZ),
  47:../DaisyExamples/libDaisy/src/hid/audio.h ****           postgain(1.f),
  48:../DaisyExamples/libDaisy/src/hid/audio.h ****           output_compensation(1.f)
  49:../DaisyExamples/libDaisy/src/hid/audio.h ****         {
  50:../DaisyExamples/libDaisy/src/hid/audio.h ****         }
  51:../DaisyExamples/libDaisy/src/hid/audio.h ****     };
  52:../DaisyExamples/libDaisy/src/hid/audio.h **** 
  53:../DaisyExamples/libDaisy/src/hid/audio.h ****     enum class Result
  54:../DaisyExamples/libDaisy/src/hid/audio.h ****     {
  55:../DaisyExamples/libDaisy/src/hid/audio.h ****         OK,
  56:../DaisyExamples/libDaisy/src/hid/audio.h ****         ERR,
  57:../DaisyExamples/libDaisy/src/hid/audio.h ****     };
  58:../DaisyExamples/libDaisy/src/hid/audio.h **** 
  59:../DaisyExamples/libDaisy/src/hid/audio.h ****     /** Non-Interleaving input buffer
  60:../DaisyExamples/libDaisy/src/hid/audio.h ****      * Buffer arranged by float[chn][sample] 
  61:../DaisyExamples/libDaisy/src/hid/audio.h ****      * const so that the user can't modify the input
  62:../DaisyExamples/libDaisy/src/hid/audio.h ****      */
  63:../DaisyExamples/libDaisy/src/hid/audio.h ****     typedef const float* const* InputBuffer;
  64:../DaisyExamples/libDaisy/src/hid/audio.h **** 
  65:../DaisyExamples/libDaisy/src/hid/audio.h ****     /** Non-Interleaving output buffer
  66:../DaisyExamples/libDaisy/src/hid/audio.h ****      * Arranged by float[chn][sample] 
  67:../DaisyExamples/libDaisy/src/hid/audio.h ****      */
  68:../DaisyExamples/libDaisy/src/hid/audio.h ****     typedef float** OutputBuffer;
  69:../DaisyExamples/libDaisy/src/hid/audio.h **** 
  70:../DaisyExamples/libDaisy/src/hid/audio.h ****     /** Type for a Non-Interleaving audio callback 
  71:../DaisyExamples/libDaisy/src/hid/audio.h ****      * Non-Interleaving audio callbacks in daisy will be of this type
  72:../DaisyExamples/libDaisy/src/hid/audio.h ****      */
  73:../DaisyExamples/libDaisy/src/hid/audio.h ****     typedef void (*AudioCallback)(InputBuffer  in,
  74:../DaisyExamples/libDaisy/src/hid/audio.h ****                                   OutputBuffer out,
  75:../DaisyExamples/libDaisy/src/hid/audio.h ****                                   size_t       size);
  76:../DaisyExamples/libDaisy/src/hid/audio.h **** 
  77:../DaisyExamples/libDaisy/src/hid/audio.h ****     /** Interleaving Input buffer
  78:../DaisyExamples/libDaisy/src/hid/audio.h ****      ** audio is prepared as { L0, R0, L1, R1, . . . LN, RN }]
  79:../DaisyExamples/libDaisy/src/hid/audio.h ****      ** this is const, as the user shouldn't modify it
  80:../DaisyExamples/libDaisy/src/hid/audio.h ****     */
  81:../DaisyExamples/libDaisy/src/hid/audio.h ****     typedef const float* InterleavingInputBuffer;
  82:../DaisyExamples/libDaisy/src/hid/audio.h **** 
ARM GAS  /var/folders/7c/668hyr3s7rlgsbdftclf3hsr0000gn/T//ccVahvvy.s 			page 12


  83:../DaisyExamples/libDaisy/src/hid/audio.h ****     /** Interleaving Output buffer 
  84:../DaisyExamples/libDaisy/src/hid/audio.h ****      ** audio is prepared as { L0, R0, L1, R1, . . . LN, RN }
  85:../DaisyExamples/libDaisy/src/hid/audio.h ****     */
  86:../DaisyExamples/libDaisy/src/hid/audio.h ****     typedef float* InterleavingOutputBuffer;
  87:../DaisyExamples/libDaisy/src/hid/audio.h **** 
  88:../DaisyExamples/libDaisy/src/hid/audio.h ****     /** Interleaving Audio Callback 
  89:../DaisyExamples/libDaisy/src/hid/audio.h ****      * Interleaving audio callbacks in daisy must be of this type
  90:../DaisyExamples/libDaisy/src/hid/audio.h ****      */
  91:../DaisyExamples/libDaisy/src/hid/audio.h ****     typedef void (*InterleavingAudioCallback)(InterleavingInputBuffer  in,
  92:../DaisyExamples/libDaisy/src/hid/audio.h ****                                               InterleavingOutputBuffer out,
  93:../DaisyExamples/libDaisy/src/hid/audio.h ****                                               size_t                   size);
  94:../DaisyExamples/libDaisy/src/hid/audio.h **** 
  95:../DaisyExamples/libDaisy/src/hid/audio.h ****     AudioHandle() : pimpl_(nullptr) {}
  96:../DaisyExamples/libDaisy/src/hid/audio.h ****     ~AudioHandle() {}
 152              		.loc 9 96 5 is_stmt 1 view .LVU15
 153              		.loc 9 96 5 is_stmt 0 view .LVU16
 154              	.LBE256:
 155              		.loc 5 22 19 view .LVU17
 156 0000 7047     		bx	lr
 157              		.cfi_endproc
 158              	.LFE4677:
 160              		.weak	_ZN5daisy9DaisySeedD1Ev
 161              		.thumb_set _ZN5daisy9DaisySeedD1Ev,_ZN5daisy9DaisySeedD2Ev
 162 0002 00BF     		.section	.text._ZN7daisysp10Oscillator4InitEf,"axG",%progbits,_ZN7daisysp10Oscillator4InitEf,comda
 163              		.align	1
 164              		.p2align 2,,3
 165              		.weak	_ZN7daisysp10Oscillator4InitEf
 166              		.syntax unified
 167              		.thumb
 168              		.thumb_func
 170              	_ZN7daisysp10Oscillator4InitEf:
 171              	.LVL5:
 172              	.LFB2828:
  25:../DaisyExamples/DaisySP/Source/Synthesis/oscillator.h ****     /** Choices for output waveforms, POLYBLEP are appropriately labeled. Others are naive forms.
  26:../DaisyExamples/DaisySP/Source/Synthesis/oscillator.h ****     */
  27:../DaisyExamples/DaisySP/Source/Synthesis/oscillator.h ****     enum
  28:../DaisyExamples/DaisySP/Source/Synthesis/oscillator.h ****     {
  29:../DaisyExamples/DaisySP/Source/Synthesis/oscillator.h ****         WAVE_SIN,
  30:../DaisyExamples/DaisySP/Source/Synthesis/oscillator.h ****         WAVE_TRI,
  31:../DaisyExamples/DaisySP/Source/Synthesis/oscillator.h ****         WAVE_SAW,
  32:../DaisyExamples/DaisySP/Source/Synthesis/oscillator.h ****         WAVE_RAMP,
  33:../DaisyExamples/DaisySP/Source/Synthesis/oscillator.h ****         WAVE_SQUARE,
  34:../DaisyExamples/DaisySP/Source/Synthesis/oscillator.h ****         WAVE_POLYBLEP_TRI,
  35:../DaisyExamples/DaisySP/Source/Synthesis/oscillator.h ****         WAVE_POLYBLEP_SAW,
  36:../DaisyExamples/DaisySP/Source/Synthesis/oscillator.h ****         WAVE_POLYBLEP_SQUARE,
  37:../DaisyExamples/DaisySP/Source/Synthesis/oscillator.h ****         WAVE_LAST,
  38:../DaisyExamples/DaisySP/Source/Synthesis/oscillator.h ****     };
  39:../DaisyExamples/DaisySP/Source/Synthesis/oscillator.h **** 
  40:../DaisyExamples/DaisySP/Source/Synthesis/oscillator.h **** 
  41:../DaisyExamples/DaisySP/Source/Synthesis/oscillator.h ****     /** Initializes the Oscillator
  42:../DaisyExamples/DaisySP/Source/Synthesis/oscillator.h **** 
  43:../DaisyExamples/DaisySP/Source/Synthesis/oscillator.h ****         \param sample_rate - sample rate of the audio engine being run, and the frequency that the 
  44:../DaisyExamples/DaisySP/Source/Synthesis/oscillator.h **** 
  45:../DaisyExamples/DaisySP/Source/Synthesis/oscillator.h ****         Defaults:
  46:../DaisyExamples/DaisySP/Source/Synthesis/oscillator.h ****         - freq_ = 100 Hz
  47:../DaisyExamples/DaisySP/Source/Synthesis/oscillator.h ****         - amp_ = 0.5
  48:../DaisyExamples/DaisySP/Source/Synthesis/oscillator.h ****         - waveform_ = sine wave.
ARM GAS  /var/folders/7c/668hyr3s7rlgsbdftclf3hsr0000gn/T//ccVahvvy.s 			page 13


  49:../DaisyExamples/DaisySP/Source/Synthesis/oscillator.h ****     */
  50:../DaisyExamples/DaisySP/Source/Synthesis/oscillator.h ****     void Init(float sample_rate)
 173              		.loc 2 50 10 is_stmt 1 view -0
 174              		.cfi_startproc
 175              		@ args = 0, pretend = 0, frame = 0
 176              		@ frame_needed = 0, uses_anonymous_args = 0
  51:../DaisyExamples/DaisySP/Source/Synthesis/oscillator.h ****     {
  52:../DaisyExamples/DaisySP/Source/Synthesis/oscillator.h ****         sr_        = sample_rate;
 177              		.loc 2 52 9 view .LVU19
  50:../DaisyExamples/DaisySP/Source/Synthesis/oscillator.h ****     {
 178              		.loc 2 50 10 is_stmt 0 view .LVU20
 179 0000 F0EE407A 		vmov.f32	s15, s0
  53:../DaisyExamples/DaisySP/Source/Synthesis/oscillator.h ****         sr_recip_  = 1.0f / sample_rate;
  54:../DaisyExamples/DaisySP/Source/Synthesis/oscillator.h ****         freq_      = 100.0f;
  55:../DaisyExamples/DaisySP/Source/Synthesis/oscillator.h ****         amp_       = 0.5f;
 180              		.loc 2 55 20 view .LVU21
 181 0004 4FF07C53 		mov	r3, #1056964608
  53:../DaisyExamples/DaisySP/Source/Synthesis/oscillator.h ****         sr_recip_  = 1.0f / sample_rate;
 182              		.loc 2 53 27 view .LVU22
 183 0008 F7EE006A 		vmov.f32	s13, #1.0e+0
  56:../DaisyExamples/DaisySP/Source/Synthesis/oscillator.h ****         pw_        = 0.5f;
  57:../DaisyExamples/DaisySP/Source/Synthesis/oscillator.h ****         phase_     = 0.0f;
 184              		.loc 2 57 20 view .LVU23
 185 000c 0022     		movs	r2, #0
  54:../DaisyExamples/DaisySP/Source/Synthesis/oscillator.h ****         amp_       = 0.5f;
 186              		.loc 2 54 20 view .LVU24
 187 000e 9FED0C0A 		vldr.32	s0, .L9
 188              	.LVL6:
  55:../DaisyExamples/DaisySP/Source/Synthesis/oscillator.h ****         pw_        = 0.5f;
 189              		.loc 2 55 20 view .LVU25
 190 0012 4360     		str	r3, [r0, #4]	@ float
  53:../DaisyExamples/DaisySP/Source/Synthesis/oscillator.h ****         freq_      = 100.0f;
 191              		.loc 2 53 27 view .LVU26
 192 0014 86EEA77A 		vdiv.f32	s14, s13, s15
  56:../DaisyExamples/DaisySP/Source/Synthesis/oscillator.h ****         phase_     = 0.0f;
 193              		.loc 2 56 20 view .LVU27
 194 0018 C360     		str	r3, [r0, #12]	@ float
 195              		.loc 2 57 20 view .LVU28
 196 001a 8261     		str	r2, [r0, #24]	@ float
  52:../DaisyExamples/DaisySP/Source/Synthesis/oscillator.h ****         sr_recip_  = 1.0f / sample_rate;
 197              		.loc 2 52 20 view .LVU29
 198 001c C0ED047A 		vstr.32	s15, [r0, #16]
  53:../DaisyExamples/DaisySP/Source/Synthesis/oscillator.h ****         freq_      = 100.0f;
 199              		.loc 2 53 9 is_stmt 1 view .LVU30
  54:../DaisyExamples/DaisySP/Source/Synthesis/oscillator.h ****         amp_       = 0.5f;
 200              		.loc 2 54 20 is_stmt 0 view .LVU31
 201 0020 80ED020A 		vstr.32	s0, [r0, #8]
  50:../DaisyExamples/DaisySP/Source/Synthesis/oscillator.h ****     {
 202              		.loc 2 50 10 view .LVU32
 203 0024 10B5     		push	{r4, lr}
 204              		.cfi_def_cfa_offset 8
 205              		.cfi_offset 4, -8
 206              		.cfi_offset 14, -4
  50:../DaisyExamples/DaisySP/Source/Synthesis/oscillator.h ****     {
 207              		.loc 2 50 10 view .LVU33
 208 0026 0446     		mov	r4, r0
  53:../DaisyExamples/DaisySP/Source/Synthesis/oscillator.h ****         freq_      = 100.0f;
ARM GAS  /var/folders/7c/668hyr3s7rlgsbdftclf3hsr0000gn/T//ccVahvvy.s 			page 14


 209              		.loc 2 53 20 view .LVU34
 210 0028 80ED057A 		vstr.32	s14, [r0, #20]
  54:../DaisyExamples/DaisySP/Source/Synthesis/oscillator.h ****         amp_       = 0.5f;
 211              		.loc 2 54 9 is_stmt 1 view .LVU35
  55:../DaisyExamples/DaisySP/Source/Synthesis/oscillator.h ****         pw_        = 0.5f;
 212              		.loc 2 55 9 view .LVU36
  56:../DaisyExamples/DaisySP/Source/Synthesis/oscillator.h ****         phase_     = 0.0f;
 213              		.loc 2 56 9 view .LVU37
 214              		.loc 2 57 9 view .LVU38
  58:../DaisyExamples/DaisySP/Source/Synthesis/oscillator.h ****         phase_inc_ = CalcPhaseInc(freq_);
 215              		.loc 2 58 9 view .LVU39
 216              		.loc 2 58 34 is_stmt 0 view .LVU40
 217 002c FFF7FEFF 		bl	_ZN7daisysp10Oscillator12CalcPhaseIncEf
 218              	.LVL7:
  59:../DaisyExamples/DaisySP/Source/Synthesis/oscillator.h ****         waveform_  = WAVE_SIN;
 219              		.loc 2 59 20 view .LVU41
 220 0030 0022     		movs	r2, #0
  60:../DaisyExamples/DaisySP/Source/Synthesis/oscillator.h ****         eoc_       = true;
  61:../DaisyExamples/DaisySP/Source/Synthesis/oscillator.h ****         eor_       = true;
 221              		.loc 2 61 20 view .LVU42
 222 0032 40F20113 		movw	r3, #257
  58:../DaisyExamples/DaisySP/Source/Synthesis/oscillator.h ****         waveform_  = WAVE_SIN;
 223              		.loc 2 58 20 view .LVU43
 224 0036 84ED070A 		vstr.32	s0, [r4, #28]
  59:../DaisyExamples/DaisySP/Source/Synthesis/oscillator.h ****         waveform_  = WAVE_SIN;
 225              		.loc 2 59 9 is_stmt 1 view .LVU44
  59:../DaisyExamples/DaisySP/Source/Synthesis/oscillator.h ****         waveform_  = WAVE_SIN;
 226              		.loc 2 59 20 is_stmt 0 view .LVU45
 227 003a 2270     		strb	r2, [r4]
  60:../DaisyExamples/DaisySP/Source/Synthesis/oscillator.h ****         eoc_       = true;
 228              		.loc 2 60 9 is_stmt 1 view .LVU46
 229              		.loc 2 61 9 view .LVU47
 230              		.loc 2 61 20 is_stmt 0 view .LVU48
 231 003c 2385     		strh	r3, [r4, #40]	@ movhi
  62:../DaisyExamples/DaisySP/Source/Synthesis/oscillator.h ****     }
 232              		.loc 2 62 5 view .LVU49
 233 003e 10BD     		pop	{r4, pc}
 234              	.LVL8:
 235              	.L10:
 236              		.loc 2 62 5 view .LVU50
 237              		.align	2
 238              	.L9:
 239 0040 0000C842 		.word	1120403456
 240              		.cfi_endproc
 241              	.LFE2828:
 243              		.section	.text._Z11NextSamplesRfS_S_S_S_S_S_,"ax",%progbits
 244              		.align	1
 245              		.p2align 2,,3
 246              		.global	_Z11NextSamplesRfS_S_S_S_S_S_
 247              		.syntax unified
 248              		.thumb
 249              		.thumb_func
 251              	_Z11NextSamplesRfS_S_S_S_S_S_:
 252              	.LVL9:
 253              	.LFB4682:
 254              		.file 10 "keys.cpp"
   1:keys.cpp      **** #include "daisysp.h"
ARM GAS  /var/folders/7c/668hyr3s7rlgsbdftclf3hsr0000gn/T//ccVahvvy.s 			page 15


   2:keys.cpp      **** #include "daisy_seed.h"
   3:keys.cpp      **** 
   4:keys.cpp      **** using namespace daisysp;
   5:keys.cpp      **** using namespace daisy;
   6:keys.cpp      **** // Use the daisy namespace to prevent having to type
   7:keys.cpp      **** // daisy:: before all libdaisy functions
   8:keys.cpp      **** // Declare a DaisySeed object called hardware
   9:keys.cpp      **** 
  10:keys.cpp      **** static DaisySeed hw;
  11:keys.cpp      **** static Oscillator osc1, osc2, osc3;
  12:keys.cpp      **** static AdEnv      ad;
  13:keys.cpp      **** static AdcChannelConfig adcConfig[3];
  14:keys.cpp      **** static AnalogControl pot1, pot2, pot3;
  15:keys.cpp      **** 
  16:keys.cpp      **** 
  17:keys.cpp      **** 
  18:keys.cpp      **** int   mode;
  19:keys.cpp      **** float vibrato, oscFreq, octave;
  20:keys.cpp      **** 
  21:keys.cpp      **** Switch octave_up; 
  22:keys.cpp      **** Switch octave_down;
  23:keys.cpp      **** 
  24:keys.cpp      **** Switch C;
  25:keys.cpp      **** Switch CS;
  26:keys.cpp      **** Switch D;
  27:keys.cpp      **** Switch DS;
  28:keys.cpp      **** Switch E;
  29:keys.cpp      **** Switch F;
  30:keys.cpp      **** Switch FS;
  31:keys.cpp      **** Switch G;
  32:keys.cpp      **** Switch GS;
  33:keys.cpp      **** Switch A;
  34:keys.cpp      **** Switch AS;
  35:keys.cpp      **** Switch B;
  36:keys.cpp      **** Switch C2;
  37:keys.cpp      **** 
  38:keys.cpp      **** void Controls();
  39:keys.cpp      **** 
  40:keys.cpp      **** void NextSamples(float &sig, float &sig1, float &sig2, float &sig3, float &pot_val_1, float &pot_va
  41:keys.cpp      **** {
 255              		.loc 10 41 1 is_stmt 1 view -0
 256              		.cfi_startproc
 257              		@ args = 12, pretend = 0, frame = 0
 258              		@ frame_needed = 0, uses_anonymous_args = 0
  42:keys.cpp      ****     float ad_out = ad.Process();
 259              		.loc 10 42 5 view .LVU52
  41:keys.cpp      ****     float ad_out = ad.Process();
 260              		.loc 10 41 1 is_stmt 0 view .LVU53
 261 0000 2DE9F047 		push	{r4, r5, r6, r7, r8, r9, r10, lr}
 262              		.cfi_def_cfa_offset 32
 263              		.cfi_offset 4, -32
 264              		.cfi_offset 5, -28
 265              		.cfi_offset 6, -24
 266              		.cfi_offset 7, -20
 267              		.cfi_offset 8, -16
 268              		.cfi_offset 9, -12
 269              		.cfi_offset 10, -8
ARM GAS  /var/folders/7c/668hyr3s7rlgsbdftclf3hsr0000gn/T//ccVahvvy.s 			page 16


 270              		.cfi_offset 14, -4
  43:keys.cpp      ****     // vibrato      = lfo.Process();
  44:keys.cpp      **** 
  45:keys.cpp      ****     // osc.SetFreq(oscFreq + vibrato);
  46:keys.cpp      ****     osc1.SetFreq(oscFreq);
 271              		.loc 10 46 17 view .LVU54
 272 0004 2C4E     		ldr	r6, .L13
  41:keys.cpp      ****     float ad_out = ad.Process();
 273              		.loc 10 41 1 view .LVU55
 274 0006 8146     		mov	r9, r0
 275              	.LBB257:
 276              	.LBB258:
  63:../DaisyExamples/DaisySP/Source/Synthesis/oscillator.h **** 
  64:../DaisyExamples/DaisySP/Source/Synthesis/oscillator.h **** 
  65:../DaisyExamples/DaisySP/Source/Synthesis/oscillator.h ****     /** Changes the frequency of the Oscillator, and recalculates phase increment.
  66:../DaisyExamples/DaisySP/Source/Synthesis/oscillator.h ****     */
  67:../DaisyExamples/DaisySP/Source/Synthesis/oscillator.h ****     inline void SetFreq(const float f)
  68:../DaisyExamples/DaisySP/Source/Synthesis/oscillator.h ****     {
  69:../DaisyExamples/DaisySP/Source/Synthesis/oscillator.h ****         freq_      = f;
 277              		.loc 2 69 20 view .LVU56
 278 0008 DFF8BC80 		ldr	r8, .L13+16
 279              	.LBE258:
 280              	.LBE257:
  41:keys.cpp      ****     float ad_out = ad.Process();
 281              		.loc 10 41 1 view .LVU57
 282 000c 0C46     		mov	r4, r1
  42:keys.cpp      ****     // vibrato      = lfo.Process();
 283              		.loc 10 42 30 view .LVU58
 284 000e 2B48     		ldr	r0, .L13+4
 285              	.LVL10:
  41:keys.cpp      ****     float ad_out = ad.Process();
 286              		.loc 10 41 1 view .LVU59
 287 0010 1546     		mov	r5, r2
 288 0012 9A46     		mov	r10, r3
 289              	.LBB260:
 290              	.LBB261:
 291              		.loc 2 69 20 view .LVU60
 292 0014 2A4F     		ldr	r7, .L13+8
 293              	.LBE261:
 294              	.LBE260:
  41:keys.cpp      ****     float ad_out = ad.Process();
 295              		.loc 10 41 1 view .LVU61
 296 0016 2DED028B 		vpush.64	{d8}
 297              		.cfi_def_cfa_offset 40
 298              		.cfi_offset 80, -40
 299              		.cfi_offset 81, -36
  42:keys.cpp      ****     // vibrato      = lfo.Process();
 300              		.loc 10 42 30 view .LVU62
 301 001a FFF7FEFF 		bl	_ZN7daisysp5AdEnv7ProcessEv
 302              	.LVL11:
  42:keys.cpp      ****     // vibrato      = lfo.Process();
 303              		.loc 10 42 30 view .LVU63
 304 001e B0EE408A 		vmov.f32	s16, s0
 305              	.LVL12:
 306              		.loc 10 46 5 is_stmt 1 view .LVU64
 307              		.loc 10 46 17 is_stmt 0 view .LVU65
 308 0022 96ED000A 		vldr.32	s0, [r6]
ARM GAS  /var/folders/7c/668hyr3s7rlgsbdftclf3hsr0000gn/T//ccVahvvy.s 			page 17


 309              	.LVL13:
 310              	.LBB265:
 311              	.LBI257:
  67:../DaisyExamples/DaisySP/Source/Synthesis/oscillator.h ****     {
 312              		.loc 2 67 17 is_stmt 1 view .LVU66
 313              	.LBB259:
 314              		.loc 2 69 9 view .LVU67
  70:../DaisyExamples/DaisySP/Source/Synthesis/oscillator.h ****         phase_inc_ = CalcPhaseInc(f);
 315              		.loc 2 70 34 is_stmt 0 view .LVU68
 316 0026 4046     		mov	r0, r8
  69:../DaisyExamples/DaisySP/Source/Synthesis/oscillator.h ****         phase_inc_ = CalcPhaseInc(f);
 317              		.loc 2 69 20 view .LVU69
 318 0028 88ED020A 		vstr.32	s0, [r8, #8]
 319              		.loc 2 70 9 is_stmt 1 view .LVU70
 320              		.loc 2 70 34 is_stmt 0 view .LVU71
 321 002c FFF7FEFF 		bl	_ZN7daisysp10Oscillator12CalcPhaseIncEf
 322              	.LVL14:
 323              		.loc 2 70 20 view .LVU72
 324 0030 88ED070A 		vstr.32	s0, [r8, #28]
 325              	.LVL15:
 326              		.loc 2 70 20 view .LVU73
 327              	.LBE259:
 328              	.LBE265:
  47:keys.cpp      ****     osc2.SetFreq(oscFreq);
 329              		.loc 10 47 5 is_stmt 1 view .LVU74
 330              	.LBB266:
 331              	.LBB262:
 332              		.loc 2 70 34 is_stmt 0 view .LVU75
 333 0034 3846     		mov	r0, r7
 334              	.LBE262:
 335              	.LBE266:
 336              		.loc 10 47 17 view .LVU76
 337 0036 96ED000A 		vldr.32	s0, [r6]
 338              	.LVL16:
 339              	.LBB267:
 340              	.LBI260:
  67:../DaisyExamples/DaisySP/Source/Synthesis/oscillator.h ****     {
 341              		.loc 2 67 17 is_stmt 1 view .LVU77
 342              	.LBB263:
  69:../DaisyExamples/DaisySP/Source/Synthesis/oscillator.h ****         phase_inc_ = CalcPhaseInc(f);
 343              		.loc 2 69 9 view .LVU78
  69:../DaisyExamples/DaisySP/Source/Synthesis/oscillator.h ****         phase_inc_ = CalcPhaseInc(f);
 344              		.loc 2 69 20 is_stmt 0 view .LVU79
 345 003a 87ED020A 		vstr.32	s0, [r7, #8]
 346              		.loc 2 70 9 is_stmt 1 view .LVU80
 347              		.loc 2 70 34 is_stmt 0 view .LVU81
 348 003e FFF7FEFF 		bl	_ZN7daisysp10Oscillator12CalcPhaseIncEf
 349              	.LVL17:
 350              		.loc 2 70 34 view .LVU82
 351              	.LBE263:
 352              	.LBE267:
  48:keys.cpp      ****     osc3.SetFreq(oscFreq);
 353              		.loc 10 48 17 view .LVU83
 354 0042 D6ED007A 		vldr.32	s15, [r6]
 355              	.LBB268:
 356              	.LBB269:
  69:../DaisyExamples/DaisySP/Source/Synthesis/oscillator.h ****         phase_inc_ = CalcPhaseInc(f);
ARM GAS  /var/folders/7c/668hyr3s7rlgsbdftclf3hsr0000gn/T//ccVahvvy.s 			page 18


 357              		.loc 2 69 20 view .LVU84
 358 0046 1F4E     		ldr	r6, .L13+12
 359              	.LBE269:
 360              	.LBE268:
 361              	.LBB272:
 362              	.LBB264:
 363              		.loc 2 70 20 view .LVU85
 364 0048 87ED070A 		vstr.32	s0, [r7, #28]
 365              	.LVL18:
 366              		.loc 2 70 20 view .LVU86
 367              	.LBE264:
 368              	.LBE272:
 369              		.loc 10 48 5 is_stmt 1 view .LVU87
 370              	.LBB273:
 371              	.LBI268:
  67:../DaisyExamples/DaisySP/Source/Synthesis/oscillator.h ****     {
 372              		.loc 2 67 17 view .LVU88
 373              	.LBB270:
  69:../DaisyExamples/DaisySP/Source/Synthesis/oscillator.h ****         phase_inc_ = CalcPhaseInc(f);
 374              		.loc 2 69 9 view .LVU89
 375              		.loc 2 70 34 is_stmt 0 view .LVU90
 376 004c B0EE670A 		vmov.f32	s0, s15
 377 0050 3046     		mov	r0, r6
  69:../DaisyExamples/DaisySP/Source/Synthesis/oscillator.h ****         phase_inc_ = CalcPhaseInc(f);
 378              		.loc 2 69 20 view .LVU91
 379 0052 C6ED027A 		vstr.32	s15, [r6, #8]
 380              		.loc 2 70 9 is_stmt 1 view .LVU92
 381              		.loc 2 70 34 is_stmt 0 view .LVU93
 382 0056 FFF7FEFF 		bl	_ZN7daisysp10Oscillator12CalcPhaseIncEf
 383              	.LVL19:
 384              		.loc 2 70 34 view .LVU94
 385              	.LBE270:
 386              	.LBE273:
  49:keys.cpp      **** 
  50:keys.cpp      ****     sig1 = osc1.Process();
 387              		.loc 10 50 24 view .LVU95
 388 005a 4046     		mov	r0, r8
 389              	.LBB274:
 390              	.LBB271:
 391              		.loc 2 70 20 view .LVU96
 392 005c 86ED070A 		vstr.32	s0, [r6, #28]
 393              	.LVL20:
 394              		.loc 2 70 20 view .LVU97
 395              	.LBE271:
 396              	.LBE274:
 397              		.loc 10 50 5 is_stmt 1 view .LVU98
 398              		.loc 10 50 24 is_stmt 0 view .LVU99
 399 0060 FFF7FEFF 		bl	_ZN7daisysp10Oscillator7ProcessEv
 400              	.LVL21:
  51:keys.cpp      ****     sig2 = osc2.Process();
 401              		.loc 10 51 24 view .LVU100
 402 0064 3846     		mov	r0, r7
  50:keys.cpp      ****     sig2 = osc2.Process();
 403              		.loc 10 50 10 view .LVU101
 404 0066 84ED000A 		vstr.32	s0, [r4]
 405              		.loc 10 51 5 is_stmt 1 view .LVU102
 406              		.loc 10 51 24 is_stmt 0 view .LVU103
ARM GAS  /var/folders/7c/668hyr3s7rlgsbdftclf3hsr0000gn/T//ccVahvvy.s 			page 19


 407 006a FFF7FEFF 		bl	_ZN7daisysp10Oscillator7ProcessEv
 408              	.LVL22:
  52:keys.cpp      ****     sig3 = osc3.Process();
 409              		.loc 10 52 24 view .LVU104
 410 006e 3046     		mov	r0, r6
  51:keys.cpp      ****     sig2 = osc2.Process();
 411              		.loc 10 51 10 view .LVU105
 412 0070 85ED000A 		vstr.32	s0, [r5]
 413              		.loc 10 52 5 is_stmt 1 view .LVU106
 414              		.loc 10 52 24 is_stmt 0 view .LVU107
 415 0074 FFF7FEFF 		bl	_ZN7daisysp10Oscillator7ProcessEv
 416              	.LVL23:
  53:keys.cpp      **** 
  54:keys.cpp      ****     // sig = flt.Process(sig);
  55:keys.cpp      ****     sig = (sig1 * pot_val_1) + (sig2 * pot_val_2) + (sig3 * pot_val_3);
 417              		.loc 10 55 38 view .LVU108
 418 0078 0B9B     		ldr	r3, [sp, #44]
  52:keys.cpp      ****     sig3 = osc3.Process();
 419              		.loc 10 52 10 view .LVU109
 420 007a 8AED000A 		vstr.32	s0, [r10]
 421              		.loc 10 55 5 is_stmt 1 view .LVU110
  52:keys.cpp      ****     sig3 = osc3.Process();
 422              		.loc 10 52 24 is_stmt 0 view .LVU111
 423 007e B0EE407A 		vmov.f32	s14, s0
 424              		.loc 10 55 38 view .LVU112
 425 0082 D5ED007A 		vldr.32	s15, [r5]
 426 0086 93ED000A 		vldr.32	s0, [r3]
 427              		.loc 10 55 30 view .LVU113
 428 008a 0A9B     		ldr	r3, [sp, #40]
 429              		.loc 10 55 38 view .LVU114
 430 008c 67EE807A 		vmul.f32	s15, s15, s0
 431              		.loc 10 55 30 view .LVU115
 432 0090 D4ED005A 		vldr.32	s11, [r4]
 433 0094 93ED006A 		vldr.32	s12, [r3]
 434              		.loc 10 55 51 view .LVU116
 435 0098 0C9B     		ldr	r3, [sp, #48]
 436              		.loc 10 55 30 view .LVU117
 437 009a E5EE867A 		vfma.f32	s15, s11, s12
 438              		.loc 10 55 51 view .LVU118
 439 009e D3ED006A 		vldr.32	s13, [r3]
 440 00a2 E7EE267A 		vfma.f32	s15, s14, s13
  56:keys.cpp      ****     sig *= ad_out;
 441              		.loc 10 56 5 is_stmt 1 view .LVU119
 442              		.loc 10 56 9 is_stmt 0 view .LVU120
 443 00a6 27EE880A 		vmul.f32	s0, s15, s16
  57:keys.cpp      **** }
 444              		.loc 10 57 1 view .LVU121
 445 00aa BDEC028B 		vldm	sp!, {d8}
 446              		.cfi_restore 80
 447              		.cfi_restore 81
 448              		.cfi_def_cfa_offset 32
 449              	.LVL24:
  56:keys.cpp      ****     sig *= ad_out;
 450              		.loc 10 56 9 view .LVU122
 451 00ae 89ED000A 		vstr.32	s0, [r9]
 452              		.loc 10 57 1 view .LVU123
 453 00b2 BDE8F087 		pop	{r4, r5, r6, r7, r8, r9, r10, pc}
ARM GAS  /var/folders/7c/668hyr3s7rlgsbdftclf3hsr0000gn/T//ccVahvvy.s 			page 20


 454              	.LVL25:
 455              	.L14:
 456              		.loc 10 57 1 view .LVU124
 457 00b6 00BF     		.align	2
 458              	.L13:
 459 00b8 00000000 		.word	.LANCHOR1
 460 00bc 00000000 		.word	.LANCHOR0
 461 00c0 00000000 		.word	.LANCHOR3
 462 00c4 00000000 		.word	.LANCHOR4
 463 00c8 00000000 		.word	.LANCHOR2
 464              		.cfi_endproc
 465              	.LFE4682:
 467              		.section	.text.startup.main,"ax",%progbits
 468              		.align	1
 469              		.p2align 2,,3
 470              		.global	main
 471              		.syntax unified
 472              		.thumb
 473              		.thumb_func
 475              	main:
 476              	.LFB4684:
  58:keys.cpp      **** 
  59:keys.cpp      **** static void AudioCallback(AudioHandle::InterleavingInputBuffer  in,
  60:keys.cpp      ****                           AudioHandle::InterleavingOutputBuffer out,
  61:keys.cpp      ****                           size_t                                size)
  62:keys.cpp      **** {
  63:keys.cpp      ****     Controls();
  64:keys.cpp      **** 
  65:keys.cpp      ****     float pot_val_1 = pot1.Process(); //pot 1 val
  66:keys.cpp      ****     float pot_val_2 = pot2.Process(); //pot 2 val
  67:keys.cpp      ****     float pot_val_3 = pot3.Process(); //pot 3 val
  68:keys.cpp      **** 
  69:keys.cpp      **** 
  70:keys.cpp      ****     for(size_t i = 0; i < size; i += 2)
  71:keys.cpp      ****     {
  72:keys.cpp      ****         float sig;
  73:keys.cpp      ****         float sig1;
  74:keys.cpp      ****         float sig2;
  75:keys.cpp      ****         float sig3;
  76:keys.cpp      ****         NextSamples(sig, sig1, sig2, sig3, pot_val_1, pot_val_2, pot_val_3);
  77:keys.cpp      **** 
  78:keys.cpp      ****         // left out
  79:keys.cpp      ****         out[i] = sig;
  80:keys.cpp      **** 
  81:keys.cpp      ****         // right out
  82:keys.cpp      ****         out[i + 1] = sig;
  83:keys.cpp      ****     }
  84:keys.cpp      **** }
  85:keys.cpp      **** 
  86:keys.cpp      **** int main(void){
 477              		.loc 10 86 15 is_stmt 1 view -0
 478              		.cfi_startproc
 479              		@ args = 0, pretend = 0, frame = 72
 480              		@ frame_needed = 0, uses_anonymous_args = 0
  87:keys.cpp      ****     // global variables
  88:keys.cpp      ****     float sample_rate;
 481              		.loc 10 88 5 view .LVU126
ARM GAS  /var/folders/7c/668hyr3s7rlgsbdftclf3hsr0000gn/T//ccVahvvy.s 			page 21


  89:keys.cpp      ****     oscFreq = 1000.0f;
 482              		.loc 10 89 5 view .LVU127
  86:keys.cpp      ****     // global variables
 483              		.loc 10 86 15 is_stmt 0 view .LVU128
 484 0000 2DE9F041 		push	{r4, r5, r6, r7, r8, lr}
 485              		.cfi_def_cfa_offset 24
 486              		.cfi_offset 4, -24
 487              		.cfi_offset 5, -20
 488              		.cfi_offset 6, -16
 489              		.cfi_offset 7, -12
 490              		.cfi_offset 8, -8
 491              		.cfi_offset 14, -4
  90:keys.cpp      ****     octave = 1.0f;
 492              		.loc 10 90 12 view .LVU129
 493 0004 B04B     		ldr	r3, .L18
 494 0006 4FF07E58 		mov	r8, #1065353216
  89:keys.cpp      ****     oscFreq = 1000.0f;
 495              		.loc 10 89 13 view .LVU130
 496 000a B04A     		ldr	r2, .L18+4
  91:keys.cpp      **** 
  92:keys.cpp      ****     //Init everything
  93:keys.cpp      ****     hw.Configure();
 497              		.loc 10 93 17 view .LVU131
 498 000c B048     		ldr	r0, .L18+8
  94:keys.cpp      ****     hw.Init();
  95:keys.cpp      ****     hw.SetAudioBlockSize(4);
  96:keys.cpp      **** 
  97:keys.cpp      ****     //pot1
  98:keys.cpp      ****     adcConfig[0].InitSingle(hw.GetPin(28));
  99:keys.cpp      ****     //pot2
 100:keys.cpp      ****     adcConfig[1].InitSingle(hw.GetPin(27));
 101:keys.cpp      ****     //pot3
 102:keys.cpp      ****     adcConfig[2].InitSingle(hw.GetPin(26));
 103:keys.cpp      **** 
 104:keys.cpp      ****     //init pots
 105:keys.cpp      ****     hw.adc.Init(adcConfig, 3);
 106:keys.cpp      **** 
 107:keys.cpp      **** 
 108:keys.cpp      ****     sample_rate = hw.AudioSampleRate();
 109:keys.cpp      ****     osc1.Init(sample_rate);
 499              		.loc 10 109 14 view .LVU132
 500 000e B14F     		ldr	r7, .L18+12
 110:keys.cpp      ****     osc2.Init(sample_rate);
 501              		.loc 10 110 14 view .LVU133
 502 0010 B14E     		ldr	r6, .L18+16
 111:keys.cpp      ****     osc3.Init(sample_rate);
 503              		.loc 10 111 14 view .LVU134
 504 0012 B24D     		ldr	r5, .L18+20
 112:keys.cpp      ****     ad.Init(sample_rate);
 505              		.loc 10 112 12 view .LVU135
 506 0014 B24C     		ldr	r4, .L18+24
  86:keys.cpp      ****     // global variables
 507              		.loc 10 86 15 view .LVU136
 508 0016 2DED048B 		vpush.64	{d8, d9}
 509              		.cfi_def_cfa_offset 40
 510              		.cfi_offset 80, -40
 511              		.cfi_offset 81, -36
ARM GAS  /var/folders/7c/668hyr3s7rlgsbdftclf3hsr0000gn/T//ccVahvvy.s 			page 22


 512              		.cfi_offset 82, -32
 513              		.cfi_offset 83, -28
  89:keys.cpp      ****     octave = 1.0f;
 514              		.loc 10 89 13 view .LVU137
 515 001a 9FEDB28A 		vldr.32	s16, .L18+28
  86:keys.cpp      ****     // global variables
 516              		.loc 10 86 15 view .LVU138
 517 001e 92B0     		sub	sp, sp, #72
 518              		.cfi_def_cfa_offset 112
  90:keys.cpp      **** 
 519              		.loc 10 90 12 view .LVU139
 520 0020 C3F80080 		str	r8, [r3]	@ float
  89:keys.cpp      ****     octave = 1.0f;
 521              		.loc 10 89 13 view .LVU140
 522 0024 82ED008A 		vstr.32	s16, [r2]
  90:keys.cpp      **** 
 523              		.loc 10 90 5 is_stmt 1 view .LVU141
  93:keys.cpp      ****     hw.Init();
 524              		.loc 10 93 5 view .LVU142
  93:keys.cpp      ****     hw.Init();
 525              		.loc 10 93 17 is_stmt 0 view .LVU143
 526 0028 FFF7FEFF 		bl	_ZN5daisy9DaisySeed9ConfigureEv
 527              	.LVL26:
  94:keys.cpp      ****     hw.SetAudioBlockSize(4);
 528              		.loc 10 94 5 is_stmt 1 view .LVU144
  94:keys.cpp      ****     hw.SetAudioBlockSize(4);
 529              		.loc 10 94 12 is_stmt 0 view .LVU145
 530 002c 0021     		movs	r1, #0
 531 002e A848     		ldr	r0, .L18+8
 532 0030 FFF7FEFF 		bl	_ZN5daisy9DaisySeed4InitEb
 533              	.LVL27:
  95:keys.cpp      **** 
 534              		.loc 10 95 5 is_stmt 1 view .LVU146
  95:keys.cpp      **** 
 535              		.loc 10 95 25 is_stmt 0 view .LVU147
 536 0034 0421     		movs	r1, #4
 537 0036 A648     		ldr	r0, .L18+8
 538 0038 FFF7FEFF 		bl	_ZN5daisy9DaisySeed17SetAudioBlockSizeEj
 539              	.LVL28:
  98:keys.cpp      ****     //pot2
 540              		.loc 10 98 5 is_stmt 1 view .LVU148
  98:keys.cpp      ****     //pot2
 541              		.loc 10 98 28 is_stmt 0 view .LVU149
 542 003c 1C20     		movs	r0, #28
 543 003e FFF7FEFF 		bl	_ZN5daisy9DaisySeed6GetPinEh
 544              	.LVL29:
 545 0042 ADF80000 		strh	r0, [sp]	@ movhi
 546 0046 0222     		movs	r2, #2
 547 0048 0099     		ldr	r1, [sp]
 548 004a A748     		ldr	r0, .L18+32
 549 004c FFF7FEFF 		bl	_ZN5daisy16AdcChannelConfig10InitSingleE12dsy_gpio_pinNS0_15ConversionSpeedE
 550              	.LVL30:
 100:keys.cpp      ****     //pot3
 551              		.loc 10 100 5 is_stmt 1 view .LVU150
 100:keys.cpp      ****     //pot3
 552              		.loc 10 100 28 is_stmt 0 view .LVU151
 553 0050 1B20     		movs	r0, #27
ARM GAS  /var/folders/7c/668hyr3s7rlgsbdftclf3hsr0000gn/T//ccVahvvy.s 			page 23


 554 0052 FFF7FEFF 		bl	_ZN5daisy9DaisySeed6GetPinEh
 555              	.LVL31:
 556 0056 ADF80400 		strh	r0, [sp, #4]	@ movhi
 557 005a 0222     		movs	r2, #2
 558 005c 0199     		ldr	r1, [sp, #4]
 559 005e A348     		ldr	r0, .L18+36
 560 0060 FFF7FEFF 		bl	_ZN5daisy16AdcChannelConfig10InitSingleE12dsy_gpio_pinNS0_15ConversionSpeedE
 561              	.LVL32:
 102:keys.cpp      **** 
 562              		.loc 10 102 5 is_stmt 1 view .LVU152
 102:keys.cpp      **** 
 563              		.loc 10 102 28 is_stmt 0 view .LVU153
 564 0064 1A20     		movs	r0, #26
 565 0066 FFF7FEFF 		bl	_ZN5daisy9DaisySeed6GetPinEh
 566              	.LVL33:
 567 006a ADF80800 		strh	r0, [sp, #8]	@ movhi
 568 006e 0222     		movs	r2, #2
 569 0070 0299     		ldr	r1, [sp, #8]
 570 0072 9F48     		ldr	r0, .L18+40
 571 0074 FFF7FEFF 		bl	_ZN5daisy16AdcChannelConfig10InitSingleE12dsy_gpio_pinNS0_15ConversionSpeedE
 572              	.LVL34:
 105:keys.cpp      **** 
 573              		.loc 10 105 5 is_stmt 1 view .LVU154
 105:keys.cpp      **** 
 574              		.loc 10 105 16 is_stmt 0 view .LVU155
 575 0078 0423     		movs	r3, #4
 576 007a 0322     		movs	r2, #3
 577 007c 9A49     		ldr	r1, .L18+32
 578 007e 9D48     		ldr	r0, .L18+44
 579 0080 FFF7FEFF 		bl	_ZN5daisy9AdcHandle4InitEPNS_16AdcChannelConfigEjNS0_12OverSamplingE
 580              	.LVL35:
 108:keys.cpp      ****     osc1.Init(sample_rate);
 581              		.loc 10 108 5 is_stmt 1 view .LVU156
 108:keys.cpp      ****     osc1.Init(sample_rate);
 582              		.loc 10 108 37 is_stmt 0 view .LVU157
 583 0084 9248     		ldr	r0, .L18+8
 584 0086 FFF7FEFF 		bl	_ZN5daisy9DaisySeed15AudioSampleRateEv
 585              	.LVL36:
 586 008a B0EE409A 		vmov.f32	s18, s0
 587              	.LVL37:
 109:keys.cpp      ****     osc2.Init(sample_rate);
 588              		.loc 10 109 5 is_stmt 1 view .LVU158
 109:keys.cpp      ****     osc2.Init(sample_rate);
 589              		.loc 10 109 14 is_stmt 0 view .LVU159
 590 008e 3846     		mov	r0, r7
 591              	.LBB275:
 592              	.LBB276:
  69:../DaisyExamples/DaisySP/Source/Synthesis/oscillator.h ****         phase_inc_ = CalcPhaseInc(f);
 593              		.loc 2 69 20 view .LVU160
 594 0090 DFED998A 		vldr.32	s17, .L18+48
 595              	.LBE276:
 596              	.LBE275:
 109:keys.cpp      ****     osc2.Init(sample_rate);
 597              		.loc 10 109 14 view .LVU161
 598 0094 FFF7FEFF 		bl	_ZN7daisysp10Oscillator4InitEf
 599              	.LVL38:
 110:keys.cpp      ****     osc3.Init(sample_rate);
ARM GAS  /var/folders/7c/668hyr3s7rlgsbdftclf3hsr0000gn/T//ccVahvvy.s 			page 24


 600              		.loc 10 110 5 is_stmt 1 view .LVU162
 110:keys.cpp      ****     osc3.Init(sample_rate);
 601              		.loc 10 110 14 is_stmt 0 view .LVU163
 602 0098 3046     		mov	r0, r6
 603 009a B0EE490A 		vmov.f32	s0, s18
 604 009e FFF7FEFF 		bl	_ZN7daisysp10Oscillator4InitEf
 605              	.LVL39:
 111:keys.cpp      ****     ad.Init(sample_rate);
 606              		.loc 10 111 5 is_stmt 1 view .LVU164
 111:keys.cpp      ****     ad.Init(sample_rate);
 607              		.loc 10 111 14 is_stmt 0 view .LVU165
 608 00a2 B0EE490A 		vmov.f32	s0, s18
 609 00a6 2846     		mov	r0, r5
 610 00a8 FFF7FEFF 		bl	_ZN7daisysp10Oscillator4InitEf
 611              	.LVL40:
 612              		.loc 10 112 5 is_stmt 1 view .LVU166
 613              		.loc 10 112 12 is_stmt 0 view .LVU167
 614 00ac B0EE490A 		vmov.f32	s0, s18
 615 00b0 2046     		mov	r0, r4
 616 00b2 FFF7FEFF 		bl	_ZN7daisysp5AdEnv4InitEf
 617              	.LVL41:
 113:keys.cpp      **** 
 114:keys.cpp      ****     C2.Init(hw.GetPin(13), 1000);
 618              		.loc 10 114 5 is_stmt 1 view .LVU168
 619              		.loc 10 114 12 is_stmt 0 view .LVU169
 620 00b6 0D20     		movs	r0, #13
 621 00b8 FFF7FEFF 		bl	_ZN5daisy9DaisySeed6GetPinEh
 622              	.LVL42:
 623 00bc ADF80C00 		strh	r0, [sp, #12]	@ movhi
 624 00c0 B0EE480A 		vmov.f32	s0, s16
 625 00c4 0399     		ldr	r1, [sp, #12]
 626 00c6 8D48     		ldr	r0, .L18+52
 627 00c8 FFF7FEFF 		bl	_ZN5daisy6Switch4InitE12dsy_gpio_pinf
 628              	.LVL43:
 115:keys.cpp      ****     B.Init(hw.GetPin(12), 1000);
 629              		.loc 10 115 5 is_stmt 1 view .LVU170
 630              		.loc 10 115 11 is_stmt 0 view .LVU171
 631 00cc 0C20     		movs	r0, #12
 632 00ce FFF7FEFF 		bl	_ZN5daisy9DaisySeed6GetPinEh
 633              	.LVL44:
 634 00d2 ADF81000 		strh	r0, [sp, #16]	@ movhi
 635 00d6 B0EE480A 		vmov.f32	s0, s16
 636 00da 0499     		ldr	r1, [sp, #16]
 637 00dc 8848     		ldr	r0, .L18+56
 638 00de FFF7FEFF 		bl	_ZN5daisy6Switch4InitE12dsy_gpio_pinf
 639              	.LVL45:
 116:keys.cpp      ****     AS.Init(hw.GetPin(11), 1000);
 640              		.loc 10 116 5 is_stmt 1 view .LVU172
 641              		.loc 10 116 12 is_stmt 0 view .LVU173
 642 00e2 0B20     		movs	r0, #11
 643 00e4 FFF7FEFF 		bl	_ZN5daisy9DaisySeed6GetPinEh
 644              	.LVL46:
 645 00e8 ADF81400 		strh	r0, [sp, #20]	@ movhi
 646 00ec B0EE480A 		vmov.f32	s0, s16
 647 00f0 0599     		ldr	r1, [sp, #20]
 648 00f2 8448     		ldr	r0, .L18+60
 649 00f4 FFF7FEFF 		bl	_ZN5daisy6Switch4InitE12dsy_gpio_pinf
ARM GAS  /var/folders/7c/668hyr3s7rlgsbdftclf3hsr0000gn/T//ccVahvvy.s 			page 25


 650              	.LVL47:
 117:keys.cpp      ****     A.Init(hw.GetPin(10), 1000);
 651              		.loc 10 117 5 is_stmt 1 view .LVU174
 652              		.loc 10 117 11 is_stmt 0 view .LVU175
 653 00f8 0A20     		movs	r0, #10
 654 00fa FFF7FEFF 		bl	_ZN5daisy9DaisySeed6GetPinEh
 655              	.LVL48:
 656 00fe ADF81800 		strh	r0, [sp, #24]	@ movhi
 657 0102 B0EE480A 		vmov.f32	s0, s16
 658 0106 0699     		ldr	r1, [sp, #24]
 659 0108 7F48     		ldr	r0, .L18+64
 660 010a FFF7FEFF 		bl	_ZN5daisy6Switch4InitE12dsy_gpio_pinf
 661              	.LVL49:
 118:keys.cpp      ****     GS.Init(hw.GetPin(9), 1000);
 662              		.loc 10 118 5 is_stmt 1 view .LVU176
 663              		.loc 10 118 12 is_stmt 0 view .LVU177
 664 010e 0920     		movs	r0, #9
 665 0110 FFF7FEFF 		bl	_ZN5daisy9DaisySeed6GetPinEh
 666              	.LVL50:
 667 0114 ADF81C00 		strh	r0, [sp, #28]	@ movhi
 668 0118 B0EE480A 		vmov.f32	s0, s16
 669 011c 0799     		ldr	r1, [sp, #28]
 670 011e 7B48     		ldr	r0, .L18+68
 671 0120 FFF7FEFF 		bl	_ZN5daisy6Switch4InitE12dsy_gpio_pinf
 672              	.LVL51:
 119:keys.cpp      ****     G.Init(hw.GetPin(8), 1000);
 673              		.loc 10 119 5 is_stmt 1 view .LVU178
 674              		.loc 10 119 11 is_stmt 0 view .LVU179
 675 0124 0820     		movs	r0, #8
 676 0126 FFF7FEFF 		bl	_ZN5daisy9DaisySeed6GetPinEh
 677              	.LVL52:
 678 012a ADF82000 		strh	r0, [sp, #32]	@ movhi
 679 012e B0EE480A 		vmov.f32	s0, s16
 680 0132 0899     		ldr	r1, [sp, #32]
 681 0134 7648     		ldr	r0, .L18+72
 682 0136 FFF7FEFF 		bl	_ZN5daisy6Switch4InitE12dsy_gpio_pinf
 683              	.LVL53:
 120:keys.cpp      ****     FS.Init(hw.GetPin(7), 1000);
 684              		.loc 10 120 5 is_stmt 1 view .LVU180
 685              		.loc 10 120 12 is_stmt 0 view .LVU181
 686 013a 0720     		movs	r0, #7
 687 013c FFF7FEFF 		bl	_ZN5daisy9DaisySeed6GetPinEh
 688              	.LVL54:
 689 0140 ADF82400 		strh	r0, [sp, #36]	@ movhi
 690 0144 B0EE480A 		vmov.f32	s0, s16
 691 0148 0999     		ldr	r1, [sp, #36]
 692 014a 7248     		ldr	r0, .L18+76
 693 014c FFF7FEFF 		bl	_ZN5daisy6Switch4InitE12dsy_gpio_pinf
 694              	.LVL55:
 121:keys.cpp      ****     F.Init(hw.GetPin(6), 1000);
 695              		.loc 10 121 5 is_stmt 1 view .LVU182
 696              		.loc 10 121 11 is_stmt 0 view .LVU183
 697 0150 0620     		movs	r0, #6
 698 0152 FFF7FEFF 		bl	_ZN5daisy9DaisySeed6GetPinEh
 699              	.LVL56:
 700 0156 ADF82800 		strh	r0, [sp, #40]	@ movhi
 701 015a B0EE480A 		vmov.f32	s0, s16
ARM GAS  /var/folders/7c/668hyr3s7rlgsbdftclf3hsr0000gn/T//ccVahvvy.s 			page 26


 702 015e 0A99     		ldr	r1, [sp, #40]
 703 0160 6D48     		ldr	r0, .L18+80
 704 0162 FFF7FEFF 		bl	_ZN5daisy6Switch4InitE12dsy_gpio_pinf
 705              	.LVL57:
 122:keys.cpp      ****     E.Init(hw.GetPin(5), 1000);
 706              		.loc 10 122 5 is_stmt 1 view .LVU184
 707              		.loc 10 122 11 is_stmt 0 view .LVU185
 708 0166 0520     		movs	r0, #5
 709 0168 FFF7FEFF 		bl	_ZN5daisy9DaisySeed6GetPinEh
 710              	.LVL58:
 711 016c ADF82C00 		strh	r0, [sp, #44]	@ movhi
 712 0170 B0EE480A 		vmov.f32	s0, s16
 713 0174 0B99     		ldr	r1, [sp, #44]
 714 0176 6948     		ldr	r0, .L18+84
 715 0178 FFF7FEFF 		bl	_ZN5daisy6Switch4InitE12dsy_gpio_pinf
 716              	.LVL59:
 123:keys.cpp      ****     DS.Init(hw.GetPin(4), 1000);
 717              		.loc 10 123 5 is_stmt 1 view .LVU186
 718              		.loc 10 123 12 is_stmt 0 view .LVU187
 719 017c 0420     		movs	r0, #4
 720 017e FFF7FEFF 		bl	_ZN5daisy9DaisySeed6GetPinEh
 721              	.LVL60:
 722 0182 ADF83000 		strh	r0, [sp, #48]	@ movhi
 723 0186 B0EE480A 		vmov.f32	s0, s16
 724 018a 0C99     		ldr	r1, [sp, #48]
 725 018c 6448     		ldr	r0, .L18+88
 726 018e FFF7FEFF 		bl	_ZN5daisy6Switch4InitE12dsy_gpio_pinf
 727              	.LVL61:
 124:keys.cpp      ****     D.Init(hw.GetPin(3), 1000);
 728              		.loc 10 124 5 is_stmt 1 view .LVU188
 729              		.loc 10 124 11 is_stmt 0 view .LVU189
 730 0192 0320     		movs	r0, #3
 731 0194 FFF7FEFF 		bl	_ZN5daisy9DaisySeed6GetPinEh
 732              	.LVL62:
 733 0198 ADF83400 		strh	r0, [sp, #52]	@ movhi
 734 019c B0EE480A 		vmov.f32	s0, s16
 735 01a0 0D99     		ldr	r1, [sp, #52]
 736 01a2 6048     		ldr	r0, .L18+92
 737 01a4 FFF7FEFF 		bl	_ZN5daisy6Switch4InitE12dsy_gpio_pinf
 738              	.LVL63:
 125:keys.cpp      ****     CS.Init(hw.GetPin(2), 1000);
 739              		.loc 10 125 5 is_stmt 1 view .LVU190
 740              		.loc 10 125 12 is_stmt 0 view .LVU191
 741 01a8 0220     		movs	r0, #2
 742 01aa FFF7FEFF 		bl	_ZN5daisy9DaisySeed6GetPinEh
 743              	.LVL64:
 744 01ae ADF83800 		strh	r0, [sp, #56]	@ movhi
 745 01b2 B0EE480A 		vmov.f32	s0, s16
 746 01b6 0E99     		ldr	r1, [sp, #56]
 747 01b8 5B48     		ldr	r0, .L18+96
 748 01ba FFF7FEFF 		bl	_ZN5daisy6Switch4InitE12dsy_gpio_pinf
 749              	.LVL65:
 126:keys.cpp      ****     C.Init(hw.GetPin(1), 1000);
 750              		.loc 10 126 5 is_stmt 1 view .LVU192
 751              		.loc 10 126 11 is_stmt 0 view .LVU193
 752 01be 0120     		movs	r0, #1
 753 01c0 FFF7FEFF 		bl	_ZN5daisy9DaisySeed6GetPinEh
ARM GAS  /var/folders/7c/668hyr3s7rlgsbdftclf3hsr0000gn/T//ccVahvvy.s 			page 27


 754              	.LVL66:
 755 01c4 ADF83C00 		strh	r0, [sp, #60]	@ movhi
 756 01c8 B0EE480A 		vmov.f32	s0, s16
 757 01cc 0F99     		ldr	r1, [sp, #60]
 758 01ce 5748     		ldr	r0, .L18+100
 759 01d0 FFF7FEFF 		bl	_ZN5daisy6Switch4InitE12dsy_gpio_pinf
 760              	.LVL67:
 127:keys.cpp      **** 
 128:keys.cpp      ****     octave_up.Init(hw.GetPin(29), 1000);
 761              		.loc 10 128 5 is_stmt 1 view .LVU194
 762              		.loc 10 128 19 is_stmt 0 view .LVU195
 763 01d4 1D20     		movs	r0, #29
 764 01d6 FFF7FEFF 		bl	_ZN5daisy9DaisySeed6GetPinEh
 765              	.LVL68:
 766 01da ADF84000 		strh	r0, [sp, #64]	@ movhi
 767 01de B0EE480A 		vmov.f32	s0, s16
 768 01e2 1099     		ldr	r1, [sp, #64]
 769 01e4 5248     		ldr	r0, .L18+104
 770 01e6 FFF7FEFF 		bl	_ZN5daisy6Switch4InitE12dsy_gpio_pinf
 771              	.LVL69:
 129:keys.cpp      ****     octave_down.Init(hw.GetPin(30), 1000);
 772              		.loc 10 129 5 is_stmt 1 view .LVU196
 773              		.loc 10 129 21 is_stmt 0 view .LVU197
 774 01ea 1E20     		movs	r0, #30
 775 01ec FFF7FEFF 		bl	_ZN5daisy9DaisySeed6GetPinEh
 776              	.LVL70:
 777 01f0 ADF84400 		strh	r0, [sp, #68]	@ movhi
 778 01f4 B0EE480A 		vmov.f32	s0, s16
 779 01f8 1199     		ldr	r1, [sp, #68]
 780 01fa 4E48     		ldr	r0, .L18+108
 781 01fc FFF7FEFF 		bl	_ZN5daisy6Switch4InitE12dsy_gpio_pinf
 782              	.LVL71:
 130:keys.cpp      **** 
 131:keys.cpp      ****     pot1.Init(hw.adc.GetPtr(1), 1000);
 783              		.loc 10 131 5 is_stmt 1 view .LVU198
 784              		.loc 10 131 14 is_stmt 0 view .LVU199
 785 0200 0121     		movs	r1, #1
 786 0202 3C48     		ldr	r0, .L18+44
 787 0204 FFF7FEFF 		bl	_ZNK5daisy9AdcHandle6GetPtrEh
 788              	.LVL72:
 789 0208 0023     		movs	r3, #0
 790 020a B0EE480A 		vmov.f32	s0, s16
 791 020e 0146     		mov	r1, r0
 792 0210 1A46     		mov	r2, r3
 793 0212 DFED490A 		vldr.32	s1, .L18+112
 794 0216 4948     		ldr	r0, .L18+116
 795 0218 FFF7FEFF 		bl	_ZN5daisy13AnalogControl4InitEPtfbbf
 796              	.LVL73:
 132:keys.cpp      ****     pot2.Init(hw.adc.GetPtr(2), 1000);
 797              		.loc 10 132 5 is_stmt 1 view .LVU200
 798              		.loc 10 132 14 is_stmt 0 view .LVU201
 799 021c 0221     		movs	r1, #2
 800 021e 3548     		ldr	r0, .L18+44
 801 0220 FFF7FEFF 		bl	_ZNK5daisy9AdcHandle6GetPtrEh
 802              	.LVL74:
 803 0224 0023     		movs	r3, #0
 804 0226 B0EE480A 		vmov.f32	s0, s16
ARM GAS  /var/folders/7c/668hyr3s7rlgsbdftclf3hsr0000gn/T//ccVahvvy.s 			page 28


 805 022a 0146     		mov	r1, r0
 806 022c 1A46     		mov	r2, r3
 807 022e DFED420A 		vldr.32	s1, .L18+112
 808 0232 4348     		ldr	r0, .L18+120
 809 0234 FFF7FEFF 		bl	_ZN5daisy13AnalogControl4InitEPtfbbf
 810              	.LVL75:
 133:keys.cpp      ****     pot3.Init(hw.adc.GetPtr(3), 1000);
 811              		.loc 10 133 5 is_stmt 1 view .LVU202
 812              		.loc 10 133 14 is_stmt 0 view .LVU203
 813 0238 0321     		movs	r1, #3
 814 023a 2E48     		ldr	r0, .L18+44
 815 023c FFF7FEFF 		bl	_ZNK5daisy9AdcHandle6GetPtrEh
 816              	.LVL76:
 817 0240 0023     		movs	r3, #0
 818 0242 0146     		mov	r1, r0
 819 0244 DFED3C0A 		vldr.32	s1, .L18+112
 820 0248 1A46     		mov	r2, r3
 821 024a B0EE480A 		vmov.f32	s0, s16
 822 024e 3D48     		ldr	r0, .L18+124
 823 0250 FFF7FEFF 		bl	_ZN5daisy13AnalogControl4InitEPtfbbf
 824              	.LVL77:
 134:keys.cpp      **** 
 135:keys.cpp      **** 
 136:keys.cpp      ****     // Set parameters for oscillators
 137:keys.cpp      ****     osc1.SetWaveform(Oscillator::WAVE_SIN);
 825              		.loc 10 137 5 is_stmt 1 view .LVU204
 826              	.LBB280:
 827              	.LBI280:
  71:../DaisyExamples/DaisySP/Source/Synthesis/oscillator.h ****     }
  72:../DaisyExamples/DaisySP/Source/Synthesis/oscillator.h **** 
  73:../DaisyExamples/DaisySP/Source/Synthesis/oscillator.h **** 
  74:../DaisyExamples/DaisySP/Source/Synthesis/oscillator.h ****     /** Sets the amplitude of the waveform.
  75:../DaisyExamples/DaisySP/Source/Synthesis/oscillator.h ****     */
  76:../DaisyExamples/DaisySP/Source/Synthesis/oscillator.h ****     inline void SetAmp(const float a) { amp_ = a; }
  77:../DaisyExamples/DaisySP/Source/Synthesis/oscillator.h ****     /** Sets the waveform to be synthesized by the Process() function.
  78:../DaisyExamples/DaisySP/Source/Synthesis/oscillator.h ****     */
  79:../DaisyExamples/DaisySP/Source/Synthesis/oscillator.h ****     inline void SetWaveform(const uint8_t wf)
 828              		.loc 2 79 17 view .LVU205
 829              	.LBB281:
  80:../DaisyExamples/DaisySP/Source/Synthesis/oscillator.h ****     {
  81:../DaisyExamples/DaisySP/Source/Synthesis/oscillator.h ****         waveform_ = wf < WAVE_LAST ? wf : WAVE_SIN;
 830              		.loc 2 81 9 view .LVU206
 831              		.loc 2 81 19 is_stmt 0 view .LVU207
 832 0254 0023     		movs	r3, #0
 833              	.LBE281:
 834              	.LBE280:
 835              	.LBB283:
 836              	.LBB277:
  70:../DaisyExamples/DaisySP/Source/Synthesis/oscillator.h ****     }
 837              		.loc 2 70 34 view .LVU208
 838 0256 3846     		mov	r0, r7
 839 0258 B0EE680A 		vmov.f32	s0, s17
 840              	.LBE277:
 841              	.LBE283:
 842              	.LBB284:
 843              	.LBB282:
 844              		.loc 2 81 19 view .LVU209
ARM GAS  /var/folders/7c/668hyr3s7rlgsbdftclf3hsr0000gn/T//ccVahvvy.s 			page 29


 845 025c 3B70     		strb	r3, [r7]
 846              	.LVL78:
 847              		.loc 2 81 19 view .LVU210
 848              	.LBE282:
 849              	.LBE284:
 138:keys.cpp      ****     // wave = osc.WAVE_SAW;
 139:keys.cpp      ****     osc1.SetFreq(440);
 850              		.loc 10 139 5 is_stmt 1 view .LVU211
 851              	.LBB285:
 852              	.LBI275:
  67:../DaisyExamples/DaisySP/Source/Synthesis/oscillator.h ****     {
 853              		.loc 2 67 17 view .LVU212
 854              	.LBB278:
  69:../DaisyExamples/DaisySP/Source/Synthesis/oscillator.h ****         phase_inc_ = CalcPhaseInc(f);
 855              		.loc 2 69 9 view .LVU213
  70:../DaisyExamples/DaisySP/Source/Synthesis/oscillator.h ****     }
 856              		.loc 2 70 9 view .LVU214
  69:../DaisyExamples/DaisySP/Source/Synthesis/oscillator.h ****         phase_inc_ = CalcPhaseInc(f);
 857              		.loc 2 69 20 is_stmt 0 view .LVU215
 858 025e C7ED028A 		vstr.32	s17, [r7, #8]
  70:../DaisyExamples/DaisySP/Source/Synthesis/oscillator.h ****     }
 859              		.loc 2 70 34 view .LVU216
 860 0262 FFF7FEFF 		bl	_ZN7daisysp10Oscillator12CalcPhaseIncEf
 861              	.LVL79:
 862              	.LBE278:
 863              	.LBE285:
 864              	.LBB286:
 865              	.LBB287:
 866              		.loc 2 81 19 view .LVU217
 867 0266 0223     		movs	r3, #2
 868              	.LBE287:
 869              	.LBE286:
 870              	.LBB290:
 871              	.LBB291:
  70:../DaisyExamples/DaisySP/Source/Synthesis/oscillator.h ****     }
 872              		.loc 2 70 34 view .LVU218
 873 0268 3046     		mov	r0, r6
 874              	.LBE291:
 875              	.LBE290:
 876              	.LBB295:
 877              	.LBB279:
  70:../DaisyExamples/DaisySP/Source/Synthesis/oscillator.h ****     }
 878              		.loc 2 70 20 view .LVU219
 879 026a 87ED070A 		vstr.32	s0, [r7, #28]
 880              	.LVL80:
  70:../DaisyExamples/DaisySP/Source/Synthesis/oscillator.h ****     }
 881              		.loc 2 70 20 view .LVU220
 882              	.LBE279:
 883              	.LBE295:
 140:keys.cpp      ****     osc1.SetAmp(1);
 884              		.loc 10 140 5 is_stmt 1 view .LVU221
 885              	.LBB296:
 886              	.LBI296:
  76:../DaisyExamples/DaisySP/Source/Synthesis/oscillator.h ****     /** Sets the waveform to be synthesized by the Process() function.
 887              		.loc 2 76 17 view .LVU222
 888              	.LBB297:
  76:../DaisyExamples/DaisySP/Source/Synthesis/oscillator.h ****     /** Sets the waveform to be synthesized by the Process() function.
ARM GAS  /var/folders/7c/668hyr3s7rlgsbdftclf3hsr0000gn/T//ccVahvvy.s 			page 30


 889              		.loc 2 76 41 view .LVU223
 890              	.LBE297:
 891              	.LBE296:
 892              	.LBB299:
 893              	.LBB292:
  70:../DaisyExamples/DaisySP/Source/Synthesis/oscillator.h ****     }
 894              		.loc 2 70 34 is_stmt 0 view .LVU224
 895 026e B0EE680A 		vmov.f32	s0, s17
 896              	.LBE292:
 897              	.LBE299:
 898              	.LBB300:
 899              	.LBB288:
 900              		.loc 2 81 19 view .LVU225
 901 0272 3370     		strb	r3, [r6]
 902              	.LBE288:
 903              	.LBE300:
 904              	.LBB301:
 905              	.LBB298:
  76:../DaisyExamples/DaisySP/Source/Synthesis/oscillator.h ****     /** Sets the waveform to be synthesized by the Process() function.
 906              		.loc 2 76 46 view .LVU226
 907 0274 C7F80480 		str	r8, [r7, #4]	@ float
 908              	.LVL81:
  76:../DaisyExamples/DaisySP/Source/Synthesis/oscillator.h ****     /** Sets the waveform to be synthesized by the Process() function.
 909              		.loc 2 76 46 view .LVU227
 910              	.LBE298:
 911              	.LBE301:
 141:keys.cpp      **** 
 142:keys.cpp      ****     osc2.SetWaveform(Oscillator::WAVE_SAW);
 912              		.loc 10 142 5 is_stmt 1 view .LVU228
 913              	.LBB302:
 914              	.LBI286:
  79:../DaisyExamples/DaisySP/Source/Synthesis/oscillator.h ****     {
 915              		.loc 2 79 17 view .LVU229
 916              	.LBB289:
 917              		.loc 2 81 9 view .LVU230
 918              		.loc 2 81 9 is_stmt 0 view .LVU231
 919              	.LBE289:
 920              	.LBE302:
 143:keys.cpp      ****     // wave = osc.WAVE_SAW;
 144:keys.cpp      ****     osc2.SetFreq(440);
 921              		.loc 10 144 5 is_stmt 1 view .LVU232
 922              	.LBB303:
 923              	.LBI290:
  67:../DaisyExamples/DaisySP/Source/Synthesis/oscillator.h ****     {
 924              		.loc 2 67 17 view .LVU233
 925              	.LBB293:
  69:../DaisyExamples/DaisySP/Source/Synthesis/oscillator.h ****         phase_inc_ = CalcPhaseInc(f);
 926              		.loc 2 69 9 view .LVU234
  70:../DaisyExamples/DaisySP/Source/Synthesis/oscillator.h ****     }
 927              		.loc 2 70 9 view .LVU235
  69:../DaisyExamples/DaisySP/Source/Synthesis/oscillator.h ****         phase_inc_ = CalcPhaseInc(f);
 928              		.loc 2 69 20 is_stmt 0 view .LVU236
 929 0278 C6ED028A 		vstr.32	s17, [r6, #8]
  70:../DaisyExamples/DaisySP/Source/Synthesis/oscillator.h ****     }
 930              		.loc 2 70 34 view .LVU237
 931 027c FFF7FEFF 		bl	_ZN7daisysp10Oscillator12CalcPhaseIncEf
 932              	.LVL82:
ARM GAS  /var/folders/7c/668hyr3s7rlgsbdftclf3hsr0000gn/T//ccVahvvy.s 			page 31


 933 0280 F0EE407A 		vmov.f32	s15, s0
 934              	.LBE293:
 935              	.LBE303:
 936              	.LBB304:
 937              	.LBB305:
 938              		.loc 2 81 19 view .LVU238
 939 0284 0423     		movs	r3, #4
 940              	.LBE305:
 941              	.LBE304:
 942              	.LBB308:
 943              	.LBB309:
  70:../DaisyExamples/DaisySP/Source/Synthesis/oscillator.h ****     }
 944              		.loc 2 70 34 view .LVU239
 945 0286 2846     		mov	r0, r5
 946 0288 B0EE680A 		vmov.f32	s0, s17
 947              	.LBE309:
 948              	.LBE308:
 949              	.LBB312:
 950              	.LBB306:
 951              		.loc 2 81 19 view .LVU240
 952 028c 2B70     		strb	r3, [r5]
 953              	.LBE306:
 954              	.LBE312:
 955              	.LBB313:
 956              	.LBB314:
  76:../DaisyExamples/DaisySP/Source/Synthesis/oscillator.h ****     /** Sets the waveform to be synthesized by the Process() function.
 957              		.loc 2 76 46 view .LVU241
 958 028e C6F80480 		str	r8, [r6, #4]	@ float
 959              	.LBE314:
 960              	.LBE313:
 961              	.LBB316:
 962              	.LBB294:
  70:../DaisyExamples/DaisySP/Source/Synthesis/oscillator.h ****     }
 963              		.loc 2 70 20 view .LVU242
 964 0292 C6ED077A 		vstr.32	s15, [r6, #28]
 965              	.LVL83:
  70:../DaisyExamples/DaisySP/Source/Synthesis/oscillator.h ****     }
 966              		.loc 2 70 20 view .LVU243
 967              	.LBE294:
 968              	.LBE316:
 145:keys.cpp      ****     osc2.SetAmp(1);
 969              		.loc 10 145 5 is_stmt 1 view .LVU244
 970              	.LBB317:
 971              	.LBI313:
  76:../DaisyExamples/DaisySP/Source/Synthesis/oscillator.h ****     /** Sets the waveform to be synthesized by the Process() function.
 972              		.loc 2 76 17 view .LVU245
 973              	.LBB315:
  76:../DaisyExamples/DaisySP/Source/Synthesis/oscillator.h ****     /** Sets the waveform to be synthesized by the Process() function.
 974              		.loc 2 76 41 view .LVU246
  76:../DaisyExamples/DaisySP/Source/Synthesis/oscillator.h ****     /** Sets the waveform to be synthesized by the Process() function.
 975              		.loc 2 76 41 is_stmt 0 view .LVU247
 976              	.LBE315:
 977              	.LBE317:
 146:keys.cpp      **** 
 147:keys.cpp      ****     osc3.SetWaveform(Oscillator::WAVE_SQUARE);
 978              		.loc 10 147 5 is_stmt 1 view .LVU248
 979              	.LBB318:
ARM GAS  /var/folders/7c/668hyr3s7rlgsbdftclf3hsr0000gn/T//ccVahvvy.s 			page 32


 980              	.LBI304:
  79:../DaisyExamples/DaisySP/Source/Synthesis/oscillator.h ****     {
 981              		.loc 2 79 17 view .LVU249
 982              	.LBB307:
 983              		.loc 2 81 9 view .LVU250
 984              		.loc 2 81 9 is_stmt 0 view .LVU251
 985              	.LBE307:
 986              	.LBE318:
 148:keys.cpp      ****     // wave = osc.WAVE_SAW;
 149:keys.cpp      ****     osc3.SetFreq(440);
 987              		.loc 10 149 5 is_stmt 1 view .LVU252
 988              	.LBB319:
 989              	.LBI308:
  67:../DaisyExamples/DaisySP/Source/Synthesis/oscillator.h ****     {
 990              		.loc 2 67 17 view .LVU253
 991              	.LBB310:
  69:../DaisyExamples/DaisySP/Source/Synthesis/oscillator.h ****         phase_inc_ = CalcPhaseInc(f);
 992              		.loc 2 69 9 view .LVU254
  70:../DaisyExamples/DaisySP/Source/Synthesis/oscillator.h ****     }
 993              		.loc 2 70 9 view .LVU255
  69:../DaisyExamples/DaisySP/Source/Synthesis/oscillator.h ****         phase_inc_ = CalcPhaseInc(f);
 994              		.loc 2 69 20 is_stmt 0 view .LVU256
 995 0296 C5ED028A 		vstr.32	s17, [r5, #8]
  70:../DaisyExamples/DaisySP/Source/Synthesis/oscillator.h ****     }
 996              		.loc 2 70 34 view .LVU257
 997 029a FFF7FEFF 		bl	_ZN7daisysp10Oscillator12CalcPhaseIncEf
 998              	.LVL84:
 999              	.LBE310:
 1000              	.LBE319:
 1001              	.LBB320:
 1002              	.LBB321:
  44:../DaisyExamples/DaisySP/Source/Control/adenv.h ****     /** Initializes the ad envelope.
  45:../DaisyExamples/DaisySP/Source/Control/adenv.h **** 
  46:../DaisyExamples/DaisySP/Source/Control/adenv.h ****         Defaults:
  47:../DaisyExamples/DaisySP/Source/Control/adenv.h ****             - current segment = idle
  48:../DaisyExamples/DaisySP/Source/Control/adenv.h ****             - curve = linear
  49:../DaisyExamples/DaisySP/Source/Control/adenv.h ****             - phase = 0
  50:../DaisyExamples/DaisySP/Source/Control/adenv.h ****             - min = 0
  51:../DaisyExamples/DaisySP/Source/Control/adenv.h ****             - max = 1
  52:../DaisyExamples/DaisySP/Source/Control/adenv.h **** 
  53:../DaisyExamples/DaisySP/Source/Control/adenv.h ****         \param sample_rate      sample rate of the audio engine being run
  54:../DaisyExamples/DaisySP/Source/Control/adenv.h ****     */
  55:../DaisyExamples/DaisySP/Source/Control/adenv.h ****     void Init(float sample_rate);
  56:../DaisyExamples/DaisySP/Source/Control/adenv.h **** 
  57:../DaisyExamples/DaisySP/Source/Control/adenv.h ****     /** Processes the current sample of the envelope. This should be called once
  58:../DaisyExamples/DaisySP/Source/Control/adenv.h ****         per sample period.
  59:../DaisyExamples/DaisySP/Source/Control/adenv.h ****         \return the current envelope value.
  60:../DaisyExamples/DaisySP/Source/Control/adenv.h ****     */
  61:../DaisyExamples/DaisySP/Source/Control/adenv.h ****     float Process();
  62:../DaisyExamples/DaisySP/Source/Control/adenv.h **** 
  63:../DaisyExamples/DaisySP/Source/Control/adenv.h ****     /** Starts or retriggers the envelope.*/
  64:../DaisyExamples/DaisySP/Source/Control/adenv.h ****     inline void Trigger() { trigger_ = 1; }
  65:../DaisyExamples/DaisySP/Source/Control/adenv.h ****     /** Sets the length of time (in seconds) for a specific segment. */
  66:../DaisyExamples/DaisySP/Source/Control/adenv.h ****     inline void SetTime(uint8_t seg, float time) { segment_time_[seg] = time; }
  67:../DaisyExamples/DaisySP/Source/Control/adenv.h ****     /** Sets the amount of curve applied. A positve value will create a log
  68:../DaisyExamples/DaisySP/Source/Control/adenv.h ****         curve. Input range: -100 to 100.  (or more)
  69:../DaisyExamples/DaisySP/Source/Control/adenv.h ****     */
ARM GAS  /var/folders/7c/668hyr3s7rlgsbdftclf3hsr0000gn/T//ccVahvvy.s 			page 33


  70:../DaisyExamples/DaisySP/Source/Control/adenv.h ****     inline void SetCurve(float scalar) { curve_scalar_ = scalar; }
 1003              		.loc 1 70 56 view .LVU258
 1004 029e 4FF07C52 		mov	r2, #1056964608
 1005              	.LBE321:
 1006              	.LBE320:
 1007              	.LBB324:
 1008              	.LBB325:
  66:../DaisyExamples/DaisySP/Source/Control/adenv.h ****     /** Sets the amount of curve applied. A positve value will create a log
 1009              		.loc 1 66 71 view .LVU259
 1010 02a2 294B     		ldr	r3, .L18+128
 1011              	.LBE325:
 1012              	.LBE324:
 150:keys.cpp      ****     osc3.SetAmp(1);
 151:keys.cpp      **** 
 152:keys.cpp      ****     //Set envelope parameters
 153:keys.cpp      ****     ad.SetTime(ADENV_SEG_ATTACK, 0.01);
 154:keys.cpp      ****     ad.SetTime(ADENV_SEG_DECAY, .2);
 155:keys.cpp      ****     ad.SetMax(1);
 156:keys.cpp      ****     ad.SetMin(0);
 157:keys.cpp      ****     ad.SetCurve(0.5);
 158:keys.cpp      **** 
 159:keys.cpp      **** 
 160:keys.cpp      ****     // Start the adc
 161:keys.cpp      ****     // hw.adc.Start();
 162:keys.cpp      **** 
 163:keys.cpp      ****     //Start calling the audio callback
 164:keys.cpp      ****     hw.StartAudio(AudioCallback);
 1013              		.loc 10 164 18 view .LVU260
 1014 02a4 2949     		ldr	r1, .L18+132
 1015              	.LBB328:
 1016              	.LBB322:
 1017              		.loc 1 70 56 view .LVU261
 1018 02a6 2262     		str	r2, [r4, #32]	@ float
 1019              	.LBE322:
 1020              	.LBE328:
 1021              	.LBB329:
 1022              	.LBB326:
  66:../DaisyExamples/DaisySP/Source/Control/adenv.h ****     /** Sets the amount of curve applied. A positve value will create a log
 1023              		.loc 1 66 71 view .LVU262
 1024 02a8 A360     		str	r3, [r4, #8]	@ float
 1025              	.LBE326:
 1026              	.LBE329:
 1027              	.LBB330:
 1028              	.LBB331:
  71:../DaisyExamples/DaisySP/Source/Control/adenv.h ****     /** Sets the minimum value of the envelope output.
  72:../DaisyExamples/DaisySP/Source/Control/adenv.h ****         Input range: -FLTmax_, to FLTmax_
  73:../DaisyExamples/DaisySP/Source/Control/adenv.h ****     */
  74:../DaisyExamples/DaisySP/Source/Control/adenv.h ****     inline void SetMin(float min) { min_ = min; }
 1029              		.loc 1 74 42 view .LVU263
 1030 02aa 0023     		movs	r3, #0
 1031              	.LBE331:
 1032              	.LBE330:
 1033              	.LBB333:
 1034              	.LBB334:
  66:../DaisyExamples/DaisySP/Source/Control/adenv.h ****     /** Sets the amount of curve applied. A positve value will create a log
 1035              		.loc 1 66 71 view .LVU264
 1036 02ac 284A     		ldr	r2, .L18+136
ARM GAS  /var/folders/7c/668hyr3s7rlgsbdftclf3hsr0000gn/T//ccVahvvy.s 			page 34


 1037              	.LBE334:
 1038              	.LBE333:
 1039              		.loc 10 164 18 view .LVU265
 1040 02ae 0848     		ldr	r0, .L18+8
 1041              	.LBB337:
 1042              	.LBB311:
  70:../DaisyExamples/DaisySP/Source/Synthesis/oscillator.h ****     }
 1043              		.loc 2 70 20 view .LVU266
 1044 02b0 85ED070A 		vstr.32	s0, [r5, #28]
 1045              	.LVL85:
  70:../DaisyExamples/DaisySP/Source/Synthesis/oscillator.h ****     }
 1046              		.loc 2 70 20 view .LVU267
 1047              	.LBE311:
 1048              	.LBE337:
 150:keys.cpp      **** 
 1049              		.loc 10 150 5 is_stmt 1 view .LVU268
 1050              	.LBB338:
 1051              	.LBI338:
  76:../DaisyExamples/DaisySP/Source/Synthesis/oscillator.h ****     /** Sets the waveform to be synthesized by the Process() function.
 1052              		.loc 2 76 17 view .LVU269
 1053              	.LBB339:
  76:../DaisyExamples/DaisySP/Source/Synthesis/oscillator.h ****     /** Sets the waveform to be synthesized by the Process() function.
 1054              		.loc 2 76 41 view .LVU270
  76:../DaisyExamples/DaisySP/Source/Synthesis/oscillator.h ****     /** Sets the waveform to be synthesized by the Process() function.
 1055              		.loc 2 76 46 is_stmt 0 view .LVU271
 1056 02b4 C5F80480 		str	r8, [r5, #4]	@ float
 1057              	.LVL86:
  76:../DaisyExamples/DaisySP/Source/Synthesis/oscillator.h ****     /** Sets the waveform to be synthesized by the Process() function.
 1058              		.loc 2 76 46 view .LVU272
 1059              	.LBE339:
 1060              	.LBE338:
 153:keys.cpp      ****     ad.SetTime(ADENV_SEG_DECAY, .2);
 1061              		.loc 10 153 5 is_stmt 1 view .LVU273
 1062              	.LBB340:
 1063              	.LBI324:
  66:../DaisyExamples/DaisySP/Source/Control/adenv.h ****     /** Sets the amount of curve applied. A positve value will create a log
 1064              		.loc 1 66 17 view .LVU274
 1065              	.LBB327:
  66:../DaisyExamples/DaisySP/Source/Control/adenv.h ****     /** Sets the amount of curve applied. A positve value will create a log
 1066              		.loc 1 66 52 view .LVU275
  66:../DaisyExamples/DaisySP/Source/Control/adenv.h ****     /** Sets the amount of curve applied. A positve value will create a log
 1067              		.loc 1 66 52 is_stmt 0 view .LVU276
 1068              	.LBE327:
 1069              	.LBE340:
 154:keys.cpp      ****     ad.SetMax(1);
 1070              		.loc 10 154 5 is_stmt 1 view .LVU277
 1071              	.LBB341:
 1072              	.LBI333:
  66:../DaisyExamples/DaisySP/Source/Control/adenv.h ****     /** Sets the amount of curve applied. A positve value will create a log
 1073              		.loc 1 66 17 view .LVU278
 1074              	.LBB335:
  66:../DaisyExamples/DaisySP/Source/Control/adenv.h ****     /** Sets the amount of curve applied. A positve value will create a log
 1075              		.loc 1 66 52 view .LVU279
 1076              	.LBE335:
 1077              	.LBE341:
 1078              	.LBB342:
 1079              	.LBB343:
ARM GAS  /var/folders/7c/668hyr3s7rlgsbdftclf3hsr0000gn/T//ccVahvvy.s 			page 35


  75:../DaisyExamples/DaisySP/Source/Control/adenv.h ****     /** Sets the maximum value of the envelope output.
  76:../DaisyExamples/DaisySP/Source/Control/adenv.h ****         Input range: -FLTmax_, to FLTmax_
  77:../DaisyExamples/DaisySP/Source/Control/adenv.h ****     */
  78:../DaisyExamples/DaisySP/Source/Control/adenv.h ****     inline void SetMax(float max) { max_ = max; }
 1080              		.loc 1 78 42 is_stmt 0 view .LVU280
 1081 02b8 C4F81880 		str	r8, [r4, #24]	@ float
 1082              	.LBE343:
 1083              	.LBE342:
 1084              	.LBB345:
 1085              	.LBB336:
  66:../DaisyExamples/DaisySP/Source/Control/adenv.h ****     /** Sets the amount of curve applied. A positve value will create a log
 1086              		.loc 1 66 71 view .LVU281
 1087 02bc E260     		str	r2, [r4, #12]	@ float
 1088              	.LVL87:
  66:../DaisyExamples/DaisySP/Source/Control/adenv.h ****     /** Sets the amount of curve applied. A positve value will create a log
 1089              		.loc 1 66 71 view .LVU282
 1090              	.LBE336:
 1091              	.LBE345:
 155:keys.cpp      ****     ad.SetMin(0);
 1092              		.loc 10 155 5 is_stmt 1 view .LVU283
 1093              	.LBB346:
 1094              	.LBI342:
 1095              		.loc 1 78 17 view .LVU284
 1096              	.LBB344:
 1097              		.loc 1 78 37 view .LVU285
 1098              		.loc 1 78 37 is_stmt 0 view .LVU286
 1099              	.LBE344:
 1100              	.LBE346:
 156:keys.cpp      ****     ad.SetCurve(0.5);
 1101              		.loc 10 156 5 is_stmt 1 view .LVU287
 1102              	.LBB347:
 1103              	.LBI330:
  74:../DaisyExamples/DaisySP/Source/Control/adenv.h ****     /** Sets the maximum value of the envelope output.
 1104              		.loc 1 74 17 view .LVU288
 1105              	.LBB332:
  74:../DaisyExamples/DaisySP/Source/Control/adenv.h ****     /** Sets the maximum value of the envelope output.
 1106              		.loc 1 74 37 view .LVU289
  74:../DaisyExamples/DaisySP/Source/Control/adenv.h ****     /** Sets the maximum value of the envelope output.
 1107              		.loc 1 74 42 is_stmt 0 view .LVU290
 1108 02be 6361     		str	r3, [r4, #20]	@ float
 1109              	.LVL88:
  74:../DaisyExamples/DaisySP/Source/Control/adenv.h ****     /** Sets the maximum value of the envelope output.
 1110              		.loc 1 74 42 view .LVU291
 1111              	.LBE332:
 1112              	.LBE347:
 157:keys.cpp      **** 
 1113              		.loc 10 157 5 is_stmt 1 view .LVU292
 1114              	.LBB348:
 1115              	.LBI320:
  70:../DaisyExamples/DaisySP/Source/Control/adenv.h ****     /** Sets the minimum value of the envelope output.
 1116              		.loc 1 70 17 view .LVU293
 1117              	.LBB323:
  70:../DaisyExamples/DaisySP/Source/Control/adenv.h ****     /** Sets the minimum value of the envelope output.
 1118              		.loc 1 70 42 view .LVU294
  70:../DaisyExamples/DaisySP/Source/Control/adenv.h ****     /** Sets the minimum value of the envelope output.
 1119              		.loc 1 70 42 is_stmt 0 view .LVU295
 1120              	.LBE323:
ARM GAS  /var/folders/7c/668hyr3s7rlgsbdftclf3hsr0000gn/T//ccVahvvy.s 			page 36


 1121              	.LBE348:
 1122              		.loc 10 164 5 is_stmt 1 view .LVU296
 1123              		.loc 10 164 18 is_stmt 0 view .LVU297
 1124 02c0 FFF7FEFF 		bl	_ZN5daisy9DaisySeed10StartAudioEPFvPKfPfjE
 1125              	.LVL89:
 1126              	.L16:
 165:keys.cpp      **** 
 166:keys.cpp      **** 
 167:keys.cpp      ****     while(1) {}
 1127              		.loc 10 167 5 is_stmt 1 discriminator 1 view .LVU298
 1128              		.loc 10 167 5 discriminator 1 view .LVU299
 1129              		.loc 10 167 5 discriminator 1 view .LVU300
 1130              		.loc 10 167 5 discriminator 1 view .LVU301
 1131 02c4 FEE7     		b	.L16
 1132              	.L19:
 1133 02c6 00BF     		.align	2
 1134              	.L18:
 1135 02c8 00000000 		.word	.LANCHOR5
 1136 02cc 00000000 		.word	.LANCHOR1
 1137 02d0 00000000 		.word	.LANCHOR6
 1138 02d4 00000000 		.word	.LANCHOR2
 1139 02d8 00000000 		.word	.LANCHOR3
 1140 02dc 00000000 		.word	.LANCHOR4
 1141 02e0 00000000 		.word	.LANCHOR0
 1142 02e4 00007A44 		.word	1148846080
 1143 02e8 00000000 		.word	.LANCHOR7
 1144 02ec 12000000 		.word	.LANCHOR7+18
 1145 02f0 24000000 		.word	.LANCHOR7+36
 1146 02f4 18000000 		.word	.LANCHOR6+24
 1147 02f8 0000DC43 		.word	1138491392
 1148 02fc 00000000 		.word	.LANCHOR8
 1149 0300 00000000 		.word	.LANCHOR9
 1150 0304 00000000 		.word	.LANCHOR10
 1151 0308 00000000 		.word	.LANCHOR11
 1152 030c 00000000 		.word	.LANCHOR12
 1153 0310 00000000 		.word	.LANCHOR13
 1154 0314 00000000 		.word	.LANCHOR14
 1155 0318 00000000 		.word	.LANCHOR15
 1156 031c 00000000 		.word	.LANCHOR16
 1157 0320 00000000 		.word	.LANCHOR17
 1158 0324 00000000 		.word	.LANCHOR18
 1159 0328 00000000 		.word	.LANCHOR19
 1160 032c 00000000 		.word	.LANCHOR20
 1161 0330 00000000 		.word	.LANCHOR21
 1162 0334 00000000 		.word	.LANCHOR22
 1163 0338 6F12033B 		.word	990057071
 1164 033c 00000000 		.word	.LANCHOR23
 1165 0340 00000000 		.word	.LANCHOR24
 1166 0344 00000000 		.word	.LANCHOR25
 1167 0348 0AD7233C 		.word	1008981770
 1168 034c 00000000 		.word	_ZL13AudioCallbackPKfPfj
 1169 0350 CDCC4C3E 		.word	1045220557
 1170              		.cfi_endproc
 1171              	.LFE4684:
 1173              		.section	.text._Z13UpdateButtonsv,"ax",%progbits
 1174              		.align	1
 1175              		.p2align 2,,3
ARM GAS  /var/folders/7c/668hyr3s7rlgsbdftclf3hsr0000gn/T//ccVahvvy.s 			page 37


 1176              		.global	_Z13UpdateButtonsv
 1177              		.syntax unified
 1178              		.thumb
 1179              		.thumb_func
 1181              	_Z13UpdateButtonsv:
 1182              	.LFB4685:
 168:keys.cpp      **** 
 169:keys.cpp      **** }
 170:keys.cpp      **** 
 171:keys.cpp      **** 
 172:keys.cpp      **** void UpdateButtons()
 173:keys.cpp      **** {
 1183              		.loc 10 173 1 view -0
 1184              		.cfi_startproc
 1185              		@ args = 0, pretend = 0, frame = 0
 1186              		@ frame_needed = 0, uses_anonymous_args = 0
 174:keys.cpp      **** 
 175:keys.cpp      ****     C.Debounce();
 1187              		.loc 10 175 5 view .LVU303
 173:keys.cpp      **** 
 1188              		.loc 10 173 1 is_stmt 0 view .LVU304
 1189 0000 10B5     		push	{r4, lr}
 1190              		.cfi_def_cfa_offset 8
 1191              		.cfi_offset 4, -8
 1192              		.cfi_offset 14, -4
 1193              		.loc 10 175 15 view .LVU305
 1194 0002 A148     		ldr	r0, .L96
 1195 0004 FFF7FEFF 		bl	_ZN5daisy6Switch8DebounceEv
 1196              	.LVL90:
 176:keys.cpp      ****     CS.Debounce();
 1197              		.loc 10 176 5 is_stmt 1 view .LVU306
 1198              		.loc 10 176 16 is_stmt 0 view .LVU307
 1199 0008 A048     		ldr	r0, .L96+4
 1200 000a FFF7FEFF 		bl	_ZN5daisy6Switch8DebounceEv
 1201              	.LVL91:
 177:keys.cpp      ****     D.Debounce();
 1202              		.loc 10 177 5 is_stmt 1 view .LVU308
 1203              		.loc 10 177 15 is_stmt 0 view .LVU309
 1204 000e A048     		ldr	r0, .L96+8
 1205 0010 FFF7FEFF 		bl	_ZN5daisy6Switch8DebounceEv
 1206              	.LVL92:
 178:keys.cpp      ****     DS.Debounce();
 1207              		.loc 10 178 5 is_stmt 1 view .LVU310
 1208              		.loc 10 178 16 is_stmt 0 view .LVU311
 1209 0014 9F48     		ldr	r0, .L96+12
 1210 0016 FFF7FEFF 		bl	_ZN5daisy6Switch8DebounceEv
 1211              	.LVL93:
 179:keys.cpp      ****     E.Debounce();
 1212              		.loc 10 179 5 is_stmt 1 view .LVU312
 1213              		.loc 10 179 15 is_stmt 0 view .LVU313
 1214 001a 9F48     		ldr	r0, .L96+16
 1215 001c FFF7FEFF 		bl	_ZN5daisy6Switch8DebounceEv
 1216              	.LVL94:
 180:keys.cpp      ****     F.Debounce();
 1217              		.loc 10 180 5 is_stmt 1 view .LVU314
 1218              		.loc 10 180 15 is_stmt 0 view .LVU315
 1219 0020 9E48     		ldr	r0, .L96+20
ARM GAS  /var/folders/7c/668hyr3s7rlgsbdftclf3hsr0000gn/T//ccVahvvy.s 			page 38


 1220 0022 FFF7FEFF 		bl	_ZN5daisy6Switch8DebounceEv
 1221              	.LVL95:
 181:keys.cpp      ****     FS.Debounce();
 1222              		.loc 10 181 5 is_stmt 1 view .LVU316
 1223              		.loc 10 181 16 is_stmt 0 view .LVU317
 1224 0026 9E48     		ldr	r0, .L96+24
 1225 0028 FFF7FEFF 		bl	_ZN5daisy6Switch8DebounceEv
 1226              	.LVL96:
 182:keys.cpp      ****     G.Debounce();
 1227              		.loc 10 182 5 is_stmt 1 view .LVU318
 1228              		.loc 10 182 15 is_stmt 0 view .LVU319
 1229 002c 9D48     		ldr	r0, .L96+28
 1230 002e FFF7FEFF 		bl	_ZN5daisy6Switch8DebounceEv
 1231              	.LVL97:
 183:keys.cpp      ****     GS.Debounce();
 1232              		.loc 10 183 5 is_stmt 1 view .LVU320
 1233              		.loc 10 183 16 is_stmt 0 view .LVU321
 1234 0032 9D48     		ldr	r0, .L96+32
 1235 0034 FFF7FEFF 		bl	_ZN5daisy6Switch8DebounceEv
 1236              	.LVL98:
 184:keys.cpp      ****     A.Debounce();
 1237              		.loc 10 184 5 is_stmt 1 view .LVU322
 1238              		.loc 10 184 15 is_stmt 0 view .LVU323
 1239 0038 9C48     		ldr	r0, .L96+36
 1240 003a FFF7FEFF 		bl	_ZN5daisy6Switch8DebounceEv
 1241              	.LVL99:
 185:keys.cpp      ****     AS.Debounce();
 1242              		.loc 10 185 5 is_stmt 1 view .LVU324
 1243              		.loc 10 185 16 is_stmt 0 view .LVU325
 1244 003e 9C48     		ldr	r0, .L96+40
 1245 0040 FFF7FEFF 		bl	_ZN5daisy6Switch8DebounceEv
 1246              	.LVL100:
 186:keys.cpp      ****     B.Debounce();
 1247              		.loc 10 186 5 is_stmt 1 view .LVU326
 187:keys.cpp      ****     C2.Debounce();
 188:keys.cpp      ****     octave_up.Debounce();
 1248              		.loc 10 188 23 is_stmt 0 view .LVU327
 1249 0044 9B4C     		ldr	r4, .L96+44
 186:keys.cpp      ****     B.Debounce();
 1250              		.loc 10 186 15 view .LVU328
 1251 0046 9C48     		ldr	r0, .L96+48
 1252 0048 FFF7FEFF 		bl	_ZN5daisy6Switch8DebounceEv
 1253              	.LVL101:
 187:keys.cpp      ****     C2.Debounce();
 1254              		.loc 10 187 5 is_stmt 1 view .LVU329
 187:keys.cpp      ****     C2.Debounce();
 1255              		.loc 10 187 16 is_stmt 0 view .LVU330
 1256 004c 9B48     		ldr	r0, .L96+52
 1257 004e FFF7FEFF 		bl	_ZN5daisy6Switch8DebounceEv
 1258              	.LVL102:
 1259              		.loc 10 188 5 is_stmt 1 view .LVU331
 1260              		.loc 10 188 23 is_stmt 0 view .LVU332
 1261 0052 2046     		mov	r0, r4
 1262 0054 FFF7FEFF 		bl	_ZN5daisy6Switch8DebounceEv
 1263              	.LVL103:
 189:keys.cpp      ****     octave_down.Debounce();
 1264              		.loc 10 189 5 is_stmt 1 view .LVU333
ARM GAS  /var/folders/7c/668hyr3s7rlgsbdftclf3hsr0000gn/T//ccVahvvy.s 			page 39


 1265              		.loc 10 189 25 is_stmt 0 view .LVU334
 1266 0058 9948     		ldr	r0, .L96+56
 1267 005a FFF7FEFF 		bl	_ZN5daisy6Switch8DebounceEv
 1268              	.LVL104:
 190:keys.cpp      **** 
 191:keys.cpp      ****      if(octave_up.RisingEdge())
 1269              		.loc 10 191 6 is_stmt 1 view .LVU335
 1270              	.LBB349:
 1271              	.LBI349:
  43:../DaisyExamples/libDaisy/src/hid/switch.h **** 
  44:../DaisyExamples/libDaisy/src/hid/switch.h ****     /** 
  45:../DaisyExamples/libDaisy/src/hid/switch.h ****     Initializes the switch object with a given port/pin combo.
  46:../DaisyExamples/libDaisy/src/hid/switch.h ****     \param pin port/pin object to tell the switch which hardware pin to use.
  47:../DaisyExamples/libDaisy/src/hid/switch.h ****     \param update_rate Does nothing. Backwards compatibility until next breaking update.
  48:../DaisyExamples/libDaisy/src/hid/switch.h ****     \param t switch type -- Default: TYPE_MOMENTARY
  49:../DaisyExamples/libDaisy/src/hid/switch.h ****     \param pol switch polarity -- Default: POLARITY_INVERTED
  50:../DaisyExamples/libDaisy/src/hid/switch.h ****     \param pu switch pull up/down -- Default: PULL_UP
  51:../DaisyExamples/libDaisy/src/hid/switch.h ****     */
  52:../DaisyExamples/libDaisy/src/hid/switch.h ****     void
  53:../DaisyExamples/libDaisy/src/hid/switch.h ****     Init(dsy_gpio_pin pin, float update_rate, Type t, Polarity pol, Pull pu);
  54:../DaisyExamples/libDaisy/src/hid/switch.h **** 
  55:../DaisyExamples/libDaisy/src/hid/switch.h ****     /**
  56:../DaisyExamples/libDaisy/src/hid/switch.h ****        Simplified Init.
  57:../DaisyExamples/libDaisy/src/hid/switch.h ****        \param pin port/pin object to tell the switch which hardware pin to use.
  58:../DaisyExamples/libDaisy/src/hid/switch.h ****        \param update_rate Left for backwards compatibility until next breaking change.
  59:../DaisyExamples/libDaisy/src/hid/switch.h ****     */
  60:../DaisyExamples/libDaisy/src/hid/switch.h ****     void Init(dsy_gpio_pin pin, float update_rate = 0.f);
  61:../DaisyExamples/libDaisy/src/hid/switch.h **** 
  62:../DaisyExamples/libDaisy/src/hid/switch.h ****     /** 
  63:../DaisyExamples/libDaisy/src/hid/switch.h ****     Called at update_rate to debounce and handle timing for the switch.
  64:../DaisyExamples/libDaisy/src/hid/switch.h ****     In order for events not to be missed, its important that the Edge/Pressed checks
  65:../DaisyExamples/libDaisy/src/hid/switch.h ****     be made at the same rate as the debounce function is being called.
  66:../DaisyExamples/libDaisy/src/hid/switch.h ****     */
  67:../DaisyExamples/libDaisy/src/hid/switch.h ****     void Debounce();
  68:../DaisyExamples/libDaisy/src/hid/switch.h **** 
  69:../DaisyExamples/libDaisy/src/hid/switch.h ****     /** \return true if a button was just pressed. */
  70:../DaisyExamples/libDaisy/src/hid/switch.h ****     inline bool RisingEdge() const { return updated_ ? state_ == 0x7f : false; }
 1272              		.loc 3 70 17 view .LVU336
 1273              	.LBB350:
 1274              		.loc 3 70 38 view .LVU337
 1275              		.loc 3 70 54 is_stmt 0 view .LVU338
 1276 005e 2379     		ldrb	r3, [r4, #4]	@ zero_extendqisi2
 1277 0060 1BB1     		cbz	r3, .L21
 1278              	.LVL105:
 1279              		.loc 3 70 54 view .LVU339
 1280              	.LBE350:
 1281              	.LBE349:
 1282              		.loc 10 191 6 view .LVU340
 1283 0062 A37A     		ldrb	r3, [r4, #10]	@ zero_extendqisi2
 1284 0064 7F2B     		cmp	r3, #127
 1285 0066 00F06481 		beq	.L82
 1286              	.L21:
 192:keys.cpp      ****     {
 193:keys.cpp      ****         octave = octave * 2;
 194:keys.cpp      ****         // hw.SetLed(true);
 195:keys.cpp      ****     }
 196:keys.cpp      ****     if(octave_down.RisingEdge())
ARM GAS  /var/folders/7c/668hyr3s7rlgsbdftclf3hsr0000gn/T//ccVahvvy.s 			page 40


 1287              		.loc 10 196 5 is_stmt 1 view .LVU341
 1288              	.LVL106:
 1289              	.LBB351:
 1290              	.LBI351:
 1291              		.loc 3 70 17 view .LVU342
 1292              	.LBB352:
 1293              		.loc 3 70 38 view .LVU343
 1294              		.loc 3 70 45 is_stmt 0 view .LVU344
 1295 006a 954B     		ldr	r3, .L96+56
 1296              		.loc 3 70 54 view .LVU345
 1297 006c 1A79     		ldrb	r2, [r3, #4]	@ zero_extendqisi2
 1298 006e 1AB1     		cbz	r2, .L22
 1299              	.LVL107:
 1300              		.loc 3 70 54 view .LVU346
 1301              	.LBE352:
 1302              	.LBE351:
 1303              		.loc 10 196 5 view .LVU347
 1304 0070 9B7A     		ldrb	r3, [r3, #10]	@ zero_extendqisi2
 1305 0072 7F2B     		cmp	r3, #127
 1306 0074 00F05381 		beq	.L83
 1307              	.L22:
 197:keys.cpp      ****     {
 198:keys.cpp      **** 
 199:keys.cpp      ****         octave = octave / 2;
 200:keys.cpp      **** 
 201:keys.cpp      ****         // hw.SetLed(true);
 202:keys.cpp      ****     }   
 203:keys.cpp      ****     if(C.RisingEdge())
 1308              		.loc 10 203 5 is_stmt 1 view .LVU348
 1309              	.LVL108:
 1310              	.LBB353:
 1311              	.LBI353:
 1312              		.loc 3 70 17 view .LVU349
 1313              	.LBB354:
 1314              		.loc 3 70 38 view .LVU350
 1315              		.loc 3 70 45 is_stmt 0 view .LVU351
 1316 0078 834B     		ldr	r3, .L96
 1317              		.loc 3 70 54 view .LVU352
 1318 007a 1A79     		ldrb	r2, [r3, #4]	@ zero_extendqisi2
 1319 007c 1AB1     		cbz	r2, .L23
 1320              	.LVL109:
 1321              		.loc 3 70 54 view .LVU353
 1322              	.LBE354:
 1323              	.LBE353:
 1324              		.loc 10 203 5 view .LVU354
 1325 007e 9B7A     		ldrb	r3, [r3, #10]	@ zero_extendqisi2
 1326 0080 7F2B     		cmp	r3, #127
 1327 0082 00F03D81 		beq	.L84
 1328              	.L23:
 204:keys.cpp      ****     {
 205:keys.cpp      **** 
 206:keys.cpp      ****         oscFreq = 261.63f * octave;
 207:keys.cpp      ****         ad.Trigger();
 208:keys.cpp      ****         // hw.SetLed(true);
 209:keys.cpp      ****     }
 210:keys.cpp      ****     if(CS.RisingEdge())
 1329              		.loc 10 210 5 is_stmt 1 view .LVU355
ARM GAS  /var/folders/7c/668hyr3s7rlgsbdftclf3hsr0000gn/T//ccVahvvy.s 			page 41


 1330              	.LVL110:
 1331              	.LBB355:
 1332              	.LBI355:
 1333              		.loc 3 70 17 view .LVU356
 1334              	.LBB356:
 1335              		.loc 3 70 38 view .LVU357
 1336              		.loc 3 70 45 is_stmt 0 view .LVU358
 1337 0086 814B     		ldr	r3, .L96+4
 1338              		.loc 3 70 54 view .LVU359
 1339 0088 1A79     		ldrb	r2, [r3, #4]	@ zero_extendqisi2
 1340 008a 1AB1     		cbz	r2, .L24
 1341              	.LVL111:
 1342              		.loc 3 70 54 view .LVU360
 1343              	.LBE356:
 1344              	.LBE355:
 1345              		.loc 10 210 5 view .LVU361
 1346 008c 9B7A     		ldrb	r3, [r3, #10]	@ zero_extendqisi2
 1347 008e 7F2B     		cmp	r3, #127
 1348 0090 00F0EB80 		beq	.L85
 1349              	.L24:
 211:keys.cpp      ****     {
 212:keys.cpp      **** 
 213:keys.cpp      ****         oscFreq = 277.18f * octave;
 214:keys.cpp      ****         // oscFreq = 277.18f; //C#
 215:keys.cpp      ****         ad.Trigger();
 216:keys.cpp      ****         // hw.SetLed(true);
 217:keys.cpp      ****     }
 218:keys.cpp      ****     if(D.RisingEdge())
 1350              		.loc 10 218 5 is_stmt 1 view .LVU362
 1351              	.LVL112:
 1352              	.LBB357:
 1353              	.LBI357:
 1354              		.loc 3 70 17 view .LVU363
 1355              	.LBB358:
 1356              		.loc 3 70 38 view .LVU364
 1357              		.loc 3 70 45 is_stmt 0 view .LVU365
 1358 0094 7E4B     		ldr	r3, .L96+8
 1359              		.loc 3 70 54 view .LVU366
 1360 0096 1A79     		ldrb	r2, [r3, #4]	@ zero_extendqisi2
 1361 0098 1AB1     		cbz	r2, .L25
 1362              	.LVL113:
 1363              		.loc 3 70 54 view .LVU367
 1364              	.LBE358:
 1365              	.LBE357:
 1366              		.loc 10 218 5 view .LVU368
 1367 009a 9B7A     		ldrb	r3, [r3, #10]	@ zero_extendqisi2
 1368 009c 7F2B     		cmp	r3, #127
 1369 009e 00F0D580 		beq	.L86
 1370              	.L25:
 219:keys.cpp      ****     {
 220:keys.cpp      **** 
 221:keys.cpp      ****         oscFreq = 293.66f * octave;
 222:keys.cpp      ****         ad.Trigger();
 223:keys.cpp      ****         // hw.SetLed(true);
 224:keys.cpp      ****     }
 225:keys.cpp      ****     if(DS.RisingEdge())
 1371              		.loc 10 225 5 is_stmt 1 view .LVU369
ARM GAS  /var/folders/7c/668hyr3s7rlgsbdftclf3hsr0000gn/T//ccVahvvy.s 			page 42


 1372              	.LVL114:
 1373              	.LBB359:
 1374              	.LBI359:
 1375              		.loc 3 70 17 view .LVU370
 1376              	.LBB360:
 1377              		.loc 3 70 38 view .LVU371
 1378              		.loc 3 70 45 is_stmt 0 view .LVU372
 1379 00a2 7C4B     		ldr	r3, .L96+12
 1380              		.loc 3 70 54 view .LVU373
 1381 00a4 1A79     		ldrb	r2, [r3, #4]	@ zero_extendqisi2
 1382 00a6 1AB1     		cbz	r2, .L26
 1383              	.LVL115:
 1384              		.loc 3 70 54 view .LVU374
 1385              	.LBE360:
 1386              	.LBE359:
 1387              		.loc 10 225 5 view .LVU375
 1388 00a8 9B7A     		ldrb	r3, [r3, #10]	@ zero_extendqisi2
 1389 00aa 7F2B     		cmp	r3, #127
 1390 00ac 00F0BF80 		beq	.L87
 1391              	.L26:
 226:keys.cpp      ****     {
 227:keys.cpp      **** 
 228:keys.cpp      ****         oscFreq = 311.13f * octave;
 229:keys.cpp      ****         // oscFreq = 277.18f; //C#
 230:keys.cpp      ****         ad.Trigger();
 231:keys.cpp      ****         // hw.SetLed(true);
 232:keys.cpp      ****     }
 233:keys.cpp      ****     if(E.RisingEdge())
 1392              		.loc 10 233 5 is_stmt 1 view .LVU376
 1393              	.LVL116:
 1394              	.LBB361:
 1395              	.LBI361:
 1396              		.loc 3 70 17 view .LVU377
 1397              	.LBB362:
 1398              		.loc 3 70 38 view .LVU378
 1399              		.loc 3 70 45 is_stmt 0 view .LVU379
 1400 00b0 794B     		ldr	r3, .L96+16
 1401              		.loc 3 70 54 view .LVU380
 1402 00b2 1A79     		ldrb	r2, [r3, #4]	@ zero_extendqisi2
 1403 00b4 1AB1     		cbz	r2, .L27
 1404              	.LVL117:
 1405              		.loc 3 70 54 view .LVU381
 1406              	.LBE362:
 1407              	.LBE361:
 1408              		.loc 10 233 5 view .LVU382
 1409 00b6 9B7A     		ldrb	r3, [r3, #10]	@ zero_extendqisi2
 1410 00b8 7F2B     		cmp	r3, #127
 1411 00ba 00F0A980 		beq	.L88
 1412              	.L27:
 234:keys.cpp      ****     {
 235:keys.cpp      **** 
 236:keys.cpp      ****         oscFreq = 329.63f * octave;
 237:keys.cpp      ****         ad.Trigger();
 238:keys.cpp      ****         // hw.SetLed(true);
 239:keys.cpp      ****     }
 240:keys.cpp      ****     if(F.RisingEdge())
 1413              		.loc 10 240 5 is_stmt 1 view .LVU383
ARM GAS  /var/folders/7c/668hyr3s7rlgsbdftclf3hsr0000gn/T//ccVahvvy.s 			page 43


 1414              	.LVL118:
 1415              	.LBB363:
 1416              	.LBI363:
 1417              		.loc 3 70 17 view .LVU384
 1418              	.LBB364:
 1419              		.loc 3 70 38 view .LVU385
 1420              		.loc 3 70 45 is_stmt 0 view .LVU386
 1421 00be 774B     		ldr	r3, .L96+20
 1422              		.loc 3 70 54 view .LVU387
 1423 00c0 1A79     		ldrb	r2, [r3, #4]	@ zero_extendqisi2
 1424 00c2 1AB1     		cbz	r2, .L28
 1425              	.LVL119:
 1426              		.loc 3 70 54 view .LVU388
 1427              	.LBE364:
 1428              	.LBE363:
 1429              		.loc 10 240 5 view .LVU389
 1430 00c4 9B7A     		ldrb	r3, [r3, #10]	@ zero_extendqisi2
 1431 00c6 7F2B     		cmp	r3, #127
 1432 00c8 00F09380 		beq	.L89
 1433              	.L28:
 241:keys.cpp      ****     {
 242:keys.cpp      **** 
 243:keys.cpp      ****         oscFreq = 349.23f * octave;
 244:keys.cpp      ****         // oscFreq = 369.99f; // F#
 245:keys.cpp      **** 
 246:keys.cpp      ****         ad.Trigger();
 247:keys.cpp      ****         // hw.SetLed(true);
 248:keys.cpp      ****     }
 249:keys.cpp      ****     if(FS.RisingEdge())
 1434              		.loc 10 249 5 is_stmt 1 view .LVU390
 1435              	.LVL120:
 1436              	.LBB365:
 1437              	.LBI365:
 1438              		.loc 3 70 17 view .LVU391
 1439              	.LBB366:
 1440              		.loc 3 70 38 view .LVU392
 1441              		.loc 3 70 45 is_stmt 0 view .LVU393
 1442 00cc 744B     		ldr	r3, .L96+24
 1443              		.loc 3 70 54 view .LVU394
 1444 00ce 1A79     		ldrb	r2, [r3, #4]	@ zero_extendqisi2
 1445 00d0 12B1     		cbz	r2, .L29
 1446              	.LVL121:
 1447              		.loc 3 70 54 view .LVU395
 1448              	.LBE366:
 1449              	.LBE365:
 1450              		.loc 10 249 5 view .LVU396
 1451 00d2 9B7A     		ldrb	r3, [r3, #10]	@ zero_extendqisi2
 1452 00d4 7F2B     		cmp	r3, #127
 1453 00d6 7DD0     		beq	.L90
 1454              	.L29:
 250:keys.cpp      ****     {
 251:keys.cpp      **** 
 252:keys.cpp      ****         oscFreq = 369.99f * octave;
 253:keys.cpp      ****         // oscFreq = 277.18f; //C#
 254:keys.cpp      ****         ad.Trigger();
 255:keys.cpp      ****         // hw.SetLed(true);
 256:keys.cpp      ****     }
ARM GAS  /var/folders/7c/668hyr3s7rlgsbdftclf3hsr0000gn/T//ccVahvvy.s 			page 44


 257:keys.cpp      ****     if(G.RisingEdge())
 1455              		.loc 10 257 5 is_stmt 1 view .LVU397
 1456              	.LVL122:
 1457              	.LBB367:
 1458              	.LBI367:
 1459              		.loc 3 70 17 view .LVU398
 1460              	.LBB368:
 1461              		.loc 3 70 38 view .LVU399
 1462              		.loc 3 70 45 is_stmt 0 view .LVU400
 1463 00d8 724B     		ldr	r3, .L96+28
 1464              		.loc 3 70 54 view .LVU401
 1465 00da 1A79     		ldrb	r2, [r3, #4]	@ zero_extendqisi2
 1466 00dc 12B1     		cbz	r2, .L30
 1467              	.LVL123:
 1468              		.loc 3 70 54 view .LVU402
 1469              	.LBE368:
 1470              	.LBE367:
 1471              		.loc 10 257 5 view .LVU403
 1472 00de 9B7A     		ldrb	r3, [r3, #10]	@ zero_extendqisi2
 1473 00e0 7F2B     		cmp	r3, #127
 1474 00e2 68D0     		beq	.L91
 1475              	.L30:
 258:keys.cpp      ****     {
 259:keys.cpp      **** 
 260:keys.cpp      ****         oscFreq = 392.0f * octave;
 261:keys.cpp      ****         ad.Trigger();
 262:keys.cpp      ****         // hw.SetLed(true);
 263:keys.cpp      ****     }
 264:keys.cpp      ****     if(GS.RisingEdge())
 1476              		.loc 10 264 5 is_stmt 1 view .LVU404
 1477              	.LVL124:
 1478              	.LBB369:
 1479              	.LBI369:
 1480              		.loc 3 70 17 view .LVU405
 1481              	.LBB370:
 1482              		.loc 3 70 38 view .LVU406
 1483              		.loc 3 70 45 is_stmt 0 view .LVU407
 1484 00e4 704B     		ldr	r3, .L96+32
 1485              		.loc 3 70 54 view .LVU408
 1486 00e6 1A79     		ldrb	r2, [r3, #4]	@ zero_extendqisi2
 1487 00e8 12B1     		cbz	r2, .L31
 1488              	.LVL125:
 1489              		.loc 3 70 54 view .LVU409
 1490              	.LBE370:
 1491              	.LBE369:
 1492              		.loc 10 264 5 view .LVU410
 1493 00ea 9B7A     		ldrb	r3, [r3, #10]	@ zero_extendqisi2
 1494 00ec 7F2B     		cmp	r3, #127
 1495 00ee 53D0     		beq	.L92
 1496              	.L31:
 265:keys.cpp      ****     {
 266:keys.cpp      **** 
 267:keys.cpp      ****         oscFreq = 415.30f * octave;
 268:keys.cpp      ****         ad.Trigger();
 269:keys.cpp      ****         // hw.SetLed(true);
 270:keys.cpp      ****     }
 271:keys.cpp      ****     if(A.RisingEdge())
ARM GAS  /var/folders/7c/668hyr3s7rlgsbdftclf3hsr0000gn/T//ccVahvvy.s 			page 45


 1497              		.loc 10 271 5 is_stmt 1 view .LVU411
 1498              	.LVL126:
 1499              	.LBB371:
 1500              	.LBI371:
 1501              		.loc 3 70 17 view .LVU412
 1502              	.LBB372:
 1503              		.loc 3 70 38 view .LVU413
 1504              		.loc 3 70 45 is_stmt 0 view .LVU414
 1505 00f0 6E4B     		ldr	r3, .L96+36
 1506              		.loc 3 70 54 view .LVU415
 1507 00f2 1A79     		ldrb	r2, [r3, #4]	@ zero_extendqisi2
 1508 00f4 12B1     		cbz	r2, .L32
 1509              	.LVL127:
 1510              		.loc 3 70 54 view .LVU416
 1511              	.LBE372:
 1512              	.LBE371:
 1513              		.loc 10 271 5 view .LVU417
 1514 00f6 9B7A     		ldrb	r3, [r3, #10]	@ zero_extendqisi2
 1515 00f8 7F2B     		cmp	r3, #127
 1516 00fa 3ED0     		beq	.L93
 1517              	.L32:
 272:keys.cpp      ****     {
 273:keys.cpp      **** 
 274:keys.cpp      ****         oscFreq = 440.0f * octave;
 275:keys.cpp      ****         ad.Trigger();
 276:keys.cpp      ****         // hw.SetLed(true);
 277:keys.cpp      ****     }
 278:keys.cpp      ****     if(AS.RisingEdge())
 1518              		.loc 10 278 5 is_stmt 1 view .LVU418
 1519              	.LVL128:
 1520              	.LBB373:
 1521              	.LBI373:
 1522              		.loc 3 70 17 view .LVU419
 1523              	.LBB374:
 1524              		.loc 3 70 38 view .LVU420
 1525              		.loc 3 70 45 is_stmt 0 view .LVU421
 1526 00fc 6C4B     		ldr	r3, .L96+40
 1527              		.loc 3 70 54 view .LVU422
 1528 00fe 1A79     		ldrb	r2, [r3, #4]	@ zero_extendqisi2
 1529 0100 12B1     		cbz	r2, .L33
 1530              	.LVL129:
 1531              		.loc 3 70 54 view .LVU423
 1532              	.LBE374:
 1533              	.LBE373:
 1534              		.loc 10 278 5 view .LVU424
 1535 0102 9B7A     		ldrb	r3, [r3, #10]	@ zero_extendqisi2
 1536 0104 7F2B     		cmp	r3, #127
 1537 0106 29D0     		beq	.L94
 1538              	.L33:
 279:keys.cpp      ****     {
 280:keys.cpp      **** 
 281:keys.cpp      ****         oscFreq = 466.16f * octave;
 282:keys.cpp      ****         ad.Trigger();
 283:keys.cpp      ****         // hw.SetLed(true);
 284:keys.cpp      ****     }
 285:keys.cpp      ****     if(B.RisingEdge())
 1539              		.loc 10 285 5 is_stmt 1 view .LVU425
ARM GAS  /var/folders/7c/668hyr3s7rlgsbdftclf3hsr0000gn/T//ccVahvvy.s 			page 46


 1540              	.LVL130:
 1541              	.LBB375:
 1542              	.LBI375:
 1543              		.loc 3 70 17 view .LVU426
 1544              	.LBB376:
 1545              		.loc 3 70 38 view .LVU427
 1546              		.loc 3 70 45 is_stmt 0 view .LVU428
 1547 0108 6B4B     		ldr	r3, .L96+48
 1548              		.loc 3 70 54 view .LVU429
 1549 010a 1A79     		ldrb	r2, [r3, #4]	@ zero_extendqisi2
 1550 010c 12B1     		cbz	r2, .L34
 1551              	.LVL131:
 1552              		.loc 3 70 54 view .LVU430
 1553              	.LBE376:
 1554              	.LBE375:
 1555              		.loc 10 285 5 view .LVU431
 1556 010e 9B7A     		ldrb	r3, [r3, #10]	@ zero_extendqisi2
 1557 0110 7F2B     		cmp	r3, #127
 1558 0112 14D0     		beq	.L95
 1559              	.L34:
 286:keys.cpp      ****     {
 287:keys.cpp      **** 
 288:keys.cpp      ****         oscFreq = 493.88f * octave;
 289:keys.cpp      ****         ad.Trigger();
 290:keys.cpp      ****         // hw.SetLed(true);
 291:keys.cpp      ****     }
 292:keys.cpp      ****     if(C2.RisingEdge())
 1560              		.loc 10 292 5 is_stmt 1 view .LVU432
 1561              	.LVL132:
 1562              	.LBB377:
 1563              	.LBI377:
 1564              		.loc 3 70 17 view .LVU433
 1565              	.LBB378:
 1566              		.loc 3 70 38 view .LVU434
 1567              		.loc 3 70 45 is_stmt 0 view .LVU435
 1568 0114 694B     		ldr	r3, .L96+52
 1569              		.loc 3 70 54 view .LVU436
 1570 0116 1A79     		ldrb	r2, [r3, #4]	@ zero_extendqisi2
 1571 0118 82B1     		cbz	r2, .L20
 1572              	.LVL133:
 1573              		.loc 3 70 54 view .LVU437
 1574              	.LBE378:
 1575              	.LBE377:
 1576              		.loc 10 292 5 view .LVU438
 1577 011a 9B7A     		ldrb	r3, [r3, #10]	@ zero_extendqisi2
 1578 011c 7F2B     		cmp	r3, #127
 1579 011e 0DD1     		bne	.L20
 293:keys.cpp      ****     {
 294:keys.cpp      **** 
 295:keys.cpp      ****         oscFreq = 523.25f * octave;
 1580              		.loc 10 295 9 is_stmt 1 view .LVU439
 1581              		.loc 10 295 27 is_stmt 0 view .LVU440
 1582 0120 6849     		ldr	r1, .L96+60
 1583 0122 9FED697A 		vldr.32	s14, .L96+64
 1584 0126 D1ED007A 		vldr.32	s15, [r1]
 1585              	.LBB379:
 1586              	.LBB380:
ARM GAS  /var/folders/7c/668hyr3s7rlgsbdftclf3hsr0000gn/T//ccVahvvy.s 			page 47


  64:../DaisyExamples/DaisySP/Source/Control/adenv.h ****     /** Sets the length of time (in seconds) for a specific segment. */
 1587              		.loc 1 64 38 view .LVU441
 1588 012a 0121     		movs	r1, #1
 1589              	.LBE380:
 1590              	.LBE379:
 1591              		.loc 10 295 17 view .LVU442
 1592 012c 674B     		ldr	r3, .L96+68
 1593              		.loc 10 295 27 view .LVU443
 1594 012e 67EE877A 		vmul.f32	s15, s15, s14
 1595              	.LBB383:
 1596              	.LBB381:
  64:../DaisyExamples/DaisySP/Source/Control/adenv.h ****     /** Sets the length of time (in seconds) for a specific segment. */
 1597              		.loc 1 64 38 view .LVU444
 1598 0132 674A     		ldr	r2, .L96+72
 1599 0134 82F83410 		strb	r1, [r2, #52]
 1600              	.LBE381:
 1601              	.LBE383:
 1602              		.loc 10 295 17 view .LVU445
 1603 0138 C3ED007A 		vstr.32	s15, [r3]
 296:keys.cpp      ****         ad.Trigger();
 1604              		.loc 10 296 9 is_stmt 1 view .LVU446
 1605              	.LVL134:
 1606              	.LBB384:
 1607              	.LBI379:
  64:../DaisyExamples/DaisySP/Source/Control/adenv.h ****     /** Sets the length of time (in seconds) for a specific segment. */
 1608              		.loc 1 64 17 view .LVU447
 1609              	.LBB382:
  64:../DaisyExamples/DaisySP/Source/Control/adenv.h ****     /** Sets the length of time (in seconds) for a specific segment. */
 1610              		.loc 1 64 29 view .LVU448
 1611              	.L20:
  64:../DaisyExamples/DaisySP/Source/Control/adenv.h ****     /** Sets the length of time (in seconds) for a specific segment. */
 1612              		.loc 1 64 29 is_stmt 0 view .LVU449
 1613              	.LBE382:
 1614              	.LBE384:
 297:keys.cpp      ****         // hw.SetLed(true);
 298:keys.cpp      ****     }
 299:keys.cpp      **** 
 300:keys.cpp      **** }
 1615              		.loc 10 300 1 view .LVU450
 1616 013c 10BD     		pop	{r4, pc}
 1617              	.L95:
 288:keys.cpp      ****         ad.Trigger();
 1618              		.loc 10 288 9 is_stmt 1 view .LVU451
 288:keys.cpp      ****         ad.Trigger();
 1619              		.loc 10 288 27 is_stmt 0 view .LVU452
 1620 013e 6149     		ldr	r1, .L96+60
 1621 0140 9FED647A 		vldr.32	s14, .L96+76
 1622 0144 D1ED007A 		vldr.32	s15, [r1]
 1623              	.LBB385:
 1624              	.LBB386:
  64:../DaisyExamples/DaisySP/Source/Control/adenv.h ****     /** Sets the length of time (in seconds) for a specific segment. */
 1625              		.loc 1 64 38 view .LVU453
 1626 0148 0121     		movs	r1, #1
 1627              	.LBE386:
 1628              	.LBE385:
 288:keys.cpp      ****         ad.Trigger();
 1629              		.loc 10 288 17 view .LVU454
ARM GAS  /var/folders/7c/668hyr3s7rlgsbdftclf3hsr0000gn/T//ccVahvvy.s 			page 48


 1630 014a 604B     		ldr	r3, .L96+68
 288:keys.cpp      ****         ad.Trigger();
 1631              		.loc 10 288 27 view .LVU455
 1632 014c 67EE877A 		vmul.f32	s15, s15, s14
 1633              	.LBB389:
 1634              	.LBB387:
  64:../DaisyExamples/DaisySP/Source/Control/adenv.h ****     /** Sets the length of time (in seconds) for a specific segment. */
 1635              		.loc 1 64 38 view .LVU456
 1636 0150 5F4A     		ldr	r2, .L96+72
 1637 0152 82F83410 		strb	r1, [r2, #52]
 1638              	.LBE387:
 1639              	.LBE389:
 288:keys.cpp      ****         ad.Trigger();
 1640              		.loc 10 288 17 view .LVU457
 1641 0156 C3ED007A 		vstr.32	s15, [r3]
 289:keys.cpp      ****         // hw.SetLed(true);
 1642              		.loc 10 289 9 is_stmt 1 view .LVU458
 1643              	.LVL135:
 1644              	.LBB390:
 1645              	.LBI385:
  64:../DaisyExamples/DaisySP/Source/Control/adenv.h ****     /** Sets the length of time (in seconds) for a specific segment. */
 1646              		.loc 1 64 17 view .LVU459
 1647              	.LBB388:
  64:../DaisyExamples/DaisySP/Source/Control/adenv.h ****     /** Sets the length of time (in seconds) for a specific segment. */
 1648              		.loc 1 64 29 view .LVU460
  64:../DaisyExamples/DaisySP/Source/Control/adenv.h ****     /** Sets the length of time (in seconds) for a specific segment. */
 1649              		.loc 1 64 43 is_stmt 0 view .LVU461
 1650 015a DBE7     		b	.L34
 1651              	.LVL136:
 1652              	.L94:
  64:../DaisyExamples/DaisySP/Source/Control/adenv.h ****     /** Sets the length of time (in seconds) for a specific segment. */
 1653              		.loc 1 64 43 view .LVU462
 1654              	.LBE388:
 1655              	.LBE390:
 281:keys.cpp      ****         ad.Trigger();
 1656              		.loc 10 281 9 is_stmt 1 view .LVU463
 281:keys.cpp      ****         ad.Trigger();
 1657              		.loc 10 281 27 is_stmt 0 view .LVU464
 1658 015c 5949     		ldr	r1, .L96+60
 1659 015e 9FED5E7A 		vldr.32	s14, .L96+80
 1660 0162 D1ED007A 		vldr.32	s15, [r1]
 1661              	.LBB391:
 1662              	.LBB392:
  64:../DaisyExamples/DaisySP/Source/Control/adenv.h ****     /** Sets the length of time (in seconds) for a specific segment. */
 1663              		.loc 1 64 38 view .LVU465
 1664 0166 0121     		movs	r1, #1
 1665              	.LBE392:
 1666              	.LBE391:
 281:keys.cpp      ****         ad.Trigger();
 1667              		.loc 10 281 17 view .LVU466
 1668 0168 584B     		ldr	r3, .L96+68
 281:keys.cpp      ****         ad.Trigger();
 1669              		.loc 10 281 27 view .LVU467
 1670 016a 67EE877A 		vmul.f32	s15, s15, s14
 1671              	.LBB395:
 1672              	.LBB393:
  64:../DaisyExamples/DaisySP/Source/Control/adenv.h ****     /** Sets the length of time (in seconds) for a specific segment. */
ARM GAS  /var/folders/7c/668hyr3s7rlgsbdftclf3hsr0000gn/T//ccVahvvy.s 			page 49


 1673              		.loc 1 64 38 view .LVU468
 1674 016e 584A     		ldr	r2, .L96+72
 1675 0170 82F83410 		strb	r1, [r2, #52]
 1676              	.LBE393:
 1677              	.LBE395:
 281:keys.cpp      ****         ad.Trigger();
 1678              		.loc 10 281 17 view .LVU469
 1679 0174 C3ED007A 		vstr.32	s15, [r3]
 282:keys.cpp      ****         // hw.SetLed(true);
 1680              		.loc 10 282 9 is_stmt 1 view .LVU470
 1681              	.LVL137:
 1682              	.LBB396:
 1683              	.LBI391:
  64:../DaisyExamples/DaisySP/Source/Control/adenv.h ****     /** Sets the length of time (in seconds) for a specific segment. */
 1684              		.loc 1 64 17 view .LVU471
 1685              	.LBB394:
  64:../DaisyExamples/DaisySP/Source/Control/adenv.h ****     /** Sets the length of time (in seconds) for a specific segment. */
 1686              		.loc 1 64 29 view .LVU472
  64:../DaisyExamples/DaisySP/Source/Control/adenv.h ****     /** Sets the length of time (in seconds) for a specific segment. */
 1687              		.loc 1 64 43 is_stmt 0 view .LVU473
 1688 0178 C6E7     		b	.L33
 1689              	.LVL138:
 1690              	.L93:
  64:../DaisyExamples/DaisySP/Source/Control/adenv.h ****     /** Sets the length of time (in seconds) for a specific segment. */
 1691              		.loc 1 64 43 view .LVU474
 1692              	.LBE394:
 1693              	.LBE396:
 274:keys.cpp      ****         ad.Trigger();
 1694              		.loc 10 274 9 is_stmt 1 view .LVU475
 274:keys.cpp      ****         ad.Trigger();
 1695              		.loc 10 274 26 is_stmt 0 view .LVU476
 1696 017a 5249     		ldr	r1, .L96+60
 1697 017c 9FED577A 		vldr.32	s14, .L96+84
 1698 0180 D1ED007A 		vldr.32	s15, [r1]
 1699              	.LBB397:
 1700              	.LBB398:
  64:../DaisyExamples/DaisySP/Source/Control/adenv.h ****     /** Sets the length of time (in seconds) for a specific segment. */
 1701              		.loc 1 64 38 view .LVU477
 1702 0184 0121     		movs	r1, #1
 1703              	.LBE398:
 1704              	.LBE397:
 274:keys.cpp      ****         ad.Trigger();
 1705              		.loc 10 274 17 view .LVU478
 1706 0186 514B     		ldr	r3, .L96+68
 274:keys.cpp      ****         ad.Trigger();
 1707              		.loc 10 274 26 view .LVU479
 1708 0188 67EE877A 		vmul.f32	s15, s15, s14
 1709              	.LBB401:
 1710              	.LBB399:
  64:../DaisyExamples/DaisySP/Source/Control/adenv.h ****     /** Sets the length of time (in seconds) for a specific segment. */
 1711              		.loc 1 64 38 view .LVU480
 1712 018c 504A     		ldr	r2, .L96+72
 1713 018e 82F83410 		strb	r1, [r2, #52]
 1714              	.LBE399:
 1715              	.LBE401:
 274:keys.cpp      ****         ad.Trigger();
 1716              		.loc 10 274 17 view .LVU481
ARM GAS  /var/folders/7c/668hyr3s7rlgsbdftclf3hsr0000gn/T//ccVahvvy.s 			page 50


 1717 0192 C3ED007A 		vstr.32	s15, [r3]
 275:keys.cpp      ****         // hw.SetLed(true);
 1718              		.loc 10 275 9 is_stmt 1 view .LVU482
 1719              	.LVL139:
 1720              	.LBB402:
 1721              	.LBI397:
  64:../DaisyExamples/DaisySP/Source/Control/adenv.h ****     /** Sets the length of time (in seconds) for a specific segment. */
 1722              		.loc 1 64 17 view .LVU483
 1723              	.LBB400:
  64:../DaisyExamples/DaisySP/Source/Control/adenv.h ****     /** Sets the length of time (in seconds) for a specific segment. */
 1724              		.loc 1 64 29 view .LVU484
  64:../DaisyExamples/DaisySP/Source/Control/adenv.h ****     /** Sets the length of time (in seconds) for a specific segment. */
 1725              		.loc 1 64 43 is_stmt 0 view .LVU485
 1726 0196 B1E7     		b	.L32
 1727              	.LVL140:
 1728              	.L92:
  64:../DaisyExamples/DaisySP/Source/Control/adenv.h ****     /** Sets the length of time (in seconds) for a specific segment. */
 1729              		.loc 1 64 43 view .LVU486
 1730              	.LBE400:
 1731              	.LBE402:
 267:keys.cpp      ****         ad.Trigger();
 1732              		.loc 10 267 9 is_stmt 1 view .LVU487
 267:keys.cpp      ****         ad.Trigger();
 1733              		.loc 10 267 27 is_stmt 0 view .LVU488
 1734 0198 4A49     		ldr	r1, .L96+60
 1735 019a 9FED517A 		vldr.32	s14, .L96+88
 1736 019e D1ED007A 		vldr.32	s15, [r1]
 1737              	.LBB403:
 1738              	.LBB404:
  64:../DaisyExamples/DaisySP/Source/Control/adenv.h ****     /** Sets the length of time (in seconds) for a specific segment. */
 1739              		.loc 1 64 38 view .LVU489
 1740 01a2 0121     		movs	r1, #1
 1741              	.LBE404:
 1742              	.LBE403:
 267:keys.cpp      ****         ad.Trigger();
 1743              		.loc 10 267 17 view .LVU490
 1744 01a4 494B     		ldr	r3, .L96+68
 267:keys.cpp      ****         ad.Trigger();
 1745              		.loc 10 267 27 view .LVU491
 1746 01a6 67EE877A 		vmul.f32	s15, s15, s14
 1747              	.LBB407:
 1748              	.LBB405:
  64:../DaisyExamples/DaisySP/Source/Control/adenv.h ****     /** Sets the length of time (in seconds) for a specific segment. */
 1749              		.loc 1 64 38 view .LVU492
 1750 01aa 494A     		ldr	r2, .L96+72
 1751 01ac 82F83410 		strb	r1, [r2, #52]
 1752              	.LBE405:
 1753              	.LBE407:
 267:keys.cpp      ****         ad.Trigger();
 1754              		.loc 10 267 17 view .LVU493
 1755 01b0 C3ED007A 		vstr.32	s15, [r3]
 268:keys.cpp      ****         // hw.SetLed(true);
 1756              		.loc 10 268 9 is_stmt 1 view .LVU494
 1757              	.LVL141:
 1758              	.LBB408:
 1759              	.LBI403:
  64:../DaisyExamples/DaisySP/Source/Control/adenv.h ****     /** Sets the length of time (in seconds) for a specific segment. */
ARM GAS  /var/folders/7c/668hyr3s7rlgsbdftclf3hsr0000gn/T//ccVahvvy.s 			page 51


 1760              		.loc 1 64 17 view .LVU495
 1761              	.LBB406:
  64:../DaisyExamples/DaisySP/Source/Control/adenv.h ****     /** Sets the length of time (in seconds) for a specific segment. */
 1762              		.loc 1 64 29 view .LVU496
  64:../DaisyExamples/DaisySP/Source/Control/adenv.h ****     /** Sets the length of time (in seconds) for a specific segment. */
 1763              		.loc 1 64 43 is_stmt 0 view .LVU497
 1764 01b4 9CE7     		b	.L31
 1765              	.LVL142:
 1766              	.L91:
  64:../DaisyExamples/DaisySP/Source/Control/adenv.h ****     /** Sets the length of time (in seconds) for a specific segment. */
 1767              		.loc 1 64 43 view .LVU498
 1768              	.LBE406:
 1769              	.LBE408:
 260:keys.cpp      ****         ad.Trigger();
 1770              		.loc 10 260 9 is_stmt 1 view .LVU499
 260:keys.cpp      ****         ad.Trigger();
 1771              		.loc 10 260 26 is_stmt 0 view .LVU500
 1772 01b6 4349     		ldr	r1, .L96+60
 1773 01b8 9FED4A7A 		vldr.32	s14, .L96+92
 1774 01bc D1ED007A 		vldr.32	s15, [r1]
 1775              	.LBB409:
 1776              	.LBB410:
  64:../DaisyExamples/DaisySP/Source/Control/adenv.h ****     /** Sets the length of time (in seconds) for a specific segment. */
 1777              		.loc 1 64 38 view .LVU501
 1778 01c0 0121     		movs	r1, #1
 1779              	.LBE410:
 1780              	.LBE409:
 260:keys.cpp      ****         ad.Trigger();
 1781              		.loc 10 260 17 view .LVU502
 1782 01c2 424B     		ldr	r3, .L96+68
 260:keys.cpp      ****         ad.Trigger();
 1783              		.loc 10 260 26 view .LVU503
 1784 01c4 67EE877A 		vmul.f32	s15, s15, s14
 1785              	.LBB413:
 1786              	.LBB411:
  64:../DaisyExamples/DaisySP/Source/Control/adenv.h ****     /** Sets the length of time (in seconds) for a specific segment. */
 1787              		.loc 1 64 38 view .LVU504
 1788 01c8 414A     		ldr	r2, .L96+72
 1789 01ca 82F83410 		strb	r1, [r2, #52]
 1790              	.LBE411:
 1791              	.LBE413:
 260:keys.cpp      ****         ad.Trigger();
 1792              		.loc 10 260 17 view .LVU505
 1793 01ce C3ED007A 		vstr.32	s15, [r3]
 261:keys.cpp      ****         // hw.SetLed(true);
 1794              		.loc 10 261 9 is_stmt 1 view .LVU506
 1795              	.LVL143:
 1796              	.LBB414:
 1797              	.LBI409:
  64:../DaisyExamples/DaisySP/Source/Control/adenv.h ****     /** Sets the length of time (in seconds) for a specific segment. */
 1798              		.loc 1 64 17 view .LVU507
 1799              	.LBB412:
  64:../DaisyExamples/DaisySP/Source/Control/adenv.h ****     /** Sets the length of time (in seconds) for a specific segment. */
 1800              		.loc 1 64 29 view .LVU508
  64:../DaisyExamples/DaisySP/Source/Control/adenv.h ****     /** Sets the length of time (in seconds) for a specific segment. */
 1801              		.loc 1 64 43 is_stmt 0 view .LVU509
 1802 01d2 87E7     		b	.L30
ARM GAS  /var/folders/7c/668hyr3s7rlgsbdftclf3hsr0000gn/T//ccVahvvy.s 			page 52


 1803              	.LVL144:
 1804              	.L90:
  64:../DaisyExamples/DaisySP/Source/Control/adenv.h ****     /** Sets the length of time (in seconds) for a specific segment. */
 1805              		.loc 1 64 43 view .LVU510
 1806              	.LBE412:
 1807              	.LBE414:
 252:keys.cpp      ****         // oscFreq = 277.18f; //C#
 1808              		.loc 10 252 9 is_stmt 1 view .LVU511
 252:keys.cpp      ****         // oscFreq = 277.18f; //C#
 1809              		.loc 10 252 27 is_stmt 0 view .LVU512
 1810 01d4 3B49     		ldr	r1, .L96+60
 1811 01d6 9FED447A 		vldr.32	s14, .L96+96
 1812 01da D1ED007A 		vldr.32	s15, [r1]
 1813              	.LBB415:
 1814              	.LBB416:
  64:../DaisyExamples/DaisySP/Source/Control/adenv.h ****     /** Sets the length of time (in seconds) for a specific segment. */
 1815              		.loc 1 64 38 view .LVU513
 1816 01de 0121     		movs	r1, #1
 1817              	.LBE416:
 1818              	.LBE415:
 252:keys.cpp      ****         // oscFreq = 277.18f; //C#
 1819              		.loc 10 252 17 view .LVU514
 1820 01e0 3A4B     		ldr	r3, .L96+68
 252:keys.cpp      ****         // oscFreq = 277.18f; //C#
 1821              		.loc 10 252 27 view .LVU515
 1822 01e2 67EE877A 		vmul.f32	s15, s15, s14
 1823              	.LBB419:
 1824              	.LBB417:
  64:../DaisyExamples/DaisySP/Source/Control/adenv.h ****     /** Sets the length of time (in seconds) for a specific segment. */
 1825              		.loc 1 64 38 view .LVU516
 1826 01e6 3A4A     		ldr	r2, .L96+72
 1827 01e8 82F83410 		strb	r1, [r2, #52]
 1828              	.LBE417:
 1829              	.LBE419:
 252:keys.cpp      ****         // oscFreq = 277.18f; //C#
 1830              		.loc 10 252 17 view .LVU517
 1831 01ec C3ED007A 		vstr.32	s15, [r3]
 254:keys.cpp      ****         // hw.SetLed(true);
 1832              		.loc 10 254 9 is_stmt 1 view .LVU518
 1833              	.LVL145:
 1834              	.LBB420:
 1835              	.LBI415:
  64:../DaisyExamples/DaisySP/Source/Control/adenv.h ****     /** Sets the length of time (in seconds) for a specific segment. */
 1836              		.loc 1 64 17 view .LVU519
 1837              	.LBB418:
  64:../DaisyExamples/DaisySP/Source/Control/adenv.h ****     /** Sets the length of time (in seconds) for a specific segment. */
 1838              		.loc 1 64 29 view .LVU520
  64:../DaisyExamples/DaisySP/Source/Control/adenv.h ****     /** Sets the length of time (in seconds) for a specific segment. */
 1839              		.loc 1 64 43 is_stmt 0 view .LVU521
 1840 01f0 72E7     		b	.L29
 1841              	.LVL146:
 1842              	.L89:
  64:../DaisyExamples/DaisySP/Source/Control/adenv.h ****     /** Sets the length of time (in seconds) for a specific segment. */
 1843              		.loc 1 64 43 view .LVU522
 1844              	.LBE418:
 1845              	.LBE420:
 243:keys.cpp      ****         // oscFreq = 369.99f; // F#
ARM GAS  /var/folders/7c/668hyr3s7rlgsbdftclf3hsr0000gn/T//ccVahvvy.s 			page 53


 1846              		.loc 10 243 9 is_stmt 1 view .LVU523
 243:keys.cpp      ****         // oscFreq = 369.99f; // F#
 1847              		.loc 10 243 27 is_stmt 0 view .LVU524
 1848 01f2 3449     		ldr	r1, .L96+60
 1849 01f4 9FED3D7A 		vldr.32	s14, .L96+100
 1850 01f8 D1ED007A 		vldr.32	s15, [r1]
 1851              	.LBB421:
 1852              	.LBB422:
  64:../DaisyExamples/DaisySP/Source/Control/adenv.h ****     /** Sets the length of time (in seconds) for a specific segment. */
 1853              		.loc 1 64 38 view .LVU525
 1854 01fc 0121     		movs	r1, #1
 1855              	.LBE422:
 1856              	.LBE421:
 243:keys.cpp      ****         // oscFreq = 369.99f; // F#
 1857              		.loc 10 243 17 view .LVU526
 1858 01fe 334B     		ldr	r3, .L96+68
 243:keys.cpp      ****         // oscFreq = 369.99f; // F#
 1859              		.loc 10 243 27 view .LVU527
 1860 0200 67EE877A 		vmul.f32	s15, s15, s14
 1861              	.LBB425:
 1862              	.LBB423:
  64:../DaisyExamples/DaisySP/Source/Control/adenv.h ****     /** Sets the length of time (in seconds) for a specific segment. */
 1863              		.loc 1 64 38 view .LVU528
 1864 0204 324A     		ldr	r2, .L96+72
 1865 0206 82F83410 		strb	r1, [r2, #52]
 1866              	.LBE423:
 1867              	.LBE425:
 243:keys.cpp      ****         // oscFreq = 369.99f; // F#
 1868              		.loc 10 243 17 view .LVU529
 1869 020a C3ED007A 		vstr.32	s15, [r3]
 246:keys.cpp      ****         // hw.SetLed(true);
 1870              		.loc 10 246 9 is_stmt 1 view .LVU530
 1871              	.LVL147:
 1872              	.LBB426:
 1873              	.LBI421:
  64:../DaisyExamples/DaisySP/Source/Control/adenv.h ****     /** Sets the length of time (in seconds) for a specific segment. */
 1874              		.loc 1 64 17 view .LVU531
 1875              	.LBB424:
  64:../DaisyExamples/DaisySP/Source/Control/adenv.h ****     /** Sets the length of time (in seconds) for a specific segment. */
 1876              		.loc 1 64 29 view .LVU532
  64:../DaisyExamples/DaisySP/Source/Control/adenv.h ****     /** Sets the length of time (in seconds) for a specific segment. */
 1877              		.loc 1 64 43 is_stmt 0 view .LVU533
 1878 020e 5DE7     		b	.L28
 1879              	.LVL148:
 1880              	.L88:
  64:../DaisyExamples/DaisySP/Source/Control/adenv.h ****     /** Sets the length of time (in seconds) for a specific segment. */
 1881              		.loc 1 64 43 view .LVU534
 1882              	.LBE424:
 1883              	.LBE426:
 236:keys.cpp      ****         ad.Trigger();
 1884              		.loc 10 236 9 is_stmt 1 view .LVU535
 236:keys.cpp      ****         ad.Trigger();
 1885              		.loc 10 236 27 is_stmt 0 view .LVU536
 1886 0210 2C49     		ldr	r1, .L96+60
 1887 0212 9FED377A 		vldr.32	s14, .L96+104
 1888 0216 D1ED007A 		vldr.32	s15, [r1]
 1889              	.LBB427:
ARM GAS  /var/folders/7c/668hyr3s7rlgsbdftclf3hsr0000gn/T//ccVahvvy.s 			page 54


 1890              	.LBB428:
  64:../DaisyExamples/DaisySP/Source/Control/adenv.h ****     /** Sets the length of time (in seconds) for a specific segment. */
 1891              		.loc 1 64 38 view .LVU537
 1892 021a 0121     		movs	r1, #1
 1893              	.LBE428:
 1894              	.LBE427:
 236:keys.cpp      ****         ad.Trigger();
 1895              		.loc 10 236 17 view .LVU538
 1896 021c 2B4B     		ldr	r3, .L96+68
 236:keys.cpp      ****         ad.Trigger();
 1897              		.loc 10 236 27 view .LVU539
 1898 021e 67EE877A 		vmul.f32	s15, s15, s14
 1899              	.LBB431:
 1900              	.LBB429:
  64:../DaisyExamples/DaisySP/Source/Control/adenv.h ****     /** Sets the length of time (in seconds) for a specific segment. */
 1901              		.loc 1 64 38 view .LVU540
 1902 0222 2B4A     		ldr	r2, .L96+72
 1903 0224 82F83410 		strb	r1, [r2, #52]
 1904              	.LBE429:
 1905              	.LBE431:
 236:keys.cpp      ****         ad.Trigger();
 1906              		.loc 10 236 17 view .LVU541
 1907 0228 C3ED007A 		vstr.32	s15, [r3]
 237:keys.cpp      ****         // hw.SetLed(true);
 1908              		.loc 10 237 9 is_stmt 1 view .LVU542
 1909              	.LVL149:
 1910              	.LBB432:
 1911              	.LBI427:
  64:../DaisyExamples/DaisySP/Source/Control/adenv.h ****     /** Sets the length of time (in seconds) for a specific segment. */
 1912              		.loc 1 64 17 view .LVU543
 1913              	.LBB430:
  64:../DaisyExamples/DaisySP/Source/Control/adenv.h ****     /** Sets the length of time (in seconds) for a specific segment. */
 1914              		.loc 1 64 29 view .LVU544
  64:../DaisyExamples/DaisySP/Source/Control/adenv.h ****     /** Sets the length of time (in seconds) for a specific segment. */
 1915              		.loc 1 64 43 is_stmt 0 view .LVU545
 1916 022c 47E7     		b	.L27
 1917              	.LVL150:
 1918              	.L87:
  64:../DaisyExamples/DaisySP/Source/Control/adenv.h ****     /** Sets the length of time (in seconds) for a specific segment. */
 1919              		.loc 1 64 43 view .LVU546
 1920              	.LBE430:
 1921              	.LBE432:
 228:keys.cpp      ****         // oscFreq = 277.18f; //C#
 1922              		.loc 10 228 9 is_stmt 1 view .LVU547
 228:keys.cpp      ****         // oscFreq = 277.18f; //C#
 1923              		.loc 10 228 27 is_stmt 0 view .LVU548
 1924 022e 2549     		ldr	r1, .L96+60
 1925 0230 9FED307A 		vldr.32	s14, .L96+108
 1926 0234 D1ED007A 		vldr.32	s15, [r1]
 1927              	.LBB433:
 1928              	.LBB434:
  64:../DaisyExamples/DaisySP/Source/Control/adenv.h ****     /** Sets the length of time (in seconds) for a specific segment. */
 1929              		.loc 1 64 38 view .LVU549
 1930 0238 0121     		movs	r1, #1
 1931              	.LBE434:
 1932              	.LBE433:
 228:keys.cpp      ****         // oscFreq = 277.18f; //C#
ARM GAS  /var/folders/7c/668hyr3s7rlgsbdftclf3hsr0000gn/T//ccVahvvy.s 			page 55


 1933              		.loc 10 228 17 view .LVU550
 1934 023a 244B     		ldr	r3, .L96+68
 228:keys.cpp      ****         // oscFreq = 277.18f; //C#
 1935              		.loc 10 228 27 view .LVU551
 1936 023c 67EE877A 		vmul.f32	s15, s15, s14
 1937              	.LBB437:
 1938              	.LBB435:
  64:../DaisyExamples/DaisySP/Source/Control/adenv.h ****     /** Sets the length of time (in seconds) for a specific segment. */
 1939              		.loc 1 64 38 view .LVU552
 1940 0240 234A     		ldr	r2, .L96+72
 1941 0242 82F83410 		strb	r1, [r2, #52]
 1942              	.LBE435:
 1943              	.LBE437:
 228:keys.cpp      ****         // oscFreq = 277.18f; //C#
 1944              		.loc 10 228 17 view .LVU553
 1945 0246 C3ED007A 		vstr.32	s15, [r3]
 230:keys.cpp      ****         // hw.SetLed(true);
 1946              		.loc 10 230 9 is_stmt 1 view .LVU554
 1947              	.LVL151:
 1948              	.LBB438:
 1949              	.LBI433:
  64:../DaisyExamples/DaisySP/Source/Control/adenv.h ****     /** Sets the length of time (in seconds) for a specific segment. */
 1950              		.loc 1 64 17 view .LVU555
 1951              	.LBB436:
  64:../DaisyExamples/DaisySP/Source/Control/adenv.h ****     /** Sets the length of time (in seconds) for a specific segment. */
 1952              		.loc 1 64 29 view .LVU556
  64:../DaisyExamples/DaisySP/Source/Control/adenv.h ****     /** Sets the length of time (in seconds) for a specific segment. */
 1953              		.loc 1 64 43 is_stmt 0 view .LVU557
 1954 024a 31E7     		b	.L26
 1955              	.LVL152:
 1956              	.L86:
  64:../DaisyExamples/DaisySP/Source/Control/adenv.h ****     /** Sets the length of time (in seconds) for a specific segment. */
 1957              		.loc 1 64 43 view .LVU558
 1958              	.LBE436:
 1959              	.LBE438:
 221:keys.cpp      ****         ad.Trigger();
 1960              		.loc 10 221 9 is_stmt 1 view .LVU559
 221:keys.cpp      ****         ad.Trigger();
 1961              		.loc 10 221 27 is_stmt 0 view .LVU560
 1962 024c 1D49     		ldr	r1, .L96+60
 1963 024e 9FED2A7A 		vldr.32	s14, .L96+112
 1964 0252 D1ED007A 		vldr.32	s15, [r1]
 1965              	.LBB439:
 1966              	.LBB440:
  64:../DaisyExamples/DaisySP/Source/Control/adenv.h ****     /** Sets the length of time (in seconds) for a specific segment. */
 1967              		.loc 1 64 38 view .LVU561
 1968 0256 0121     		movs	r1, #1
 1969              	.LBE440:
 1970              	.LBE439:
 221:keys.cpp      ****         ad.Trigger();
 1971              		.loc 10 221 17 view .LVU562
 1972 0258 1C4B     		ldr	r3, .L96+68
 221:keys.cpp      ****         ad.Trigger();
 1973              		.loc 10 221 27 view .LVU563
 1974 025a 67EE877A 		vmul.f32	s15, s15, s14
 1975              	.LBB443:
 1976              	.LBB441:
ARM GAS  /var/folders/7c/668hyr3s7rlgsbdftclf3hsr0000gn/T//ccVahvvy.s 			page 56


  64:../DaisyExamples/DaisySP/Source/Control/adenv.h ****     /** Sets the length of time (in seconds) for a specific segment. */
 1977              		.loc 1 64 38 view .LVU564
 1978 025e 1C4A     		ldr	r2, .L96+72
 1979 0260 82F83410 		strb	r1, [r2, #52]
 1980              	.LBE441:
 1981              	.LBE443:
 221:keys.cpp      ****         ad.Trigger();
 1982              		.loc 10 221 17 view .LVU565
 1983 0264 C3ED007A 		vstr.32	s15, [r3]
 222:keys.cpp      ****         // hw.SetLed(true);
 1984              		.loc 10 222 9 is_stmt 1 view .LVU566
 1985              	.LVL153:
 1986              	.LBB444:
 1987              	.LBI439:
  64:../DaisyExamples/DaisySP/Source/Control/adenv.h ****     /** Sets the length of time (in seconds) for a specific segment. */
 1988              		.loc 1 64 17 view .LVU567
 1989              	.LBB442:
  64:../DaisyExamples/DaisySP/Source/Control/adenv.h ****     /** Sets the length of time (in seconds) for a specific segment. */
 1990              		.loc 1 64 29 view .LVU568
  64:../DaisyExamples/DaisySP/Source/Control/adenv.h ****     /** Sets the length of time (in seconds) for a specific segment. */
 1991              		.loc 1 64 43 is_stmt 0 view .LVU569
 1992 0268 1BE7     		b	.L25
 1993              	.LVL154:
 1994              	.L85:
  64:../DaisyExamples/DaisySP/Source/Control/adenv.h ****     /** Sets the length of time (in seconds) for a specific segment. */
 1995              		.loc 1 64 43 view .LVU570
 1996              	.LBE442:
 1997              	.LBE444:
 213:keys.cpp      ****         // oscFreq = 277.18f; //C#
 1998              		.loc 10 213 9 is_stmt 1 view .LVU571
 213:keys.cpp      ****         // oscFreq = 277.18f; //C#
 1999              		.loc 10 213 27 is_stmt 0 view .LVU572
 2000 026a 1649     		ldr	r1, .L96+60
 2001 026c 9FED237A 		vldr.32	s14, .L96+116
 2002 0270 D1ED007A 		vldr.32	s15, [r1]
 2003              	.LBB445:
 2004              	.LBB446:
  64:../DaisyExamples/DaisySP/Source/Control/adenv.h ****     /** Sets the length of time (in seconds) for a specific segment. */
 2005              		.loc 1 64 38 view .LVU573
 2006 0274 0121     		movs	r1, #1
 2007              	.LBE446:
 2008              	.LBE445:
 213:keys.cpp      ****         // oscFreq = 277.18f; //C#
 2009              		.loc 10 213 17 view .LVU574
 2010 0276 154B     		ldr	r3, .L96+68
 213:keys.cpp      ****         // oscFreq = 277.18f; //C#
 2011              		.loc 10 213 27 view .LVU575
 2012 0278 67EE877A 		vmul.f32	s15, s15, s14
 2013              	.LBB449:
 2014              	.LBB447:
  64:../DaisyExamples/DaisySP/Source/Control/adenv.h ****     /** Sets the length of time (in seconds) for a specific segment. */
 2015              		.loc 1 64 38 view .LVU576
 2016 027c 144A     		ldr	r2, .L96+72
 2017 027e 82F83410 		strb	r1, [r2, #52]
 2018              	.LBE447:
 2019              	.LBE449:
 213:keys.cpp      ****         // oscFreq = 277.18f; //C#
ARM GAS  /var/folders/7c/668hyr3s7rlgsbdftclf3hsr0000gn/T//ccVahvvy.s 			page 57


 2020              		.loc 10 213 17 view .LVU577
 2021 0282 C3ED007A 		vstr.32	s15, [r3]
 215:keys.cpp      ****         // hw.SetLed(true);
 2022              		.loc 10 215 9 is_stmt 1 view .LVU578
 2023              	.LVL155:
 2024              	.LBB450:
 2025              	.LBI445:
  64:../DaisyExamples/DaisySP/Source/Control/adenv.h ****     /** Sets the length of time (in seconds) for a specific segment. */
 2026              		.loc 1 64 17 view .LVU579
 2027              	.LBB448:
  64:../DaisyExamples/DaisySP/Source/Control/adenv.h ****     /** Sets the length of time (in seconds) for a specific segment. */
 2028              		.loc 1 64 29 view .LVU580
  64:../DaisyExamples/DaisySP/Source/Control/adenv.h ****     /** Sets the length of time (in seconds) for a specific segment. */
 2029              		.loc 1 64 43 is_stmt 0 view .LVU581
 2030 0286 05E7     		b	.L24
 2031              	.L97:
 2032              		.align	2
 2033              	.L96:
 2034 0288 00000000 		.word	.LANCHOR20
 2035 028c 00000000 		.word	.LANCHOR19
 2036 0290 00000000 		.word	.LANCHOR18
 2037 0294 00000000 		.word	.LANCHOR17
 2038 0298 00000000 		.word	.LANCHOR16
 2039 029c 00000000 		.word	.LANCHOR15
 2040 02a0 00000000 		.word	.LANCHOR14
 2041 02a4 00000000 		.word	.LANCHOR13
 2042 02a8 00000000 		.word	.LANCHOR12
 2043 02ac 00000000 		.word	.LANCHOR11
 2044 02b0 00000000 		.word	.LANCHOR10
 2045 02b4 00000000 		.word	.LANCHOR21
 2046 02b8 00000000 		.word	.LANCHOR9
 2047 02bc 00000000 		.word	.LANCHOR8
 2048 02c0 00000000 		.word	.LANCHOR22
 2049 02c4 00000000 		.word	.LANCHOR5
 2050 02c8 00D00244 		.word	1141035008
 2051 02cc 00000000 		.word	.LANCHOR1
 2052 02d0 00000000 		.word	.LANCHOR0
 2053 02d4 A4F0F643 		.word	1140256932
 2054 02d8 7B14E943 		.word	1139348603
 2055 02dc 0000DC43 		.word	1138491392
 2056 02e0 66A6CF43 		.word	1137682022
 2057 02e4 0000C443 		.word	1136918528
 2058 02e8 B8FEB843 		.word	1136197304
 2059 02ec 719DAE43 		.word	1135517041
 2060 02f0 A4D0A443 		.word	1134874788
 2061 02f4 A4909B43 		.word	1134268580
 2062 02f8 7BD49243 		.word	1133696123
 2063 02fc 0A978A43 		.word	1133156106
 2064              	.LVL156:
 2065              	.L84:
  64:../DaisyExamples/DaisySP/Source/Control/adenv.h ****     /** Sets the length of time (in seconds) for a specific segment. */
 2066              		.loc 1 64 43 view .LVU582
 2067              	.LBE448:
 2068              	.LBE450:
 206:keys.cpp      ****         ad.Trigger();
 2069              		.loc 10 206 9 is_stmt 1 view .LVU583
 206:keys.cpp      ****         ad.Trigger();
ARM GAS  /var/folders/7c/668hyr3s7rlgsbdftclf3hsr0000gn/T//ccVahvvy.s 			page 58


 2070              		.loc 10 206 27 is_stmt 0 view .LVU584
 2071 0300 1049     		ldr	r1, .L98
 2072 0302 9FED117A 		vldr.32	s14, .L98+4
 2073 0306 D1ED007A 		vldr.32	s15, [r1]
 2074              	.LBB451:
 2075              	.LBB452:
  64:../DaisyExamples/DaisySP/Source/Control/adenv.h ****     /** Sets the length of time (in seconds) for a specific segment. */
 2076              		.loc 1 64 38 view .LVU585
 2077 030a 0121     		movs	r1, #1
 2078              	.LBE452:
 2079              	.LBE451:
 206:keys.cpp      ****         ad.Trigger();
 2080              		.loc 10 206 17 view .LVU586
 2081 030c 0F4B     		ldr	r3, .L98+8
 206:keys.cpp      ****         ad.Trigger();
 2082              		.loc 10 206 27 view .LVU587
 2083 030e 67EE877A 		vmul.f32	s15, s15, s14
 2084              	.LBB455:
 2085              	.LBB453:
  64:../DaisyExamples/DaisySP/Source/Control/adenv.h ****     /** Sets the length of time (in seconds) for a specific segment. */
 2086              		.loc 1 64 38 view .LVU588
 2087 0312 0F4A     		ldr	r2, .L98+12
 2088 0314 82F83410 		strb	r1, [r2, #52]
 2089              	.LBE453:
 2090              	.LBE455:
 206:keys.cpp      ****         ad.Trigger();
 2091              		.loc 10 206 17 view .LVU589
 2092 0318 C3ED007A 		vstr.32	s15, [r3]
 207:keys.cpp      ****         // hw.SetLed(true);
 2093              		.loc 10 207 9 is_stmt 1 view .LVU590
 2094              	.LVL157:
 2095              	.LBB456:
 2096              	.LBI451:
  64:../DaisyExamples/DaisySP/Source/Control/adenv.h ****     /** Sets the length of time (in seconds) for a specific segment. */
 2097              		.loc 1 64 17 view .LVU591
 2098              	.LBB454:
  64:../DaisyExamples/DaisySP/Source/Control/adenv.h ****     /** Sets the length of time (in seconds) for a specific segment. */
 2099              		.loc 1 64 29 view .LVU592
  64:../DaisyExamples/DaisySP/Source/Control/adenv.h ****     /** Sets the length of time (in seconds) for a specific segment. */
 2100              		.loc 1 64 43 is_stmt 0 view .LVU593
 2101 031c B3E6     		b	.L23
 2102              	.LVL158:
 2103              	.L83:
  64:../DaisyExamples/DaisySP/Source/Control/adenv.h ****     /** Sets the length of time (in seconds) for a specific segment. */
 2104              		.loc 1 64 43 view .LVU594
 2105              	.LBE454:
 2106              	.LBE456:
 199:keys.cpp      **** 
 2107              		.loc 10 199 9 is_stmt 1 view .LVU595
 199:keys.cpp      **** 
 2108              		.loc 10 199 16 is_stmt 0 view .LVU596
 2109 031e 094B     		ldr	r3, .L98
 199:keys.cpp      **** 
 2110              		.loc 10 199 25 view .LVU597
 2111 0320 B6EE007A 		vmov.f32	s14, #5.0e-1
 2112 0324 D3ED007A 		vldr.32	s15, [r3]
 2113 0328 67EE877A 		vmul.f32	s15, s15, s14
ARM GAS  /var/folders/7c/668hyr3s7rlgsbdftclf3hsr0000gn/T//ccVahvvy.s 			page 59


 199:keys.cpp      **** 
 2114              		.loc 10 199 16 view .LVU598
 2115 032c C3ED007A 		vstr.32	s15, [r3]
 2116 0330 A2E6     		b	.L22
 2117              	.L82:
 193:keys.cpp      ****         // hw.SetLed(true);
 2118              		.loc 10 193 9 is_stmt 1 view .LVU599
 193:keys.cpp      ****         // hw.SetLed(true);
 2119              		.loc 10 193 16 is_stmt 0 view .LVU600
 2120 0332 044B     		ldr	r3, .L98
 193:keys.cpp      ****         // hw.SetLed(true);
 2121              		.loc 10 193 25 view .LVU601
 2122 0334 D3ED007A 		vldr.32	s15, [r3]
 2123 0338 77EEA77A 		vadd.f32	s15, s15, s15
 193:keys.cpp      ****         // hw.SetLed(true);
 2124              		.loc 10 193 16 view .LVU602
 2125 033c C3ED007A 		vstr.32	s15, [r3]
 2126 0340 93E6     		b	.L21
 2127              	.L99:
 2128 0342 00BF     		.align	2
 2129              	.L98:
 2130 0344 00000000 		.word	.LANCHOR5
 2131 0348 A4D08243 		.word	1132646564
 2132 034c 00000000 		.word	.LANCHOR1
 2133 0350 00000000 		.word	.LANCHOR0
 2134              		.cfi_endproc
 2135              	.LFE4685:
 2137              		.section	.text._ZL13AudioCallbackPKfPfj,"ax",%progbits
 2138              		.align	1
 2139              		.p2align 2,,3
 2140              		.syntax unified
 2141              		.thumb
 2142              		.thumb_func
 2144              	_ZL13AudioCallbackPKfPfj:
 2145              	.LVL159:
 2146              	.LFB4683:
  62:keys.cpp      ****     Controls();
 2147              		.loc 10 62 1 is_stmt 1 view -0
 2148              		.cfi_startproc
 2149              		@ args = 0, pretend = 0, frame = 32
 2150              		@ frame_needed = 0, uses_anonymous_args = 0
  63:keys.cpp      **** 
 2151              		.loc 10 63 5 view .LVU604
 2152              	.LBB457:
 2153              	.LBI457:
 301:keys.cpp      **** 
 302:keys.cpp      **** void Controls()
 2154              		.loc 10 302 6 view .LVU605
 2155              	.LBB458:
 303:keys.cpp      **** {
 304:keys.cpp      ****     // pod.ProcessAnalogControls();
 305:keys.cpp      ****     // pod.ProcessDigitalControls();
 306:keys.cpp      **** 
 307:keys.cpp      ****     // UpdateEncoder();
 308:keys.cpp      **** 
 309:keys.cpp      ****     // UpdateKnobs();
 310:keys.cpp      **** 
ARM GAS  /var/folders/7c/668hyr3s7rlgsbdftclf3hsr0000gn/T//ccVahvvy.s 			page 60


 311:keys.cpp      ****     // UpdateLeds();
 312:keys.cpp      **** 
 313:keys.cpp      ****     UpdateButtons();
 2156              		.loc 10 313 5 view .LVU606
 2157              	.LBE458:
 2158              	.LBE457:
  62:keys.cpp      ****     Controls();
 2159              		.loc 10 62 1 is_stmt 0 view .LVU607
 2160 0000 2DE9F043 		push	{r4, r5, r6, r7, r8, r9, lr}
 2161              		.cfi_def_cfa_offset 28
 2162              		.cfi_offset 4, -28
 2163              		.cfi_offset 5, -24
 2164              		.cfi_offset 6, -20
 2165              		.cfi_offset 7, -16
 2166              		.cfi_offset 8, -12
 2167              		.cfi_offset 9, -8
 2168              		.cfi_offset 14, -4
 2169 0004 8DB0     		sub	sp, sp, #52
 2170              		.cfi_def_cfa_offset 80
  62:keys.cpp      ****     Controls();
 2171              		.loc 10 62 1 view .LVU608
 2172 0006 0C46     		mov	r4, r1
 2173 0008 1646     		mov	r6, r2
 2174              	.LBB460:
 2175              	.LBB459:
 2176              		.loc 10 313 18 view .LVU609
 2177 000a FFF7FEFF 		bl	_Z13UpdateButtonsv
 2178              	.LVL160:
 2179              		.loc 10 313 18 view .LVU610
 2180              	.LBE459:
 2181              	.LBE460:
  65:keys.cpp      ****     float pot_val_2 = pot2.Process(); //pot 2 val
 2182              		.loc 10 65 5 is_stmt 1 view .LVU611
  65:keys.cpp      ****     float pot_val_2 = pot2.Process(); //pot 2 val
 2183              		.loc 10 65 35 is_stmt 0 view .LVU612
 2184 000e 1748     		ldr	r0, .L108
 2185 0010 FFF7FEFF 		bl	_ZN5daisy13AnalogControl7ProcessEv
 2186              	.LVL161:
  66:keys.cpp      ****     float pot_val_3 = pot3.Process(); //pot 3 val
 2187              		.loc 10 66 35 view .LVU613
 2188 0014 1648     		ldr	r0, .L108+4
  65:keys.cpp      ****     float pot_val_2 = pot2.Process(); //pot 2 val
 2189              		.loc 10 65 36 view .LVU614
 2190 0016 8DED050A 		vstr.32	s0, [sp, #20]
  66:keys.cpp      ****     float pot_val_3 = pot3.Process(); //pot 3 val
 2191              		.loc 10 66 5 is_stmt 1 view .LVU615
  66:keys.cpp      ****     float pot_val_3 = pot3.Process(); //pot 3 val
 2192              		.loc 10 66 35 is_stmt 0 view .LVU616
 2193 001a FFF7FEFF 		bl	_ZN5daisy13AnalogControl7ProcessEv
 2194              	.LVL162:
  67:keys.cpp      **** 
 2195              		.loc 10 67 35 view .LVU617
 2196 001e 1548     		ldr	r0, .L108+8
  66:keys.cpp      ****     float pot_val_3 = pot3.Process(); //pot 3 val
 2197              		.loc 10 66 36 view .LVU618
 2198 0020 8DED060A 		vstr.32	s0, [sp, #24]
  67:keys.cpp      **** 
ARM GAS  /var/folders/7c/668hyr3s7rlgsbdftclf3hsr0000gn/T//ccVahvvy.s 			page 61


 2199              		.loc 10 67 5 is_stmt 1 view .LVU619
  67:keys.cpp      **** 
 2200              		.loc 10 67 35 is_stmt 0 view .LVU620
 2201 0024 FFF7FEFF 		bl	_ZN5daisy13AnalogControl7ProcessEv
 2202              	.LVL163:
  67:keys.cpp      **** 
 2203              		.loc 10 67 36 view .LVU621
 2204 0028 8DED070A 		vstr.32	s0, [sp, #28]
  70:keys.cpp      ****     {
 2205              		.loc 10 70 5 is_stmt 1 view .LVU622
 2206              	.LVL164:
 2207              	.LBB461:
  70:keys.cpp      ****     {
 2208              		.loc 10 70 25 view .LVU623
 2209 002c D6B1     		cbz	r6, .L100
 2210 002e 013E     		subs	r6, r6, #1
 2211              	.LVL165:
  70:keys.cpp      ****     {
 2212              		.loc 10 70 25 is_stmt 0 view .LVU624
 2213 0030 0025     		movs	r5, #0
 2214 0032 0DF11C09 		add	r9, sp, #28
 2215 0036 0DF11808 		add	r8, sp, #24
 2216 003a 7608     		lsrs	r6, r6, #1
 2217              	.LVL166:
  70:keys.cpp      ****     {
 2218              		.loc 10 70 25 view .LVU625
 2219 003c 05AF     		add	r7, sp, #20
 2220              	.LVL167:
 2221              	.L102:
 2222              	.LBB462:
  72:keys.cpp      ****         float sig1;
 2223              		.loc 10 72 9 is_stmt 1 discriminator 2 view .LVU626
  73:keys.cpp      ****         float sig2;
 2224              		.loc 10 73 9 discriminator 2 view .LVU627
  74:keys.cpp      ****         float sig3;
 2225              		.loc 10 74 9 discriminator 2 view .LVU628
  75:keys.cpp      ****         NextSamples(sig, sig1, sig2, sig3, pot_val_1, pot_val_2, pot_val_3);
 2226              		.loc 10 75 9 discriminator 2 view .LVU629
  76:keys.cpp      **** 
 2227              		.loc 10 76 9 discriminator 2 view .LVU630
  76:keys.cpp      **** 
 2228              		.loc 10 76 20 is_stmt 0 discriminator 2 view .LVU631
 2229 003e 0AAA     		add	r2, sp, #40
 2230 0040 0BAB     		add	r3, sp, #44
 2231 0042 09A9     		add	r1, sp, #36
 2232 0044 08A8     		add	r0, sp, #32
 2233 0046 0097     		str	r7, [sp]
 2234              	.LBE462:
  70:keys.cpp      ****     {
 2235              		.loc 10 70 25 discriminator 2 view .LVU632
 2236 0048 0834     		adds	r4, r4, #8
 2237              	.LBB463:
  76:keys.cpp      **** 
 2238              		.loc 10 76 20 discriminator 2 view .LVU633
 2239 004a CDE90189 		strd	r8, r9, [sp, #4]
 2240 004e FFF7FEFF 		bl	_Z11NextSamplesRfS_S_S_S_S_S_
 2241              	.LVL168:
ARM GAS  /var/folders/7c/668hyr3s7rlgsbdftclf3hsr0000gn/T//ccVahvvy.s 			page 62


  79:keys.cpp      **** 
 2242              		.loc 10 79 9 is_stmt 1 discriminator 2 view .LVU634
  79:keys.cpp      **** 
 2243              		.loc 10 79 16 is_stmt 0 discriminator 2 view .LVU635
 2244 0052 089A     		ldr	r2, [sp, #32]	@ float
 2245              	.LBE463:
  70:keys.cpp      ****     {
 2246              		.loc 10 70 25 discriminator 2 view .LVU636
 2247 0054 AE42     		cmp	r6, r5
 2248 0056 05F10105 		add	r5, r5, #1
 2249              	.LVL169:
 2250              	.LBB464:
  79:keys.cpp      **** 
 2251              		.loc 10 79 16 discriminator 2 view .LVU637
 2252 005a 44F8082C 		str	r2, [r4, #-8]	@ float
  82:keys.cpp      ****     }
 2253              		.loc 10 82 9 is_stmt 1 discriminator 2 view .LVU638
  82:keys.cpp      ****     }
 2254              		.loc 10 82 20 is_stmt 0 discriminator 2 view .LVU639
 2255 005e 44F8042C 		str	r2, [r4, #-4]	@ float
 2256              	.LBE464:
  70:keys.cpp      ****     {
 2257              		.loc 10 70 5 is_stmt 1 discriminator 2 view .LVU640
 2258              	.LVL170:
  70:keys.cpp      ****     {
 2259              		.loc 10 70 25 discriminator 2 view .LVU641
 2260 0062 ECD1     		bne	.L102
 2261              	.L100:
 2262              	.LBE461:
  84:keys.cpp      **** 
 2263              		.loc 10 84 1 is_stmt 0 view .LVU642
 2264 0064 0DB0     		add	sp, sp, #52
 2265              		.cfi_def_cfa_offset 28
 2266              		@ sp needed
 2267 0066 BDE8F083 		pop	{r4, r5, r6, r7, r8, r9, pc}
 2268              	.L109:
 2269 006a 00BF     		.align	2
 2270              	.L108:
 2271 006c 00000000 		.word	.LANCHOR23
 2272 0070 00000000 		.word	.LANCHOR24
 2273 0074 00000000 		.word	.LANCHOR25
 2274              		.cfi_endproc
 2275              	.LFE4683:
 2277              		.section	.text._Z8Controlsv,"ax",%progbits
 2278              		.align	1
 2279              		.p2align 2,,3
 2280              		.global	_Z8Controlsv
 2281              		.syntax unified
 2282              		.thumb
 2283              		.thumb_func
 2285              	_Z8Controlsv:
 2286              	.LFB4686:
 303:keys.cpp      ****     // pod.ProcessAnalogControls();
 2287              		.loc 10 303 1 is_stmt 1 view -0
 2288              		.cfi_startproc
 2289              		@ args = 0, pretend = 0, frame = 0
 2290              		@ frame_needed = 0, uses_anonymous_args = 0
ARM GAS  /var/folders/7c/668hyr3s7rlgsbdftclf3hsr0000gn/T//ccVahvvy.s 			page 63


 2291              		@ link register save eliminated.
 2292              		.loc 10 313 5 view .LVU644
 2293              		.loc 10 313 18 is_stmt 0 view .LVU645
 2294 0000 FFF7FEBF 		b	_Z13UpdateButtonsv
 2295              	.LVL171:
 2296              		.cfi_endproc
 2297              	.LFE4686:
 2299              		.section	.text.startup._GLOBAL__sub_I_mode,"ax",%progbits
 2300              		.align	1
 2301              		.p2align 2,,3
 2302              		.syntax unified
 2303              		.thumb
 2304              		.thumb_func
 2306              	_GLOBAL__sub_I_mode:
 2307              	.LFB5249:
 314:keys.cpp      **** }...
 2308              		.loc 10 314 1 is_stmt 1 view -0
 2309              		.cfi_startproc
 2310              		@ args = 0, pretend = 0, frame = 0
 2311              		@ frame_needed = 0, uses_anonymous_args = 0
 2312              	.LBB530:
 2313              	.LBI530:
 2314              		.loc 10 314 1 view .LVU647
 2315              	.LVL172:
 2316              	.LBB531:
 2317              	.LBB532:
 2318              	.LBI532:
  21:../DaisyExamples/libDaisy/src/daisy_seed.h ****     ~DaisySeed() {}
 2319              		.loc 5 21 5 view .LVU648
 2320              	.LBB533:
 2321              	.LBB534:
 2322              	.LBI534:
 2323              		.file 11 "../DaisyExamples/libDaisy/src/per/qspi.h"
   1:../DaisyExamples/libDaisy/src/per/qspi.h **** #ifndef DSY_QSPI
   2:../DaisyExamples/libDaisy/src/per/qspi.h **** #define DSY_QSPI /**< Macro */
   3:../DaisyExamples/libDaisy/src/per/qspi.h **** 
   4:../DaisyExamples/libDaisy/src/per/qspi.h **** #ifndef UNIT_TEST // for unit tests, a dummy implementation
   5:../DaisyExamples/libDaisy/src/per/qspi.h **** 
   6:../DaisyExamples/libDaisy/src/per/qspi.h **** #include <cstdint>
   7:../DaisyExamples/libDaisy/src/per/qspi.h **** #include "daisy_core.h" // Added for dsy_gpio_pin typedef
   8:../DaisyExamples/libDaisy/src/per/qspi.h **** 
   9:../DaisyExamples/libDaisy/src/per/qspi.h **** #define DSY_QSPI_TEXT       \
  10:../DaisyExamples/libDaisy/src/per/qspi.h ****     __attribute__((section( \
  11:../DaisyExamples/libDaisy/src/per/qspi.h ****         ".qspiflash_text"))) /**< used for reading memory in memory_mapped mode. */
  12:../DaisyExamples/libDaisy/src/per/qspi.h **** #define DSY_QSPI_DATA       \
  13:../DaisyExamples/libDaisy/src/per/qspi.h ****     __attribute__((section( \
  14:../DaisyExamples/libDaisy/src/per/qspi.h ****         ".qspiflash_data"))) /**< used for reading memory in memory_mapped mode. */
  15:../DaisyExamples/libDaisy/src/per/qspi.h **** #define DSY_QSPI_BSS        \
  16:../DaisyExamples/libDaisy/src/per/qspi.h ****     __attribute__((section( \
  17:../DaisyExamples/libDaisy/src/per/qspi.h ****         ".qspiflash_bss"))) /**< used for reading memory in memory_mapped mode. */
  18:../DaisyExamples/libDaisy/src/per/qspi.h **** 
  19:../DaisyExamples/libDaisy/src/per/qspi.h **** namespace daisy
  20:../DaisyExamples/libDaisy/src/per/qspi.h **** {
  21:../DaisyExamples/libDaisy/src/per/qspi.h **** /** @addtogroup serial
  22:../DaisyExamples/libDaisy/src/per/qspi.h **** @{
  23:../DaisyExamples/libDaisy/src/per/qspi.h **** */
  24:../DaisyExamples/libDaisy/src/per/qspi.h **** 
ARM GAS  /var/folders/7c/668hyr3s7rlgsbdftclf3hsr0000gn/T//ccVahvvy.s 			page 64


  25:../DaisyExamples/libDaisy/src/per/qspi.h **** /** 
  26:../DaisyExamples/libDaisy/src/per/qspi.h ****  Driver for QSPI peripheral to interface with external flash memory. \n 
  27:../DaisyExamples/libDaisy/src/per/qspi.h ****     Currently supported QSPI Devices: \n 
  28:../DaisyExamples/libDaisy/src/per/qspi.h ****     * IS25LP080D
  29:../DaisyExamples/libDaisy/src/per/qspi.h **** */
  30:../DaisyExamples/libDaisy/src/per/qspi.h **** class QSPIHandle
  31:../DaisyExamples/libDaisy/src/per/qspi.h **** {
  32:../DaisyExamples/libDaisy/src/per/qspi.h ****   public:
  33:../DaisyExamples/libDaisy/src/per/qspi.h ****     enum Result
  34:../DaisyExamples/libDaisy/src/per/qspi.h ****     {
  35:../DaisyExamples/libDaisy/src/per/qspi.h ****         OK = 0,
  36:../DaisyExamples/libDaisy/src/per/qspi.h ****         ERR
  37:../DaisyExamples/libDaisy/src/per/qspi.h ****     };
  38:../DaisyExamples/libDaisy/src/per/qspi.h **** 
  39:../DaisyExamples/libDaisy/src/per/qspi.h ****     /** Indicates the current status of the module. 
  40:../DaisyExamples/libDaisy/src/per/qspi.h ****          *  Warnings are indicated by a leading W.
  41:../DaisyExamples/libDaisy/src/per/qspi.h ****          *  Errors are indicated by a leading E and cause an immediate exit.
  42:../DaisyExamples/libDaisy/src/per/qspi.h ****          * 
  43:../DaisyExamples/libDaisy/src/per/qspi.h ****          *  \param GOOD - No errors have been reported.
  44:../DaisyExamples/libDaisy/src/per/qspi.h ****          *  \param E_HAL_ERROR - HAL code did not return HAL_OK.
  45:../DaisyExamples/libDaisy/src/per/qspi.h ****          *  \param E_SWITCHING_MODES - An error was encountered while switching QSPI peripheral mod
  46:../DaisyExamples/libDaisy/src/per/qspi.h ****          *  \param E_INVALID_MODE - QSPI should not be written to while the program is executing fr
  47:../DaisyExamples/libDaisy/src/per/qspi.h ****          */
  48:../DaisyExamples/libDaisy/src/per/qspi.h ****     enum Status
  49:../DaisyExamples/libDaisy/src/per/qspi.h ****     {
  50:../DaisyExamples/libDaisy/src/per/qspi.h ****         GOOD = 0,
  51:../DaisyExamples/libDaisy/src/per/qspi.h ****         E_HAL_ERROR,
  52:../DaisyExamples/libDaisy/src/per/qspi.h ****         E_SWITCHING_MODES,
  53:../DaisyExamples/libDaisy/src/per/qspi.h ****         E_INVALID_MODE,
  54:../DaisyExamples/libDaisy/src/per/qspi.h ****     };
  55:../DaisyExamples/libDaisy/src/per/qspi.h **** 
  56:../DaisyExamples/libDaisy/src/per/qspi.h ****     /** Configuration structure for interfacing with QSPI Driver */
  57:../DaisyExamples/libDaisy/src/per/qspi.h ****     struct Config
  58:../DaisyExamples/libDaisy/src/per/qspi.h ****     {
  59:../DaisyExamples/libDaisy/src/per/qspi.h ****         /** Flash Devices supported. (Both of these are more-or-less the same, just different sizes
  60:../DaisyExamples/libDaisy/src/per/qspi.h ****         enum Device
  61:../DaisyExamples/libDaisy/src/per/qspi.h ****         {
  62:../DaisyExamples/libDaisy/src/per/qspi.h ****             IS25LP080D,  /**< & */
  63:../DaisyExamples/libDaisy/src/per/qspi.h ****             IS25LP064A,  /**< & */
  64:../DaisyExamples/libDaisy/src/per/qspi.h ****             DEVICE_LAST, /**< & */
  65:../DaisyExamples/libDaisy/src/per/qspi.h ****         };
  66:../DaisyExamples/libDaisy/src/per/qspi.h **** 
  67:../DaisyExamples/libDaisy/src/per/qspi.h ****         /** 
  68:../DaisyExamples/libDaisy/src/per/qspi.h ****         Modes of operation.
  69:../DaisyExamples/libDaisy/src/per/qspi.h ****         Memory Mapped mode: QSPI configured so that the QSPI can be
  70:../DaisyExamples/libDaisy/src/per/qspi.h ****         read from starting address 0x90000000. Writing is not
  71:../DaisyExamples/libDaisy/src/per/qspi.h ****         possible in this mode. \n 
  72:../DaisyExamples/libDaisy/src/per/qspi.h ****         Indirect Polling mode: Device driver enabled. 
  73:../DaisyExamples/libDaisy/src/per/qspi.h ****         */
  74:../DaisyExamples/libDaisy/src/per/qspi.h ****         enum Mode
  75:../DaisyExamples/libDaisy/src/per/qspi.h ****         {
  76:../DaisyExamples/libDaisy/src/per/qspi.h ****             MEMORY_MAPPED,    /**< & */
  77:../DaisyExamples/libDaisy/src/per/qspi.h ****             INDIRECT_POLLING, /**< & */
  78:../DaisyExamples/libDaisy/src/per/qspi.h ****             MODE_LAST,
  79:../DaisyExamples/libDaisy/src/per/qspi.h ****         };
  80:../DaisyExamples/libDaisy/src/per/qspi.h **** 
  81:../DaisyExamples/libDaisy/src/per/qspi.h ****         //SCK,  CE# (active low)
ARM GAS  /var/folders/7c/668hyr3s7rlgsbdftclf3hsr0000gn/T//ccVahvvy.s 			page 65


  82:../DaisyExamples/libDaisy/src/per/qspi.h ****         struct
  83:../DaisyExamples/libDaisy/src/per/qspi.h ****         {
  84:../DaisyExamples/libDaisy/src/per/qspi.h ****             dsy_gpio_pin io0; /**< & */
  85:../DaisyExamples/libDaisy/src/per/qspi.h ****             dsy_gpio_pin io1; /**< & */
  86:../DaisyExamples/libDaisy/src/per/qspi.h ****             dsy_gpio_pin io2; /**< & */
  87:../DaisyExamples/libDaisy/src/per/qspi.h ****             dsy_gpio_pin io3; /**< & */
  88:../DaisyExamples/libDaisy/src/per/qspi.h ****             dsy_gpio_pin clk; /**< & */
  89:../DaisyExamples/libDaisy/src/per/qspi.h ****             dsy_gpio_pin ncs; /**< & */
  90:../DaisyExamples/libDaisy/src/per/qspi.h ****         } pin_config;
  91:../DaisyExamples/libDaisy/src/per/qspi.h **** 
  92:../DaisyExamples/libDaisy/src/per/qspi.h ****         Device device;
  93:../DaisyExamples/libDaisy/src/per/qspi.h ****         Mode   mode;
  94:../DaisyExamples/libDaisy/src/per/qspi.h ****     };
  95:../DaisyExamples/libDaisy/src/per/qspi.h **** 
  96:../DaisyExamples/libDaisy/src/per/qspi.h ****     /** 
  97:../DaisyExamples/libDaisy/src/per/qspi.h ****         Initializes QSPI peripheral, and Resets, and prepares memory for access.
  98:../DaisyExamples/libDaisy/src/per/qspi.h ****         \param config should be populated with the mode, device and pin_config before calling this 
  99:../DaisyExamples/libDaisy/src/per/qspi.h ****         \return Result::OK or Result::ERR
 100:../DaisyExamples/libDaisy/src/per/qspi.h ****         */
 101:../DaisyExamples/libDaisy/src/per/qspi.h ****     Result Init(const Config& config);
 102:../DaisyExamples/libDaisy/src/per/qspi.h **** 
 103:../DaisyExamples/libDaisy/src/per/qspi.h ****     /** Returns the current config. */
 104:../DaisyExamples/libDaisy/src/per/qspi.h ****     const Config& GetConfig() const;
 105:../DaisyExamples/libDaisy/src/per/qspi.h **** 
 106:../DaisyExamples/libDaisy/src/per/qspi.h ****     // Couldn't this just be called before anything else in init? That
 107:../DaisyExamples/libDaisy/src/per/qspi.h ****     // would make manually calling it unnecessary.
 108:../DaisyExamples/libDaisy/src/per/qspi.h ****     /** 
 109:../DaisyExamples/libDaisy/src/per/qspi.h ****         Deinitializes the peripheral
 110:../DaisyExamples/libDaisy/src/per/qspi.h ****         This should be called before reinitializing QSPI in a different mode.
 111:../DaisyExamples/libDaisy/src/per/qspi.h ****         \return Result::OK or Result::ERR
 112:../DaisyExamples/libDaisy/src/per/qspi.h ****         */
 113:../DaisyExamples/libDaisy/src/per/qspi.h ****     Result DeInit();
 114:../DaisyExamples/libDaisy/src/per/qspi.h **** 
 115:../DaisyExamples/libDaisy/src/per/qspi.h ****     /** 
 116:../DaisyExamples/libDaisy/src/per/qspi.h ****         Writes a single page to to the specified address on the QSPI chip.
 117:../DaisyExamples/libDaisy/src/per/qspi.h ****         For IS25LP*, page size is 256 bytes.
 118:../DaisyExamples/libDaisy/src/per/qspi.h ****         \param address Address to write to
 119:../DaisyExamples/libDaisy/src/per/qspi.h ****         \param size Buffer size
 120:../DaisyExamples/libDaisy/src/per/qspi.h ****         \param buffer Buffer to write
 121:../DaisyExamples/libDaisy/src/per/qspi.h ****         \return Result::OK or Result::ERR
 122:../DaisyExamples/libDaisy/src/per/qspi.h ****         */
 123:../DaisyExamples/libDaisy/src/per/qspi.h ****     Result WritePage(uint32_t address, uint32_t size, uint8_t* buffer);
 124:../DaisyExamples/libDaisy/src/per/qspi.h **** 
 125:../DaisyExamples/libDaisy/src/per/qspi.h ****     /** 
 126:../DaisyExamples/libDaisy/src/per/qspi.h ****         Writes data in buffer to to the QSPI. Starting at address to address+size 
 127:../DaisyExamples/libDaisy/src/per/qspi.h ****         \param address Address to write to
 128:../DaisyExamples/libDaisy/src/per/qspi.h ****         \param size Buffer size
 129:../DaisyExamples/libDaisy/src/per/qspi.h ****         \param buffer Buffer to write
 130:../DaisyExamples/libDaisy/src/per/qspi.h ****         \return Result::OK or Result::ERR
 131:../DaisyExamples/libDaisy/src/per/qspi.h ****         */
 132:../DaisyExamples/libDaisy/src/per/qspi.h ****     Result Write(uint32_t address, uint32_t size, uint8_t* buffer);
 133:../DaisyExamples/libDaisy/src/per/qspi.h **** 
 134:../DaisyExamples/libDaisy/src/per/qspi.h ****     /** 
 135:../DaisyExamples/libDaisy/src/per/qspi.h ****         Erases the area specified on the chip.
 136:../DaisyExamples/libDaisy/src/per/qspi.h ****         Erasures will happen by 4K, 32K or 64K increments.
 137:../DaisyExamples/libDaisy/src/per/qspi.h ****         Smallest erase possible is 4kB at a time. (on IS25LP*)
 138:../DaisyExamples/libDaisy/src/per/qspi.h ****         \param start_addr Address to begin erasing from
ARM GAS  /var/folders/7c/668hyr3s7rlgsbdftclf3hsr0000gn/T//ccVahvvy.s 			page 66


 139:../DaisyExamples/libDaisy/src/per/qspi.h ****         \param end_addr  Address to stop erasing at
 140:../DaisyExamples/libDaisy/src/per/qspi.h ****         \return Result::OK or Result::ERR
 141:../DaisyExamples/libDaisy/src/per/qspi.h ****         */
 142:../DaisyExamples/libDaisy/src/per/qspi.h ****     Result Erase(uint32_t start_addr, uint32_t end_addr);
 143:../DaisyExamples/libDaisy/src/per/qspi.h **** 
 144:../DaisyExamples/libDaisy/src/per/qspi.h ****     /**  
 145:../DaisyExamples/libDaisy/src/per/qspi.h ****          Erases a single sector of the chip.  
 146:../DaisyExamples/libDaisy/src/per/qspi.h ****         TODO: Document the size of this function. 
 147:../DaisyExamples/libDaisy/src/per/qspi.h ****         \param address Address of sector to erase
 148:../DaisyExamples/libDaisy/src/per/qspi.h ****         \return Result::OK or Result::ERR
 149:../DaisyExamples/libDaisy/src/per/qspi.h ****         */
 150:../DaisyExamples/libDaisy/src/per/qspi.h ****     Result EraseSector(uint32_t address);
 151:../DaisyExamples/libDaisy/src/per/qspi.h **** 
 152:../DaisyExamples/libDaisy/src/per/qspi.h ****     /** Returns the current class status. Useful for debugging.
 153:../DaisyExamples/libDaisy/src/per/qspi.h ****      *  \returns Status
 154:../DaisyExamples/libDaisy/src/per/qspi.h ****      */
 155:../DaisyExamples/libDaisy/src/per/qspi.h ****     Status GetStatus();
 156:../DaisyExamples/libDaisy/src/per/qspi.h **** 
 157:../DaisyExamples/libDaisy/src/per/qspi.h ****     /** Returns a pointer to the actual memory used 
 158:../DaisyExamples/libDaisy/src/per/qspi.h ****      *  The memory at this address is read-only
 159:../DaisyExamples/libDaisy/src/per/qspi.h ****      *  to write to it use the Write function.
 160:../DaisyExamples/libDaisy/src/per/qspi.h ****      * 
 161:../DaisyExamples/libDaisy/src/per/qspi.h ****      *  \param offset returns the pointer starting this 
 162:../DaisyExamples/libDaisy/src/per/qspi.h ****      *                many bytes into the memory
 163:../DaisyExamples/libDaisy/src/per/qspi.h ****     */
 164:../DaisyExamples/libDaisy/src/per/qspi.h ****     void* GetData(uint32_t offset = 0);
 165:../DaisyExamples/libDaisy/src/per/qspi.h **** 
 166:../DaisyExamples/libDaisy/src/per/qspi.h ****     QSPIHandle() : pimpl_(nullptr) {}
 2324              		.loc 11 166 5 view .LVU649
 2325              	.LBE534:
 2326              	.LBE533:
 2327              	.LBE532:
 2328              	.LBE531:
 2329              	.LBE530:
 2330              		.loc 10 314 1 is_stmt 0 view .LVU650
 2331 0000 38B5     		push	{r3, r4, r5, lr}
 2332              		.cfi_def_cfa_offset 16
 2333              		.cfi_offset 3, -16
 2334              		.cfi_offset 4, -12
 2335              		.cfi_offset 5, -8
 2336              		.cfi_offset 14, -4
 2337              	.LBB584:
 2338              	.LBB582:
 2339              	.LBB557:
 2340              	.LBB554:
 2341              	.LBB539:
 2342              	.LBB535:
 2343              	.LBB536:
 2344              		.loc 11 166 34 view .LVU651
 2345 0002 3E48     		ldr	r0, .L113
 2346 0004 0023     		movs	r3, #0
 2347              	.LBE536:
 2348              	.LBE535:
 2349              	.LBE539:
 2350              	.LBE554:
 2351              	.LBE557:
  10:keys.cpp      **** static DaisySeed hw;
ARM GAS  /var/folders/7c/668hyr3s7rlgsbdftclf3hsr0000gn/T//ccVahvvy.s 			page 67


 2352              		.loc 10 10 18 view .LVU652
 2353 0006 3E4C     		ldr	r4, .L113+4
 2354              	.LBB558:
 2355              	.LBB555:
 2356              	.LBB540:
 2357              	.LBB538:
 2358              	.LBB537:
 2359              		.loc 11 166 34 view .LVU653
 2360 0008 0360     		str	r3, [r0]
 2361              	.LVL173:
 2362              		.loc 11 166 34 view .LVU654
 2363              	.LBE537:
 2364              	.LBE538:
 2365              	.LBE540:
 2366              	.LBB541:
 2367              	.LBI541:
  95:../DaisyExamples/libDaisy/src/hid/audio.h ****     ~AudioHandle() {}
 2368              		.loc 9 95 5 is_stmt 1 view .LVU655
 2369              	.LBB542:
 2370              	.LBB543:
  95:../DaisyExamples/libDaisy/src/hid/audio.h ****     ~AudioHandle() {}
 2371              		.loc 9 95 35 is_stmt 0 view .LVU656
 2372 000a 4361     		str	r3, [r0, #20]
 2373              	.LVL174:
  95:../DaisyExamples/libDaisy/src/hid/audio.h ****     ~AudioHandle() {}
 2374              		.loc 9 95 35 view .LVU657
 2375              	.LBE543:
 2376              	.LBE542:
 2377              	.LBE541:
 2378              	.LBB544:
 2379              	.LBI544:
 109:../DaisyExamples/libDaisy/src/per/adc.h ****     ~AdcHandle() {}
 2380              		.loc 8 109 5 is_stmt 1 view .LVU658
 109:../DaisyExamples/libDaisy/src/per/adc.h ****     ~AdcHandle() {}
 2381              		.loc 8 109 5 is_stmt 0 view .LVU659
 2382              	.LBE544:
 2383              	.LBB545:
 2384              	.LBI545:
 2385              		.file 12 "../DaisyExamples/libDaisy/src/per/dac.h"
   1:../DaisyExamples/libDaisy/src/per/dac.h **** #pragma once
   2:../DaisyExamples/libDaisy/src/per/dac.h **** #ifndef DSY_DAC_H
   3:../DaisyExamples/libDaisy/src/per/dac.h **** #define DSY_DAC_H
   4:../DaisyExamples/libDaisy/src/per/dac.h **** 
   5:../DaisyExamples/libDaisy/src/per/dac.h **** #include "daisy_core.h"
   6:../DaisyExamples/libDaisy/src/per/dac.h **** 
   7:../DaisyExamples/libDaisy/src/per/dac.h **** namespace daisy
   8:../DaisyExamples/libDaisy/src/per/dac.h **** {
   9:../DaisyExamples/libDaisy/src/per/dac.h **** /** @brief DAC handle for Built-in DAC Peripheral 
  10:../DaisyExamples/libDaisy/src/per/dac.h ****  *  @ingroup per_analog
  11:../DaisyExamples/libDaisy/src/per/dac.h ****  ** 
  12:../DaisyExamples/libDaisy/src/per/dac.h ****  ** For now only Normal Mode is supported,
  13:../DaisyExamples/libDaisy/src/per/dac.h ****  ** Sample and hold mode provides reduced power consumption, but requires a bit more setup.
  14:../DaisyExamples/libDaisy/src/per/dac.h ****  **
  15:../DaisyExamples/libDaisy/src/per/dac.h ****  ** For now connecting the DAC through other internal peripherals is also not supported.
  16:../DaisyExamples/libDaisy/src/per/dac.h ****  **
  17:../DaisyExamples/libDaisy/src/per/dac.h ****  ** Since the DAC channels have dedicated pins we don't need to pass in a pin config like with
  18:../DaisyExamples/libDaisy/src/per/dac.h ****  ** other modules. However, it is still important to not try to use the DAC pins for anything else.
ARM GAS  /var/folders/7c/668hyr3s7rlgsbdftclf3hsr0000gn/T//ccVahvvy.s 			page 68


  19:../DaisyExamples/libDaisy/src/per/dac.h ****  ** DAC Channel 1 is on PA4, and DAC Channel 2 is on PA5
  20:../DaisyExamples/libDaisy/src/per/dac.h ****  ***/
  21:../DaisyExamples/libDaisy/src/per/dac.h **** class DacHandle
  22:../DaisyExamples/libDaisy/src/per/dac.h **** {
  23:../DaisyExamples/libDaisy/src/per/dac.h ****   public:
  24:../DaisyExamples/libDaisy/src/per/dac.h ****     /** Return Values for the DacHandle class */
  25:../DaisyExamples/libDaisy/src/per/dac.h ****     enum class Result
  26:../DaisyExamples/libDaisy/src/per/dac.h ****     {
  27:../DaisyExamples/libDaisy/src/per/dac.h ****         OK,
  28:../DaisyExamples/libDaisy/src/per/dac.h ****         ERR,
  29:../DaisyExamples/libDaisy/src/per/dac.h ****     };
  30:../DaisyExamples/libDaisy/src/per/dac.h **** 
  31:../DaisyExamples/libDaisy/src/per/dac.h ****     /** Selects which channel(s) will be configured for use. */
  32:../DaisyExamples/libDaisy/src/per/dac.h ****     enum class Channel
  33:../DaisyExamples/libDaisy/src/per/dac.h ****     {
  34:../DaisyExamples/libDaisy/src/per/dac.h ****         ONE,
  35:../DaisyExamples/libDaisy/src/per/dac.h ****         TWO,
  36:../DaisyExamples/libDaisy/src/per/dac.h ****         BOTH,
  37:../DaisyExamples/libDaisy/src/per/dac.h ****     };
  38:../DaisyExamples/libDaisy/src/per/dac.h **** 
  39:../DaisyExamples/libDaisy/src/per/dac.h ****     /** Sets the Mode for the DAC channels.
  40:../DaisyExamples/libDaisy/src/per/dac.h ****      **
  41:../DaisyExamples/libDaisy/src/per/dac.h ****      ** Polling mode uses the blocking mode to transmit a single value at a time.
  42:../DaisyExamples/libDaisy/src/per/dac.h ****      **
  43:../DaisyExamples/libDaisy/src/per/dac.h ****      ** DMA mode uses a buffer, and periodically transmits it triggering a 
  44:../DaisyExamples/libDaisy/src/per/dac.h ****      ** callback to fill the buffer when it is ready for more samples.
  45:../DaisyExamples/libDaisy/src/per/dac.h ****      ***/
  46:../DaisyExamples/libDaisy/src/per/dac.h ****     enum class Mode
  47:../DaisyExamples/libDaisy/src/per/dac.h ****     {
  48:../DaisyExamples/libDaisy/src/per/dac.h ****         POLLING,
  49:../DaisyExamples/libDaisy/src/per/dac.h ****         DMA,
  50:../DaisyExamples/libDaisy/src/per/dac.h ****     };
  51:../DaisyExamples/libDaisy/src/per/dac.h **** 
  52:../DaisyExamples/libDaisy/src/per/dac.h ****     /** Sets the number of bits per sample transmitted out of the DAC.
  53:../DaisyExamples/libDaisy/src/per/dac.h ****      ** The output range will be: 0V - VDDA
  54:../DaisyExamples/libDaisy/src/per/dac.h ****      ** The resolution will be roughly: bitdepth / (VDDA - 0V) 
  55:../DaisyExamples/libDaisy/src/per/dac.h ****      ***/
  56:../DaisyExamples/libDaisy/src/per/dac.h ****     enum class BitDepth
  57:../DaisyExamples/libDaisy/src/per/dac.h ****     {
  58:../DaisyExamples/libDaisy/src/per/dac.h ****         BITS_8,
  59:../DaisyExamples/libDaisy/src/per/dac.h ****         BITS_12
  60:../DaisyExamples/libDaisy/src/per/dac.h ****     };
  61:../DaisyExamples/libDaisy/src/per/dac.h **** 
  62:../DaisyExamples/libDaisy/src/per/dac.h ****     /** Sets whether the DAC output is buffered for higher drive ability. */
  63:../DaisyExamples/libDaisy/src/per/dac.h ****     enum class BufferState
  64:../DaisyExamples/libDaisy/src/per/dac.h ****     {
  65:../DaisyExamples/libDaisy/src/per/dac.h ****         ENABLED,
  66:../DaisyExamples/libDaisy/src/per/dac.h ****         DISABLED,
  67:../DaisyExamples/libDaisy/src/per/dac.h ****     };
  68:../DaisyExamples/libDaisy/src/per/dac.h **** 
  69:../DaisyExamples/libDaisy/src/per/dac.h ****     /** Configuration structure for initializing the DAC structure. */
  70:../DaisyExamples/libDaisy/src/per/dac.h ****     struct Config
  71:../DaisyExamples/libDaisy/src/per/dac.h ****     {
  72:../DaisyExamples/libDaisy/src/per/dac.h ****         /** Target Samplerate in Hz used to configure the internal 
  73:../DaisyExamples/libDaisy/src/per/dac.h ****          ** timebase for DMA mode. Does nothing in POLLING mode.
  74:../DaisyExamples/libDaisy/src/per/dac.h ****          ** If the value is 0 at Init time this will default to 48000Hz 
  75:../DaisyExamples/libDaisy/src/per/dac.h ****          ** otherwise the driver will attempt meet the target.*/
ARM GAS  /var/folders/7c/668hyr3s7rlgsbdftclf3hsr0000gn/T//ccVahvvy.s 			page 69


  76:../DaisyExamples/libDaisy/src/per/dac.h ****         uint32_t target_samplerate;
  77:../DaisyExamples/libDaisy/src/per/dac.h **** 
  78:../DaisyExamples/libDaisy/src/per/dac.h ****         Channel     chn;
  79:../DaisyExamples/libDaisy/src/per/dac.h ****         Mode        mode;
  80:../DaisyExamples/libDaisy/src/per/dac.h ****         BitDepth    bitdepth;
  81:../DaisyExamples/libDaisy/src/per/dac.h ****         BufferState buff_state;
  82:../DaisyExamples/libDaisy/src/per/dac.h ****     };
  83:../DaisyExamples/libDaisy/src/per/dac.h **** 
  84:../DaisyExamples/libDaisy/src/per/dac.h ****     DacHandle() : pimpl_(nullptr) {}
 2386              		.loc 12 84 5 is_stmt 1 view .LVU660
 2387              	.LBE545:
 2388              	.LBE555:
 2389              	.LBE558:
  10:keys.cpp      **** static DaisySeed hw;
 2390              		.loc 10 10 18 is_stmt 0 view .LVU661
 2391 000c 2246     		mov	r2, r4
 2392              	.LBB559:
 2393              	.LBB556:
 2394              	.LBB548:
 2395              	.LBB546:
 2396              	.LBB547:
 2397              		.loc 12 84 33 view .LVU662
 2398 000e 0362     		str	r3, [r0, #32]
 2399              	.LVL175:
 2400              		.loc 12 84 33 view .LVU663
 2401              	.LBE547:
 2402              	.LBE546:
 2403              	.LBE548:
 2404              	.LBB549:
 2405              	.LBI549:
  40:../DaisyExamples/libDaisy/src/hid/usb.h **** 
 2406              		.loc 7 40 5 is_stmt 1 view .LVU664
  40:../DaisyExamples/libDaisy/src/hid/usb.h **** 
 2407              		.loc 7 40 5 is_stmt 0 view .LVU665
 2408              	.LBE549:
 2409              	.LBB550:
 2410              	.LBI550:
  96:../DaisyExamples/libDaisy/src/sys/system.h ****     ~System() {}
 2411              		.loc 6 96 5 is_stmt 1 view .LVU666
  96:../DaisyExamples/libDaisy/src/sys/system.h ****     ~System() {}
 2412              		.loc 6 96 5 is_stmt 0 view .LVU667
 2413              	.LBE550:
 2414              	.LBB551:
 2415              	.LBI551:
 2416              		.file 13 "../DaisyExamples/libDaisy/src/per/sai.h"
   1:../DaisyExamples/libDaisy/src/per/sai.h **** #pragma once
   2:../DaisyExamples/libDaisy/src/per/sai.h **** #ifndef DSY_SAI_H
   3:../DaisyExamples/libDaisy/src/per/sai.h **** #define DSY_SAI_H
   4:../DaisyExamples/libDaisy/src/per/sai.h **** 
   5:../DaisyExamples/libDaisy/src/per/sai.h **** #include "daisy_core.h"
   6:../DaisyExamples/libDaisy/src/per/sai.h **** 
   7:../DaisyExamples/libDaisy/src/per/sai.h **** namespace daisy
   8:../DaisyExamples/libDaisy/src/per/sai.h **** {
   9:../DaisyExamples/libDaisy/src/per/sai.h **** /** 
  10:../DaisyExamples/libDaisy/src/per/sai.h ****  * Support for I2S Audio Protocol with different bit-depth, samplerate options
  11:../DaisyExamples/libDaisy/src/per/sai.h ****  * Allows for master or slave, as well as freedom of selecting direction, 
  12:../DaisyExamples/libDaisy/src/per/sai.h ****  * and other behavior for each peripheral, and block.
ARM GAS  /var/folders/7c/668hyr3s7rlgsbdftclf3hsr0000gn/T//ccVahvvy.s 			page 70


  13:../DaisyExamples/libDaisy/src/per/sai.h ****  * 
  14:../DaisyExamples/libDaisy/src/per/sai.h ****  * DMA Transfer commands must use buffers located within non-cached memory or use cache maintenance
  15:../DaisyExamples/libDaisy/src/per/sai.h ****  * To declare an unitialized global element in the DMA memory section:
  16:../DaisyExamples/libDaisy/src/per/sai.h ****  *    int32_t DSY_DMA_BUFFER_SECTOR my_buffer[96];
  17:../DaisyExamples/libDaisy/src/per/sai.h ****  *
  18:../DaisyExamples/libDaisy/src/per/sai.h ****  * Callback functions will be called once per half of the buffer. In the above example, 
  19:../DaisyExamples/libDaisy/src/per/sai.h ****  * the callback function would be called once for every 48 samples.
  20:../DaisyExamples/libDaisy/src/per/sai.h ****  * 
  21:../DaisyExamples/libDaisy/src/per/sai.h ****  * Use SAI Handle like this:
  22:../DaisyExamples/libDaisy/src/per/sai.h ****  * 
  23:../DaisyExamples/libDaisy/src/per/sai.h ****  *  SaiHandle::Config sai_config;
  24:../DaisyExamples/libDaisy/src/per/sai.h ****  *  sai_config.periph          = SaiHandle::Config::Peripheral::SAI_1;
  25:../DaisyExamples/libDaisy/src/per/sai.h ****  *  sai_config.sr              = SaiHandle::Config::SampleRate::SAI_48KHZ;
  26:../DaisyExamples/libDaisy/src/per/sai.h ****  *  sai_config.bit_depth       = SaiHandle::Config::BitDepth::SAI_24BIT;
  27:../DaisyExamples/libDaisy/src/per/sai.h ****  *  sai_config.a_sync          = SaiHandle::Config::Sync::MASTER;
  28:../DaisyExamples/libDaisy/src/per/sai.h ****  *  sai_config.b_sync          = SaiHandle::Config::Sync::SLAVE;
  29:../DaisyExamples/libDaisy/src/per/sai.h ****  *  sai_config.a_dir           = SaiHandle::Config::Direction::RECEIVE;
  30:../DaisyExamples/libDaisy/src/per/sai.h ****  *  sai_config.b_dir           = SaiHandle::Config::Direction::TRANSMIT;
  31:../DaisyExamples/libDaisy/src/per/sai.h ****  *  sai_config.pin_config.fs   = {DSY_GPIOE, 4};
  32:../DaisyExamples/libDaisy/src/per/sai.h ****  *  sai_config.pin_config.mclk = {DSY_GPIOE, 2};
  33:../DaisyExamples/libDaisy/src/per/sai.h ****  *  sai_config.pin_config.sck  = {DSY_GPIOE, 5};
  34:../DaisyExamples/libDaisy/src/per/sai.h ****  *  sai_config.pin_config.sa   = {DSY_GPIOE, 6};
  35:../DaisyExamples/libDaisy/src/per/sai.h ****  *  sai_config.pin_config.sb   = {DSY_GPIOE, 3};
  36:../DaisyExamples/libDaisy/src/per/sai.h ****  *  // Then Initialize
  37:../DaisyExamples/libDaisy/src/per/sai.h ****  *  SaiHandle sai;
  38:../DaisyExamples/libDaisy/src/per/sai.h ****  *  sai.Init(sai_config);
  39:../DaisyExamples/libDaisy/src/per/sai.h ****  *  // Now you can use it:
  40:../DaisyExamples/libDaisy/src/per/sai.h ****  *  sai.StartDma(. . .);
  41:../DaisyExamples/libDaisy/src/per/sai.h ****  */
  42:../DaisyExamples/libDaisy/src/per/sai.h **** class SaiHandle
  43:../DaisyExamples/libDaisy/src/per/sai.h **** {
  44:../DaisyExamples/libDaisy/src/per/sai.h ****   public:
  45:../DaisyExamples/libDaisy/src/per/sai.h ****     /** Contains settings for initialising an SAI Interface */
  46:../DaisyExamples/libDaisy/src/per/sai.h ****     struct Config
  47:../DaisyExamples/libDaisy/src/per/sai.h ****     {
  48:../DaisyExamples/libDaisy/src/per/sai.h ****         /** Specifies the internal peripheral to use (mapped to different hardware pins) */
  49:../DaisyExamples/libDaisy/src/per/sai.h ****         enum class Peripheral
  50:../DaisyExamples/libDaisy/src/per/sai.h ****         {
  51:../DaisyExamples/libDaisy/src/per/sai.h ****             SAI_1,
  52:../DaisyExamples/libDaisy/src/per/sai.h ****             SAI_2,
  53:../DaisyExamples/libDaisy/src/per/sai.h ****         };
  54:../DaisyExamples/libDaisy/src/per/sai.h **** 
  55:../DaisyExamples/libDaisy/src/per/sai.h ****         /** Rate at which samples will be streaming to/from the device. */
  56:../DaisyExamples/libDaisy/src/per/sai.h ****         enum class SampleRate
  57:../DaisyExamples/libDaisy/src/per/sai.h ****         {
  58:../DaisyExamples/libDaisy/src/per/sai.h ****             SAI_8KHZ,
  59:../DaisyExamples/libDaisy/src/per/sai.h ****             SAI_16KHZ,
  60:../DaisyExamples/libDaisy/src/per/sai.h ****             SAI_32KHZ,
  61:../DaisyExamples/libDaisy/src/per/sai.h ****             SAI_48KHZ,
  62:../DaisyExamples/libDaisy/src/per/sai.h ****             SAI_96KHZ,
  63:../DaisyExamples/libDaisy/src/per/sai.h ****         };
  64:../DaisyExamples/libDaisy/src/per/sai.h **** 
  65:../DaisyExamples/libDaisy/src/per/sai.h ****         /** Bit Depth that the hardware expects to be transferred to/from the device. */
  66:../DaisyExamples/libDaisy/src/per/sai.h ****         enum class BitDepth
  67:../DaisyExamples/libDaisy/src/per/sai.h ****         {
  68:../DaisyExamples/libDaisy/src/per/sai.h ****             SAI_16BIT,
  69:../DaisyExamples/libDaisy/src/per/sai.h ****             SAI_24BIT,
ARM GAS  /var/folders/7c/668hyr3s7rlgsbdftclf3hsr0000gn/T//ccVahvvy.s 			page 71


  70:../DaisyExamples/libDaisy/src/per/sai.h ****             SAI_32BIT,
  71:../DaisyExamples/libDaisy/src/per/sai.h ****         };
  72:../DaisyExamples/libDaisy/src/per/sai.h **** 
  73:../DaisyExamples/libDaisy/src/per/sai.h ****         /** Specifies whether a particular block is the master or the slave 
  74:../DaisyExamples/libDaisy/src/per/sai.h ****          ** If both are set to slave, no MCLK signal will be used, and it is
  75:../DaisyExamples/libDaisy/src/per/sai.h ****          ** expected that the codec will have its own xtal.
  76:../DaisyExamples/libDaisy/src/per/sai.h ****          */
  77:../DaisyExamples/libDaisy/src/per/sai.h ****         enum class Sync
  78:../DaisyExamples/libDaisy/src/per/sai.h ****         {
  79:../DaisyExamples/libDaisy/src/per/sai.h ****             MASTER,
  80:../DaisyExamples/libDaisy/src/per/sai.h ****             SLAVE,
  81:../DaisyExamples/libDaisy/src/per/sai.h ****         };
  82:../DaisyExamples/libDaisy/src/per/sai.h **** 
  83:../DaisyExamples/libDaisy/src/per/sai.h ****         /** Specifies the direction for each peripheral block. */
  84:../DaisyExamples/libDaisy/src/per/sai.h ****         enum class Direction
  85:../DaisyExamples/libDaisy/src/per/sai.h ****         {
  86:../DaisyExamples/libDaisy/src/per/sai.h ****             TRANSMIT,
  87:../DaisyExamples/libDaisy/src/per/sai.h ****             RECEIVE,
  88:../DaisyExamples/libDaisy/src/per/sai.h ****         };
  89:../DaisyExamples/libDaisy/src/per/sai.h **** 
  90:../DaisyExamples/libDaisy/src/per/sai.h ****         Peripheral periph;
  91:../DaisyExamples/libDaisy/src/per/sai.h ****         struct
  92:../DaisyExamples/libDaisy/src/per/sai.h ****         {
  93:../DaisyExamples/libDaisy/src/per/sai.h ****             dsy_gpio_pin mclk, fs, sck, sa, sb;
  94:../DaisyExamples/libDaisy/src/per/sai.h ****         } pin_config;
  95:../DaisyExamples/libDaisy/src/per/sai.h ****         SampleRate sr;
  96:../DaisyExamples/libDaisy/src/per/sai.h ****         BitDepth   bit_depth;
  97:../DaisyExamples/libDaisy/src/per/sai.h ****         Sync       a_sync, b_sync;
  98:../DaisyExamples/libDaisy/src/per/sai.h ****         Direction  a_dir, b_dir;
  99:../DaisyExamples/libDaisy/src/per/sai.h ****     };
 100:../DaisyExamples/libDaisy/src/per/sai.h **** 
 101:../DaisyExamples/libDaisy/src/per/sai.h ****     /** Return values for SAI functions */
 102:../DaisyExamples/libDaisy/src/per/sai.h ****     enum class Result
 103:../DaisyExamples/libDaisy/src/per/sai.h ****     {
 104:../DaisyExamples/libDaisy/src/per/sai.h ****         OK,
 105:../DaisyExamples/libDaisy/src/per/sai.h ****         ERR,
 106:../DaisyExamples/libDaisy/src/per/sai.h ****     };
 107:../DaisyExamples/libDaisy/src/per/sai.h **** 
 108:../DaisyExamples/libDaisy/src/per/sai.h ****     SaiHandle() : pimpl_(nullptr) {}
 2417              		.loc 13 108 5 is_stmt 1 view .LVU668
 2418              	.LBB552:
 2419              	.LBB553:
 2420              		.loc 13 108 33 is_stmt 0 view .LVU669
 2421 0010 C363     		str	r3, [r0, #60]
 2422              	.LVL176:
 2423              		.loc 13 108 33 view .LVU670
 2424              	.LBE553:
 2425              	.LBE552:
 2426              	.LBE551:
 2427              	.LBE556:
 2428              	.LBE559:
  10:keys.cpp      **** static DaisySeed hw;
 2429              		.loc 10 10 18 view .LVU671
 2430 0012 3C49     		ldr	r1, .L113+8
 2431 0014 FFF7FEFF 		bl	__aeabi_atexit
 2432              	.LVL177:
 2433              	.LBB560:
ARM GAS  /var/folders/7c/668hyr3s7rlgsbdftclf3hsr0000gn/T//ccVahvvy.s 			page 72


 2434              	.LBI560:
  23:../DaisyExamples/DaisySP/Source/Synthesis/oscillator.h ****     ~Oscillator() {}
 2435              		.loc 2 23 5 is_stmt 1 view .LVU672
  23:../DaisyExamples/DaisySP/Source/Synthesis/oscillator.h ****     ~Oscillator() {}
 2436              		.loc 2 23 5 is_stmt 0 view .LVU673
 2437              	.LBE560:
  11:keys.cpp      **** static Oscillator osc1, osc2, osc3;
 2438              		.loc 10 11 19 view .LVU674
 2439 0018 2246     		mov	r2, r4
 2440 001a 3B49     		ldr	r1, .L113+12
 2441 001c 3B48     		ldr	r0, .L113+16
 2442 001e FFF7FEFF 		bl	__aeabi_atexit
 2443              	.LVL178:
 2444              	.LBB561:
 2445              	.LBI561:
  23:../DaisyExamples/DaisySP/Source/Synthesis/oscillator.h ****     ~Oscillator() {}
 2446              		.loc 2 23 5 is_stmt 1 view .LVU675
  23:../DaisyExamples/DaisySP/Source/Synthesis/oscillator.h ****     ~Oscillator() {}
 2447              		.loc 2 23 5 is_stmt 0 view .LVU676
 2448              	.LBE561:
  11:keys.cpp      **** static Oscillator osc1, osc2, osc3;
 2449              		.loc 10 11 25 view .LVU677
 2450 0022 2246     		mov	r2, r4
 2451 0024 3849     		ldr	r1, .L113+12
 2452 0026 3A48     		ldr	r0, .L113+20
 2453 0028 FFF7FEFF 		bl	__aeabi_atexit
 2454              	.LVL179:
 2455              	.LBB562:
 2456              	.LBI562:
  23:../DaisyExamples/DaisySP/Source/Synthesis/oscillator.h ****     ~Oscillator() {}
 2457              		.loc 2 23 5 is_stmt 1 view .LVU678
  23:../DaisyExamples/DaisySP/Source/Synthesis/oscillator.h ****     ~Oscillator() {}
 2458              		.loc 2 23 5 is_stmt 0 view .LVU679
 2459              	.LBE562:
  14:keys.cpp      **** static AnalogControl pot1, pot2, pot3;
 2460              		.loc 10 14 22 view .LVU680
 2461 002c 394D     		ldr	r5, .L113+24
  11:keys.cpp      **** static Oscillator osc1, osc2, osc3;
 2462              		.loc 10 11 31 view .LVU681
 2463 002e 2246     		mov	r2, r4
 2464 0030 3549     		ldr	r1, .L113+12
 2465 0032 3948     		ldr	r0, .L113+28
 2466 0034 FFF7FEFF 		bl	__aeabi_atexit
 2467              	.LVL180:
 2468              	.LBB563:
 2469              	.LBI563:
  42:../DaisyExamples/DaisySP/Source/Control/adenv.h ****     ~AdEnv() {}
 2470              		.loc 1 42 5 is_stmt 1 view .LVU682
  42:../DaisyExamples/DaisySP/Source/Control/adenv.h ****     ~AdEnv() {}
 2471              		.loc 1 42 5 is_stmt 0 view .LVU683
 2472              	.LBE563:
  12:keys.cpp      **** static AdEnv      ad;
 2473              		.loc 10 12 19 view .LVU684
 2474 0038 2246     		mov	r2, r4
 2475 003a 3849     		ldr	r1, .L113+32
 2476 003c 3848     		ldr	r0, .L113+36
 2477 003e FFF7FEFF 		bl	__aeabi_atexit
ARM GAS  /var/folders/7c/668hyr3s7rlgsbdftclf3hsr0000gn/T//ccVahvvy.s 			page 73


 2478              	.LVL181:
 2479              	.LBB564:
 2480              	.LBI564:
  21:../DaisyExamples/libDaisy/src/hid/ctrl.h ****     /** destructor */
 2481              		.loc 4 21 5 is_stmt 1 view .LVU685
  21:../DaisyExamples/libDaisy/src/hid/ctrl.h ****     /** destructor */
 2482              		.loc 4 21 5 is_stmt 0 view .LVU686
 2483              	.LBE564:
  14:keys.cpp      **** static AnalogControl pot1, pot2, pot3;
 2484              		.loc 10 14 22 view .LVU687
 2485 0042 2246     		mov	r2, r4
 2486 0044 2946     		mov	r1, r5
 2487 0046 3748     		ldr	r0, .L113+40
 2488 0048 FFF7FEFF 		bl	__aeabi_atexit
 2489              	.LVL182:
 2490              	.LBB565:
 2491              	.LBI565:
  21:../DaisyExamples/libDaisy/src/hid/ctrl.h ****     /** destructor */
 2492              		.loc 4 21 5 is_stmt 1 view .LVU688
  21:../DaisyExamples/libDaisy/src/hid/ctrl.h ****     /** destructor */
 2493              		.loc 4 21 5 is_stmt 0 view .LVU689
 2494              	.LBE565:
  14:keys.cpp      **** static AnalogControl pot1, pot2, pot3;
 2495              		.loc 10 14 28 view .LVU690
 2496 004c 2246     		mov	r2, r4
 2497 004e 2946     		mov	r1, r5
 2498 0050 3548     		ldr	r0, .L113+44
 2499 0052 FFF7FEFF 		bl	__aeabi_atexit
 2500              	.LVL183:
 2501              	.LBB566:
 2502              	.LBI566:
  21:../DaisyExamples/libDaisy/src/hid/ctrl.h ****     /** destructor */
 2503              		.loc 4 21 5 is_stmt 1 view .LVU691
  21:../DaisyExamples/libDaisy/src/hid/ctrl.h ****     /** destructor */
 2504              		.loc 4 21 5 is_stmt 0 view .LVU692
 2505              	.LBE566:
  14:keys.cpp      **** static AnalogControl pot1, pot2, pot3;
 2506              		.loc 10 14 34 view .LVU693
 2507 0056 2946     		mov	r1, r5
  21:keys.cpp      **** Switch octave_up; 
 2508              		.loc 10 21 8 view .LVU694
 2509 0058 344D     		ldr	r5, .L113+48
  14:keys.cpp      **** static AnalogControl pot1, pot2, pot3;
 2510              		.loc 10 14 34 view .LVU695
 2511 005a 2246     		mov	r2, r4
 2512 005c 3448     		ldr	r0, .L113+52
 2513 005e FFF7FEFF 		bl	__aeabi_atexit
 2514              	.LVL184:
 2515              	.LBB567:
 2516              	.LBI567:
  41:../DaisyExamples/libDaisy/src/hid/switch.h ****     ~Switch() {}
 2517              		.loc 3 41 5 is_stmt 1 view .LVU696
  41:../DaisyExamples/libDaisy/src/hid/switch.h ****     ~Switch() {}
 2518              		.loc 3 41 5 is_stmt 0 view .LVU697
 2519              	.LBE567:
  21:keys.cpp      **** Switch octave_up; 
 2520              		.loc 10 21 8 view .LVU698
ARM GAS  /var/folders/7c/668hyr3s7rlgsbdftclf3hsr0000gn/T//ccVahvvy.s 			page 74


 2521 0062 2246     		mov	r2, r4
 2522 0064 2946     		mov	r1, r5
 2523 0066 3348     		ldr	r0, .L113+56
 2524 0068 FFF7FEFF 		bl	__aeabi_atexit
 2525              	.LVL185:
 2526              	.LBB568:
 2527              	.LBI568:
  41:../DaisyExamples/libDaisy/src/hid/switch.h ****     ~Switch() {}
 2528              		.loc 3 41 5 is_stmt 1 view .LVU699
  41:../DaisyExamples/libDaisy/src/hid/switch.h ****     ~Switch() {}
 2529              		.loc 3 41 5 is_stmt 0 view .LVU700
 2530              	.LBE568:
  22:keys.cpp      **** Switch octave_down;
 2531              		.loc 10 22 8 view .LVU701
 2532 006c 2246     		mov	r2, r4
 2533 006e 2946     		mov	r1, r5
 2534 0070 3148     		ldr	r0, .L113+60
 2535 0072 FFF7FEFF 		bl	__aeabi_atexit
 2536              	.LVL186:
 2537              	.LBB569:
 2538              	.LBI569:
  41:../DaisyExamples/libDaisy/src/hid/switch.h ****     ~Switch() {}
 2539              		.loc 3 41 5 is_stmt 1 view .LVU702
  41:../DaisyExamples/libDaisy/src/hid/switch.h ****     ~Switch() {}
 2540              		.loc 3 41 5 is_stmt 0 view .LVU703
 2541              	.LBE569:
  24:keys.cpp      **** Switch C;
 2542              		.loc 10 24 8 view .LVU704
 2543 0076 2246     		mov	r2, r4
 2544 0078 2946     		mov	r1, r5
 2545 007a 3048     		ldr	r0, .L113+64
 2546 007c FFF7FEFF 		bl	__aeabi_atexit
 2547              	.LVL187:
 2548              	.LBB570:
 2549              	.LBI570:
  41:../DaisyExamples/libDaisy/src/hid/switch.h ****     ~Switch() {}
 2550              		.loc 3 41 5 is_stmt 1 view .LVU705
  41:../DaisyExamples/libDaisy/src/hid/switch.h ****     ~Switch() {}
 2551              		.loc 3 41 5 is_stmt 0 view .LVU706
 2552              	.LBE570:
  25:keys.cpp      **** Switch CS;
 2553              		.loc 10 25 8 view .LVU707
 2554 0080 2246     		mov	r2, r4
 2555 0082 2946     		mov	r1, r5
 2556 0084 2E48     		ldr	r0, .L113+68
 2557 0086 FFF7FEFF 		bl	__aeabi_atexit
 2558              	.LVL188:
 2559              	.LBB571:
 2560              	.LBI571:
  41:../DaisyExamples/libDaisy/src/hid/switch.h ****     ~Switch() {}
 2561              		.loc 3 41 5 is_stmt 1 view .LVU708
  41:../DaisyExamples/libDaisy/src/hid/switch.h ****     ~Switch() {}
 2562              		.loc 3 41 5 is_stmt 0 view .LVU709
 2563              	.LBE571:
  26:keys.cpp      **** Switch D;
 2564              		.loc 10 26 8 view .LVU710
 2565 008a 2246     		mov	r2, r4
ARM GAS  /var/folders/7c/668hyr3s7rlgsbdftclf3hsr0000gn/T//ccVahvvy.s 			page 75


 2566 008c 2946     		mov	r1, r5
 2567 008e 2D48     		ldr	r0, .L113+72
 2568 0090 FFF7FEFF 		bl	__aeabi_atexit
 2569              	.LVL189:
 2570              	.LBB572:
 2571              	.LBI572:
  41:../DaisyExamples/libDaisy/src/hid/switch.h ****     ~Switch() {}
 2572              		.loc 3 41 5 is_stmt 1 view .LVU711
  41:../DaisyExamples/libDaisy/src/hid/switch.h ****     ~Switch() {}
 2573              		.loc 3 41 5 is_stmt 0 view .LVU712
 2574              	.LBE572:
  27:keys.cpp      **** Switch DS;
 2575              		.loc 10 27 8 view .LVU713
 2576 0094 2246     		mov	r2, r4
 2577 0096 2946     		mov	r1, r5
 2578 0098 2B48     		ldr	r0, .L113+76
 2579 009a FFF7FEFF 		bl	__aeabi_atexit
 2580              	.LVL190:
 2581              	.LBB573:
 2582              	.LBI573:
  41:../DaisyExamples/libDaisy/src/hid/switch.h ****     ~Switch() {}
 2583              		.loc 3 41 5 is_stmt 1 view .LVU714
  41:../DaisyExamples/libDaisy/src/hid/switch.h ****     ~Switch() {}
 2584              		.loc 3 41 5 is_stmt 0 view .LVU715
 2585              	.LBE573:
  28:keys.cpp      **** Switch E;
 2586              		.loc 10 28 8 view .LVU716
 2587 009e 2246     		mov	r2, r4
 2588 00a0 2946     		mov	r1, r5
 2589 00a2 2A48     		ldr	r0, .L113+80
 2590 00a4 FFF7FEFF 		bl	__aeabi_atexit
 2591              	.LVL191:
 2592              	.LBB574:
 2593              	.LBI574:
  41:../DaisyExamples/libDaisy/src/hid/switch.h ****     ~Switch() {}
 2594              		.loc 3 41 5 is_stmt 1 view .LVU717
  41:../DaisyExamples/libDaisy/src/hid/switch.h ****     ~Switch() {}
 2595              		.loc 3 41 5 is_stmt 0 view .LVU718
 2596              	.LBE574:
  29:keys.cpp      **** Switch F;
 2597              		.loc 10 29 8 view .LVU719
 2598 00a8 2246     		mov	r2, r4
 2599 00aa 2946     		mov	r1, r5
 2600 00ac 2848     		ldr	r0, .L113+84
 2601 00ae FFF7FEFF 		bl	__aeabi_atexit
 2602              	.LVL192:
 2603              	.LBB575:
 2604              	.LBI575:
  41:../DaisyExamples/libDaisy/src/hid/switch.h ****     ~Switch() {}
 2605              		.loc 3 41 5 is_stmt 1 view .LVU720
  41:../DaisyExamples/libDaisy/src/hid/switch.h ****     ~Switch() {}
 2606              		.loc 3 41 5 is_stmt 0 view .LVU721
 2607              	.LBE575:
  30:keys.cpp      **** Switch FS;
 2608              		.loc 10 30 8 view .LVU722
 2609 00b2 2246     		mov	r2, r4
 2610 00b4 2946     		mov	r1, r5
ARM GAS  /var/folders/7c/668hyr3s7rlgsbdftclf3hsr0000gn/T//ccVahvvy.s 			page 76


 2611 00b6 2748     		ldr	r0, .L113+88
 2612 00b8 FFF7FEFF 		bl	__aeabi_atexit
 2613              	.LVL193:
 2614              	.LBB576:
 2615              	.LBI576:
  41:../DaisyExamples/libDaisy/src/hid/switch.h ****     ~Switch() {}
 2616              		.loc 3 41 5 is_stmt 1 view .LVU723
  41:../DaisyExamples/libDaisy/src/hid/switch.h ****     ~Switch() {}
 2617              		.loc 3 41 5 is_stmt 0 view .LVU724
 2618              	.LBE576:
  31:keys.cpp      **** Switch G;
 2619              		.loc 10 31 8 view .LVU725
 2620 00bc 2246     		mov	r2, r4
 2621 00be 2946     		mov	r1, r5
 2622 00c0 2548     		ldr	r0, .L113+92
 2623 00c2 FFF7FEFF 		bl	__aeabi_atexit
 2624              	.LVL194:
 2625              	.LBB577:
 2626              	.LBI577:
  41:../DaisyExamples/libDaisy/src/hid/switch.h ****     ~Switch() {}
 2627              		.loc 3 41 5 is_stmt 1 view .LVU726
  41:../DaisyExamples/libDaisy/src/hid/switch.h ****     ~Switch() {}
 2628              		.loc 3 41 5 is_stmt 0 view .LVU727
 2629              	.LBE577:
  32:keys.cpp      **** Switch GS;
 2630              		.loc 10 32 8 view .LVU728
 2631 00c6 2246     		mov	r2, r4
 2632 00c8 2946     		mov	r1, r5
 2633 00ca 2448     		ldr	r0, .L113+96
 2634 00cc FFF7FEFF 		bl	__aeabi_atexit
 2635              	.LVL195:
 2636              	.LBB578:
 2637              	.LBI578:
  41:../DaisyExamples/libDaisy/src/hid/switch.h ****     ~Switch() {}
 2638              		.loc 3 41 5 is_stmt 1 view .LVU729
  41:../DaisyExamples/libDaisy/src/hid/switch.h ****     ~Switch() {}
 2639              		.loc 3 41 5 is_stmt 0 view .LVU730
 2640              	.LBE578:
  33:keys.cpp      **** Switch A;
 2641              		.loc 10 33 8 view .LVU731
 2642 00d0 2246     		mov	r2, r4
 2643 00d2 2946     		mov	r1, r5
 2644 00d4 2248     		ldr	r0, .L113+100
 2645 00d6 FFF7FEFF 		bl	__aeabi_atexit
 2646              	.LVL196:
 2647              	.LBB579:
 2648              	.LBI579:
  41:../DaisyExamples/libDaisy/src/hid/switch.h ****     ~Switch() {}
 2649              		.loc 3 41 5 is_stmt 1 view .LVU732
  41:../DaisyExamples/libDaisy/src/hid/switch.h ****     ~Switch() {}
 2650              		.loc 3 41 5 is_stmt 0 view .LVU733
 2651              	.LBE579:
  34:keys.cpp      **** Switch AS;
 2652              		.loc 10 34 8 view .LVU734
 2653 00da 2246     		mov	r2, r4
 2654 00dc 2946     		mov	r1, r5
 2655 00de 2148     		ldr	r0, .L113+104
ARM GAS  /var/folders/7c/668hyr3s7rlgsbdftclf3hsr0000gn/T//ccVahvvy.s 			page 77


 2656 00e0 FFF7FEFF 		bl	__aeabi_atexit
 2657              	.LVL197:
 2658              	.LBB580:
 2659              	.LBI580:
  41:../DaisyExamples/libDaisy/src/hid/switch.h ****     ~Switch() {}
 2660              		.loc 3 41 5 is_stmt 1 view .LVU735
  41:../DaisyExamples/libDaisy/src/hid/switch.h ****     ~Switch() {}
 2661              		.loc 3 41 5 is_stmt 0 view .LVU736
 2662              	.LBE580:
  35:keys.cpp      **** Switch B;
 2663              		.loc 10 35 8 view .LVU737
 2664 00e4 2246     		mov	r2, r4
 2665 00e6 2946     		mov	r1, r5
 2666 00e8 1F48     		ldr	r0, .L113+108
 2667 00ea FFF7FEFF 		bl	__aeabi_atexit
 2668              	.LVL198:
 2669              	.LBB581:
 2670              	.LBI581:
  41:../DaisyExamples/libDaisy/src/hid/switch.h ****     ~Switch() {}
 2671              		.loc 3 41 5 is_stmt 1 view .LVU738
  41:../DaisyExamples/libDaisy/src/hid/switch.h ****     ~Switch() {}
 2672              		.loc 3 41 5 is_stmt 0 view .LVU739
 2673              	.LBE581:
  36:keys.cpp      **** Switch C2;
 2674              		.loc 10 36 8 view .LVU740
 2675 00ee 2246     		mov	r2, r4
 2676 00f0 2946     		mov	r1, r5
 2677 00f2 1E48     		ldr	r0, .L113+112
 2678              	.LBE582:
 2679              	.LBE584:
 2680              		.loc 10 314 1 view .LVU741
 2681 00f4 BDE83840 		pop	{r3, r4, r5, lr}
 2682              		.cfi_restore 14
 2683              		.cfi_restore 5
 2684              		.cfi_restore 4
 2685              		.cfi_restore 3
 2686              		.cfi_def_cfa_offset 0
 2687              	.LBB585:
 2688              	.LBB583:
  36:keys.cpp      **** Switch C2;
 2689              		.loc 10 36 8 view .LVU742
 2690 00f8 FFF7FEBF 		b	__aeabi_atexit
 2691              	.LVL199:
 2692              	.L114:
 2693              		.align	2
 2694              	.L113:
 2695 00fc 00000000 		.word	.LANCHOR6
 2696 0100 00000000 		.word	__dso_handle
 2697 0104 00000000 		.word	_ZN5daisy9DaisySeedD1Ev
 2698 0108 00000000 		.word	_ZN7daisysp10OscillatorD1Ev
 2699 010c 00000000 		.word	.LANCHOR2
 2700 0110 00000000 		.word	.LANCHOR3
 2701 0114 00000000 		.word	_ZN5daisy13AnalogControlD1Ev
 2702 0118 00000000 		.word	.LANCHOR4
 2703 011c 00000000 		.word	_ZN7daisysp5AdEnvD1Ev
 2704 0120 00000000 		.word	.LANCHOR0
 2705 0124 00000000 		.word	.LANCHOR23
ARM GAS  /var/folders/7c/668hyr3s7rlgsbdftclf3hsr0000gn/T//ccVahvvy.s 			page 78


 2706 0128 00000000 		.word	.LANCHOR24
 2707 012c 00000000 		.word	_ZN5daisy6SwitchD1Ev
 2708 0130 00000000 		.word	.LANCHOR25
 2709 0134 00000000 		.word	.LANCHOR21
 2710 0138 00000000 		.word	.LANCHOR22
 2711 013c 00000000 		.word	.LANCHOR20
 2712 0140 00000000 		.word	.LANCHOR19
 2713 0144 00000000 		.word	.LANCHOR18
 2714 0148 00000000 		.word	.LANCHOR17
 2715 014c 00000000 		.word	.LANCHOR16
 2716 0150 00000000 		.word	.LANCHOR15
 2717 0154 00000000 		.word	.LANCHOR14
 2718 0158 00000000 		.word	.LANCHOR13
 2719 015c 00000000 		.word	.LANCHOR12
 2720 0160 00000000 		.word	.LANCHOR11
 2721 0164 00000000 		.word	.LANCHOR10
 2722 0168 00000000 		.word	.LANCHOR9
 2723 016c 00000000 		.word	.LANCHOR8
 2724              	.LBE583:
 2725              	.LBE585:
 2726              		.cfi_endproc
 2727              	.LFE5249:
 2729              		.section	.init_array,"aw",%init_array
 2730              		.align	2
 2731 0000 00000000 		.word	_GLOBAL__sub_I_mode(target1)
 2732              		.global	C2
 2733              		.global	B
 2734              		.global	AS
 2735              		.global	A
 2736              		.global	GS
 2737              		.global	G
 2738              		.global	FS
 2739              		.global	F
 2740              		.global	E
 2741              		.global	DS
 2742              		.global	D
 2743              		.global	CS
 2744              		.global	C
 2745              		.global	octave_down
 2746              		.global	octave_up
 2747              		.global	octave
 2748              		.global	oscFreq
 2749              		.global	vibrato
 2750              		.global	mode
 2751              		.section	.bss.A,"aw",%nobits
 2752              		.align	2
 2753              		.set	.LANCHOR11,. + 0
 2756              	A:
 2757 0000 00000000 		.space	16
 2757      00000000 
 2757      00000000 
 2757      00000000 
 2758              		.section	.bss.AS,"aw",%nobits
 2759              		.align	2
 2760              		.set	.LANCHOR10,. + 0
 2763              	AS:
 2764 0000 00000000 		.space	16
ARM GAS  /var/folders/7c/668hyr3s7rlgsbdftclf3hsr0000gn/T//ccVahvvy.s 			page 79


 2764      00000000 
 2764      00000000 
 2764      00000000 
 2765              		.section	.bss.B,"aw",%nobits
 2766              		.align	2
 2767              		.set	.LANCHOR9,. + 0
 2770              	B:
 2771 0000 00000000 		.space	16
 2771      00000000 
 2771      00000000 
 2771      00000000 
 2772              		.section	.bss.C,"aw",%nobits
 2773              		.align	2
 2774              		.set	.LANCHOR20,. + 0
 2777              	C:
 2778 0000 00000000 		.space	16
 2778      00000000 
 2778      00000000 
 2778      00000000 
 2779              		.section	.bss.C2,"aw",%nobits
 2780              		.align	2
 2781              		.set	.LANCHOR8,. + 0
 2784              	C2:
 2785 0000 00000000 		.space	16
 2785      00000000 
 2785      00000000 
 2785      00000000 
 2786              		.section	.bss.CS,"aw",%nobits
 2787              		.align	2
 2788              		.set	.LANCHOR19,. + 0
 2791              	CS:
 2792 0000 00000000 		.space	16
 2792      00000000 
 2792      00000000 
 2792      00000000 
 2793              		.section	.bss.D,"aw",%nobits
 2794              		.align	2
 2795              		.set	.LANCHOR18,. + 0
 2798              	D:
 2799 0000 00000000 		.space	16
 2799      00000000 
 2799      00000000 
 2799      00000000 
 2800              		.section	.bss.DS,"aw",%nobits
 2801              		.align	2
 2802              		.set	.LANCHOR17,. + 0
 2805              	DS:
 2806 0000 00000000 		.space	16
 2806      00000000 
 2806      00000000 
 2806      00000000 
 2807              		.section	.bss.E,"aw",%nobits
 2808              		.align	2
 2809              		.set	.LANCHOR16,. + 0
 2812              	E:
 2813 0000 00000000 		.space	16
 2813      00000000 
ARM GAS  /var/folders/7c/668hyr3s7rlgsbdftclf3hsr0000gn/T//ccVahvvy.s 			page 80


 2813      00000000 
 2813      00000000 
 2814              		.section	.bss.F,"aw",%nobits
 2815              		.align	2
 2816              		.set	.LANCHOR15,. + 0
 2819              	F:
 2820 0000 00000000 		.space	16
 2820      00000000 
 2820      00000000 
 2820      00000000 
 2821              		.section	.bss.FS,"aw",%nobits
 2822              		.align	2
 2823              		.set	.LANCHOR14,. + 0
 2826              	FS:
 2827 0000 00000000 		.space	16
 2827      00000000 
 2827      00000000 
 2827      00000000 
 2828              		.section	.bss.G,"aw",%nobits
 2829              		.align	2
 2830              		.set	.LANCHOR13,. + 0
 2833              	G:
 2834 0000 00000000 		.space	16
 2834      00000000 
 2834      00000000 
 2834      00000000 
 2835              		.section	.bss.GS,"aw",%nobits
 2836              		.align	2
 2837              		.set	.LANCHOR12,. + 0
 2840              	GS:
 2841 0000 00000000 		.space	16
 2841      00000000 
 2841      00000000 
 2841      00000000 
 2842              		.section	.bss._ZL2ad,"aw",%nobits
 2843              		.align	2
 2844              		.set	.LANCHOR0,. + 0
 2847              	_ZL2ad:
 2848 0000 00000000 		.space	56
 2848      00000000 
 2848      00000000 
 2848      00000000 
 2848      00000000 
 2849              		.section	.bss._ZL2hw,"aw",%nobits
 2850              		.align	2
 2851              		.set	.LANCHOR6,. + 0
 2854              	_ZL2hw:
 2855 0000 00000000 		.space	64
 2855      00000000 
 2855      00000000 
 2855      00000000 
 2855      00000000 
 2856              		.section	.bss._ZL4osc1,"aw",%nobits
 2857              		.align	2
 2858              		.set	.LANCHOR2,. + 0
 2861              	_ZL4osc1:
 2862 0000 00000000 		.space	44
ARM GAS  /var/folders/7c/668hyr3s7rlgsbdftclf3hsr0000gn/T//ccVahvvy.s 			page 81


 2862      00000000 
 2862      00000000 
 2862      00000000 
 2862      00000000 
 2863              		.section	.bss._ZL4osc2,"aw",%nobits
 2864              		.align	2
 2865              		.set	.LANCHOR3,. + 0
 2868              	_ZL4osc2:
 2869 0000 00000000 		.space	44
 2869      00000000 
 2869      00000000 
 2869      00000000 
 2869      00000000 
 2870              		.section	.bss._ZL4osc3,"aw",%nobits
 2871              		.align	2
 2872              		.set	.LANCHOR4,. + 0
 2875              	_ZL4osc3:
 2876 0000 00000000 		.space	44
 2876      00000000 
 2876      00000000 
 2876      00000000 
 2876      00000000 
 2877              		.section	.bss._ZL4pot1,"aw",%nobits
 2878              		.align	2
 2879              		.set	.LANCHOR23,. + 0
 2882              	_ZL4pot1:
 2883 0000 00000000 		.space	32
 2883      00000000 
 2883      00000000 
 2883      00000000 
 2883      00000000 
 2884              		.section	.bss._ZL4pot2,"aw",%nobits
 2885              		.align	2
 2886              		.set	.LANCHOR24,. + 0
 2889              	_ZL4pot2:
 2890 0000 00000000 		.space	32
 2890      00000000 
 2890      00000000 
 2890      00000000 
 2890      00000000 
 2891              		.section	.bss._ZL4pot3,"aw",%nobits
 2892              		.align	2
 2893              		.set	.LANCHOR25,. + 0
 2896              	_ZL4pot3:
 2897 0000 00000000 		.space	32
 2897      00000000 
 2897      00000000 
 2897      00000000 
 2897      00000000 
 2898              		.section	.bss._ZL9adcConfig,"aw",%nobits
 2899              		.align	2
 2900              		.set	.LANCHOR7,. + 0
 2903              	_ZL9adcConfig:
 2904 0000 00000000 		.space	54
 2904      00000000 
 2904      00000000 
 2904      00000000 
ARM GAS  /var/folders/7c/668hyr3s7rlgsbdftclf3hsr0000gn/T//ccVahvvy.s 			page 82


 2904      00000000 
 2905              		.section	.bss.mode,"aw",%nobits
 2906              		.align	2
 2909              	mode:
 2910 0000 00000000 		.space	4
 2911              		.section	.bss.octave,"aw",%nobits
 2912              		.align	2
 2913              		.set	.LANCHOR5,. + 0
 2916              	octave:
 2917 0000 00000000 		.space	4
 2918              		.section	.bss.octave_down,"aw",%nobits
 2919              		.align	2
 2920              		.set	.LANCHOR22,. + 0
 2923              	octave_down:
 2924 0000 00000000 		.space	16
 2924      00000000 
 2924      00000000 
 2924      00000000 
 2925              		.section	.bss.octave_up,"aw",%nobits
 2926              		.align	2
 2927              		.set	.LANCHOR21,. + 0
 2930              	octave_up:
 2931 0000 00000000 		.space	16
 2931      00000000 
 2931      00000000 
 2931      00000000 
 2932              		.section	.bss.oscFreq,"aw",%nobits
 2933              		.align	2
 2934              		.set	.LANCHOR1,. + 0
 2937              	oscFreq:
 2938 0000 00000000 		.space	4
 2939              		.section	.bss.vibrato,"aw",%nobits
 2940              		.align	2
 2943              	vibrato:
 2944 0000 00000000 		.space	4
 2945              		.text
 2946              	.Letext0:
 2947              		.file 14 "/Library/DaisyToolchain/0.2.0/arm/arm-none-eabi/include/machine/_default_types.h"
 2948              		.file 15 "/Library/DaisyToolchain/0.2.0/arm/arm-none-eabi/include/sys/_stdint.h"
 2949              		.file 16 "/Library/DaisyToolchain/0.2.0/arm/arm-none-eabi/include/stdint.h"
 2950              		.file 17 "/Library/DaisyToolchain/0.2.0/arm/lib/gcc/arm-none-eabi/10.3.1/include/stddef.h"
 2951              		.file 18 "/Library/DaisyToolchain/0.2.0/arm/arm-none-eabi/include/c++/10.3.1/cmath"
 2952              		.file 19 "/Library/DaisyToolchain/0.2.0/arm/arm-none-eabi/include/c++/10.3.1/bits/std_abs.h"
 2953              		.file 20 "/Library/DaisyToolchain/0.2.0/arm/arm-none-eabi/include/c++/10.3.1/cstdint"
 2954              		.file 21 "/Library/DaisyToolchain/0.2.0/arm/arm-none-eabi/include/c++/10.3.1/cstdlib"
 2955              		.file 22 "/Library/DaisyToolchain/0.2.0/arm/arm-none-eabi/include/c++/10.3.1/type_traits"
 2956              		.file 23 "/Library/DaisyToolchain/0.2.0/arm/arm-none-eabi/include/c++/10.3.1/debug/debug.h"
 2957              		.file 24 "/Library/DaisyToolchain/0.2.0/arm/arm-none-eabi/include/c++/10.3.1/cwchar"
 2958              		.file 25 "/Library/DaisyToolchain/0.2.0/arm/arm-none-eabi/include/c++/10.3.1/bits/stl_pair.h"
 2959              		.file 26 "/Library/DaisyToolchain/0.2.0/arm/arm-none-eabi/include/c++/10.3.1/bits/exception_ptr.h"
 2960              		.file 27 "/Library/DaisyToolchain/0.2.0/arm/arm-none-eabi/include/c++/10.3.1/arm-none-eabi/thumb/v
 2961              		.file 28 "/Library/DaisyToolchain/0.2.0/arm/arm-none-eabi/include/c++/10.3.1/clocale"
 2962              		.file 29 "/Library/DaisyToolchain/0.2.0/arm/arm-none-eabi/include/c++/10.3.1/cstdio"
 2963              		.file 30 "/Library/DaisyToolchain/0.2.0/arm/arm-none-eabi/include/c++/10.3.1/bits/basic_string.h"
 2964              		.file 31 "/Library/DaisyToolchain/0.2.0/arm/arm-none-eabi/include/c++/10.3.1/bits/stl_iterator.h"
 2965              		.file 32 "/Library/DaisyToolchain/0.2.0/arm/arm-none-eabi/include/c++/10.3.1/bits/algorithmfwd.h"
 2966              		.file 33 "/Library/DaisyToolchain/0.2.0/arm/arm-none-eabi/include/c++/10.3.1/cstring"
ARM GAS  /var/folders/7c/668hyr3s7rlgsbdftclf3hsr0000gn/T//ccVahvvy.s 			page 83


 2967              		.file 34 "/Library/DaisyToolchain/0.2.0/arm/arm-none-eabi/include/c++/10.3.1/cstdarg"
 2968              		.file 35 "/Library/DaisyToolchain/0.2.0/arm/arm-none-eabi/include/c++/10.3.1/bits/predefined_ops.h
 2969              		.file 36 "/Library/DaisyToolchain/0.2.0/arm/arm-none-eabi/include/sys/_types.h"
 2970              		.file 37 "/Library/DaisyToolchain/0.2.0/arm/arm-none-eabi/include/sys/reent.h"
 2971              		.file 38 "/Library/DaisyToolchain/0.2.0/arm/arm-none-eabi/include/sys/lock.h"
 2972              		.file 39 "/Library/DaisyToolchain/0.2.0/arm/arm-none-eabi/include/math.h"
 2973              		.file 40 "/Library/DaisyToolchain/0.2.0/arm/arm-none-eabi/include/stdlib.h"
 2974              		.file 41 "/Library/DaisyToolchain/0.2.0/arm/arm-none-eabi/include/c++/10.3.1/math.h"
 2975              		.file 42 "../DaisyExamples/DaisySP/Source/Utility/dsp.h"
 2976              		.file 43 "/Library/DaisyToolchain/0.2.0/arm/lib/gcc/arm-none-eabi/10.3.1/include/stdarg.h"
 2977              		.file 44 "/Library/DaisyToolchain/0.2.0/arm/arm-none-eabi/include/wchar.h"
 2978              		.file 45 "/Library/DaisyToolchain/0.2.0/arm/arm-none-eabi/include/locale.h"
 2979              		.file 46 "/Library/DaisyToolchain/0.2.0/arm/arm-none-eabi/include/stdio.h"
 2980              		.file 47 "/Library/DaisyToolchain/0.2.0/arm/arm-none-eabi/include/c++/10.3.1/stdlib.h"
 2981              		.file 48 "/Library/DaisyToolchain/0.2.0/arm/arm-none-eabi/include/string.h"
 2982              		.file 49 "../DaisyExamples/libDaisy/src/daisy_core.h"
 2983              		.file 50 "../DaisyExamples/libDaisy/src/per/tim.h"
 2984              		.file 51 "../DaisyExamples/libDaisy/src/util/wav_format.h"
 2985              		.file 52 "../DaisyExamples/libDaisy/src/dev/max11300.h"
 2986              		.file 53 "../DaisyExamples/libDaisy/src/per/gpio.h"
 2987              		.file 54 "../DaisyExamples/libDaisy/src/dev/sdram.h"
 2988              		.file 55 "../DaisyExamples/libDaisy/src/dev/sr_595.h"
 2989              		.file 56 "<built-in>"
ARM GAS  /var/folders/7c/668hyr3s7rlgsbdftclf3hsr0000gn/T//ccVahvvy.s 			page 84


DEFINED SYMBOLS
                            *ABS*:0000000000000000 keys.cpp
/var/folders/7c/668hyr3s7rlgsbdftclf3hsr0000gn/T//ccVahvvy.s:19     .text._ZN7daisysp5AdEnvD2Ev:0000000000000000 $t
/var/folders/7c/668hyr3s7rlgsbdftclf3hsr0000gn/T//ccVahvvy.s:26     .text._ZN7daisysp5AdEnvD2Ev:0000000000000000 _ZN7daisysp5AdEnvD2Ev
/var/folders/7c/668hyr3s7rlgsbdftclf3hsr0000gn/T//ccVahvvy.s:26     .text._ZN7daisysp5AdEnvD2Ev:0000000000000000 _ZN7daisysp5AdEnvD1Ev
/var/folders/7c/668hyr3s7rlgsbdftclf3hsr0000gn/T//ccVahvvy.s:43     .text._ZN7daisysp10OscillatorD2Ev:0000000000000000 $t
/var/folders/7c/668hyr3s7rlgsbdftclf3hsr0000gn/T//ccVahvvy.s:50     .text._ZN7daisysp10OscillatorD2Ev:0000000000000000 _ZN7daisysp10OscillatorD2Ev
/var/folders/7c/668hyr3s7rlgsbdftclf3hsr0000gn/T//ccVahvvy.s:50     .text._ZN7daisysp10OscillatorD2Ev:0000000000000000 _ZN7daisysp10OscillatorD1Ev
/var/folders/7c/668hyr3s7rlgsbdftclf3hsr0000gn/T//ccVahvvy.s:67     .text._ZN5daisy6SwitchD2Ev:0000000000000000 $t
/var/folders/7c/668hyr3s7rlgsbdftclf3hsr0000gn/T//ccVahvvy.s:74     .text._ZN5daisy6SwitchD2Ev:0000000000000000 _ZN5daisy6SwitchD2Ev
/var/folders/7c/668hyr3s7rlgsbdftclf3hsr0000gn/T//ccVahvvy.s:74     .text._ZN5daisy6SwitchD2Ev:0000000000000000 _ZN5daisy6SwitchD1Ev
/var/folders/7c/668hyr3s7rlgsbdftclf3hsr0000gn/T//ccVahvvy.s:91     .text._ZN5daisy13AnalogControlD2Ev:0000000000000000 $t
/var/folders/7c/668hyr3s7rlgsbdftclf3hsr0000gn/T//ccVahvvy.s:98     .text._ZN5daisy13AnalogControlD2Ev:0000000000000000 _ZN5daisy13AnalogControlD2Ev
/var/folders/7c/668hyr3s7rlgsbdftclf3hsr0000gn/T//ccVahvvy.s:98     .text._ZN5daisy13AnalogControlD2Ev:0000000000000000 _ZN5daisy13AnalogControlD1Ev
/var/folders/7c/668hyr3s7rlgsbdftclf3hsr0000gn/T//ccVahvvy.s:115    .text._ZN5daisy9DaisySeedD2Ev:0000000000000000 $t
/var/folders/7c/668hyr3s7rlgsbdftclf3hsr0000gn/T//ccVahvvy.s:122    .text._ZN5daisy9DaisySeedD2Ev:0000000000000000 _ZN5daisy9DaisySeedD2Ev
/var/folders/7c/668hyr3s7rlgsbdftclf3hsr0000gn/T//ccVahvvy.s:122    .text._ZN5daisy9DaisySeedD2Ev:0000000000000000 _ZN5daisy9DaisySeedD1Ev
/var/folders/7c/668hyr3s7rlgsbdftclf3hsr0000gn/T//ccVahvvy.s:163    .text._ZN7daisysp10Oscillator4InitEf:0000000000000000 $t
/var/folders/7c/668hyr3s7rlgsbdftclf3hsr0000gn/T//ccVahvvy.s:170    .text._ZN7daisysp10Oscillator4InitEf:0000000000000000 _ZN7daisysp10Oscillator4InitEf
/var/folders/7c/668hyr3s7rlgsbdftclf3hsr0000gn/T//ccVahvvy.s:239    .text._ZN7daisysp10Oscillator4InitEf:0000000000000040 $d
/var/folders/7c/668hyr3s7rlgsbdftclf3hsr0000gn/T//ccVahvvy.s:244    .text._Z11NextSamplesRfS_S_S_S_S_S_:0000000000000000 $t
/var/folders/7c/668hyr3s7rlgsbdftclf3hsr0000gn/T//ccVahvvy.s:251    .text._Z11NextSamplesRfS_S_S_S_S_S_:0000000000000000 _Z11NextSamplesRfS_S_S_S_S_S_
/var/folders/7c/668hyr3s7rlgsbdftclf3hsr0000gn/T//ccVahvvy.s:459    .text._Z11NextSamplesRfS_S_S_S_S_S_:00000000000000b8 $d
/var/folders/7c/668hyr3s7rlgsbdftclf3hsr0000gn/T//ccVahvvy.s:468    .text.startup.main:0000000000000000 $t
/var/folders/7c/668hyr3s7rlgsbdftclf3hsr0000gn/T//ccVahvvy.s:475    .text.startup.main:0000000000000000 main
/var/folders/7c/668hyr3s7rlgsbdftclf3hsr0000gn/T//ccVahvvy.s:1135   .text.startup.main:00000000000002c8 $d
/var/folders/7c/668hyr3s7rlgsbdftclf3hsr0000gn/T//ccVahvvy.s:2144   .text._ZL13AudioCallbackPKfPfj:0000000000000000 _ZL13AudioCallbackPKfPfj
/var/folders/7c/668hyr3s7rlgsbdftclf3hsr0000gn/T//ccVahvvy.s:1174   .text._Z13UpdateButtonsv:0000000000000000 $t
/var/folders/7c/668hyr3s7rlgsbdftclf3hsr0000gn/T//ccVahvvy.s:1181   .text._Z13UpdateButtonsv:0000000000000000 _Z13UpdateButtonsv
/var/folders/7c/668hyr3s7rlgsbdftclf3hsr0000gn/T//ccVahvvy.s:2034   .text._Z13UpdateButtonsv:0000000000000288 $d
/var/folders/7c/668hyr3s7rlgsbdftclf3hsr0000gn/T//ccVahvvy.s:2071   .text._Z13UpdateButtonsv:0000000000000300 $t
/var/folders/7c/668hyr3s7rlgsbdftclf3hsr0000gn/T//ccVahvvy.s:2130   .text._Z13UpdateButtonsv:0000000000000344 $d
/var/folders/7c/668hyr3s7rlgsbdftclf3hsr0000gn/T//ccVahvvy.s:2138   .text._ZL13AudioCallbackPKfPfj:0000000000000000 $t
/var/folders/7c/668hyr3s7rlgsbdftclf3hsr0000gn/T//ccVahvvy.s:2271   .text._ZL13AudioCallbackPKfPfj:000000000000006c $d
/var/folders/7c/668hyr3s7rlgsbdftclf3hsr0000gn/T//ccVahvvy.s:2278   .text._Z8Controlsv:0000000000000000 $t
/var/folders/7c/668hyr3s7rlgsbdftclf3hsr0000gn/T//ccVahvvy.s:2285   .text._Z8Controlsv:0000000000000000 _Z8Controlsv
/var/folders/7c/668hyr3s7rlgsbdftclf3hsr0000gn/T//ccVahvvy.s:2300   .text.startup._GLOBAL__sub_I_mode:0000000000000000 $t
/var/folders/7c/668hyr3s7rlgsbdftclf3hsr0000gn/T//ccVahvvy.s:2306   .text.startup._GLOBAL__sub_I_mode:0000000000000000 _GLOBAL__sub_I_mode
/var/folders/7c/668hyr3s7rlgsbdftclf3hsr0000gn/T//ccVahvvy.s:2695   .text.startup._GLOBAL__sub_I_mode:00000000000000fc $d
/var/folders/7c/668hyr3s7rlgsbdftclf3hsr0000gn/T//ccVahvvy.s:2730   .init_array:0000000000000000 $d
/var/folders/7c/668hyr3s7rlgsbdftclf3hsr0000gn/T//ccVahvvy.s:2784   .bss.C2:0000000000000000 C2
/var/folders/7c/668hyr3s7rlgsbdftclf3hsr0000gn/T//ccVahvvy.s:2770   .bss.B:0000000000000000 B
/var/folders/7c/668hyr3s7rlgsbdftclf3hsr0000gn/T//ccVahvvy.s:2763   .bss.AS:0000000000000000 AS
/var/folders/7c/668hyr3s7rlgsbdftclf3hsr0000gn/T//ccVahvvy.s:2756   .bss.A:0000000000000000 A
/var/folders/7c/668hyr3s7rlgsbdftclf3hsr0000gn/T//ccVahvvy.s:2840   .bss.GS:0000000000000000 GS
/var/folders/7c/668hyr3s7rlgsbdftclf3hsr0000gn/T//ccVahvvy.s:2833   .bss.G:0000000000000000 G
/var/folders/7c/668hyr3s7rlgsbdftclf3hsr0000gn/T//ccVahvvy.s:2826   .bss.FS:0000000000000000 FS
/var/folders/7c/668hyr3s7rlgsbdftclf3hsr0000gn/T//ccVahvvy.s:2819   .bss.F:0000000000000000 F
/var/folders/7c/668hyr3s7rlgsbdftclf3hsr0000gn/T//ccVahvvy.s:2812   .bss.E:0000000000000000 E
/var/folders/7c/668hyr3s7rlgsbdftclf3hsr0000gn/T//ccVahvvy.s:2805   .bss.DS:0000000000000000 DS
/var/folders/7c/668hyr3s7rlgsbdftclf3hsr0000gn/T//ccVahvvy.s:2798   .bss.D:0000000000000000 D
/var/folders/7c/668hyr3s7rlgsbdftclf3hsr0000gn/T//ccVahvvy.s:2791   .bss.CS:0000000000000000 CS
/var/folders/7c/668hyr3s7rlgsbdftclf3hsr0000gn/T//ccVahvvy.s:2777   .bss.C:0000000000000000 C
/var/folders/7c/668hyr3s7rlgsbdftclf3hsr0000gn/T//ccVahvvy.s:2923   .bss.octave_down:0000000000000000 octave_down
/var/folders/7c/668hyr3s7rlgsbdftclf3hsr0000gn/T//ccVahvvy.s:2930   .bss.octave_up:0000000000000000 octave_up
/var/folders/7c/668hyr3s7rlgsbdftclf3hsr0000gn/T//ccVahvvy.s:2916   .bss.octave:0000000000000000 octave
/var/folders/7c/668hyr3s7rlgsbdftclf3hsr0000gn/T//ccVahvvy.s:2937   .bss.oscFreq:0000000000000000 oscFreq
ARM GAS  /var/folders/7c/668hyr3s7rlgsbdftclf3hsr0000gn/T//ccVahvvy.s 			page 85


/var/folders/7c/668hyr3s7rlgsbdftclf3hsr0000gn/T//ccVahvvy.s:2943   .bss.vibrato:0000000000000000 vibrato
/var/folders/7c/668hyr3s7rlgsbdftclf3hsr0000gn/T//ccVahvvy.s:2909   .bss.mode:0000000000000000 mode
/var/folders/7c/668hyr3s7rlgsbdftclf3hsr0000gn/T//ccVahvvy.s:2752   .bss.A:0000000000000000 $d
/var/folders/7c/668hyr3s7rlgsbdftclf3hsr0000gn/T//ccVahvvy.s:2759   .bss.AS:0000000000000000 $d
/var/folders/7c/668hyr3s7rlgsbdftclf3hsr0000gn/T//ccVahvvy.s:2766   .bss.B:0000000000000000 $d
/var/folders/7c/668hyr3s7rlgsbdftclf3hsr0000gn/T//ccVahvvy.s:2773   .bss.C:0000000000000000 $d
/var/folders/7c/668hyr3s7rlgsbdftclf3hsr0000gn/T//ccVahvvy.s:2780   .bss.C2:0000000000000000 $d
/var/folders/7c/668hyr3s7rlgsbdftclf3hsr0000gn/T//ccVahvvy.s:2787   .bss.CS:0000000000000000 $d
/var/folders/7c/668hyr3s7rlgsbdftclf3hsr0000gn/T//ccVahvvy.s:2794   .bss.D:0000000000000000 $d
/var/folders/7c/668hyr3s7rlgsbdftclf3hsr0000gn/T//ccVahvvy.s:2801   .bss.DS:0000000000000000 $d
/var/folders/7c/668hyr3s7rlgsbdftclf3hsr0000gn/T//ccVahvvy.s:2808   .bss.E:0000000000000000 $d
/var/folders/7c/668hyr3s7rlgsbdftclf3hsr0000gn/T//ccVahvvy.s:2815   .bss.F:0000000000000000 $d
/var/folders/7c/668hyr3s7rlgsbdftclf3hsr0000gn/T//ccVahvvy.s:2822   .bss.FS:0000000000000000 $d
/var/folders/7c/668hyr3s7rlgsbdftclf3hsr0000gn/T//ccVahvvy.s:2829   .bss.G:0000000000000000 $d
/var/folders/7c/668hyr3s7rlgsbdftclf3hsr0000gn/T//ccVahvvy.s:2836   .bss.GS:0000000000000000 $d
/var/folders/7c/668hyr3s7rlgsbdftclf3hsr0000gn/T//ccVahvvy.s:2843   .bss._ZL2ad:0000000000000000 $d
/var/folders/7c/668hyr3s7rlgsbdftclf3hsr0000gn/T//ccVahvvy.s:2847   .bss._ZL2ad:0000000000000000 _ZL2ad
/var/folders/7c/668hyr3s7rlgsbdftclf3hsr0000gn/T//ccVahvvy.s:2850   .bss._ZL2hw:0000000000000000 $d
/var/folders/7c/668hyr3s7rlgsbdftclf3hsr0000gn/T//ccVahvvy.s:2854   .bss._ZL2hw:0000000000000000 _ZL2hw
/var/folders/7c/668hyr3s7rlgsbdftclf3hsr0000gn/T//ccVahvvy.s:2857   .bss._ZL4osc1:0000000000000000 $d
/var/folders/7c/668hyr3s7rlgsbdftclf3hsr0000gn/T//ccVahvvy.s:2861   .bss._ZL4osc1:0000000000000000 _ZL4osc1
/var/folders/7c/668hyr3s7rlgsbdftclf3hsr0000gn/T//ccVahvvy.s:2864   .bss._ZL4osc2:0000000000000000 $d
/var/folders/7c/668hyr3s7rlgsbdftclf3hsr0000gn/T//ccVahvvy.s:2868   .bss._ZL4osc2:0000000000000000 _ZL4osc2
/var/folders/7c/668hyr3s7rlgsbdftclf3hsr0000gn/T//ccVahvvy.s:2871   .bss._ZL4osc3:0000000000000000 $d
/var/folders/7c/668hyr3s7rlgsbdftclf3hsr0000gn/T//ccVahvvy.s:2875   .bss._ZL4osc3:0000000000000000 _ZL4osc3
/var/folders/7c/668hyr3s7rlgsbdftclf3hsr0000gn/T//ccVahvvy.s:2878   .bss._ZL4pot1:0000000000000000 $d
/var/folders/7c/668hyr3s7rlgsbdftclf3hsr0000gn/T//ccVahvvy.s:2882   .bss._ZL4pot1:0000000000000000 _ZL4pot1
/var/folders/7c/668hyr3s7rlgsbdftclf3hsr0000gn/T//ccVahvvy.s:2885   .bss._ZL4pot2:0000000000000000 $d
/var/folders/7c/668hyr3s7rlgsbdftclf3hsr0000gn/T//ccVahvvy.s:2889   .bss._ZL4pot2:0000000000000000 _ZL4pot2
/var/folders/7c/668hyr3s7rlgsbdftclf3hsr0000gn/T//ccVahvvy.s:2892   .bss._ZL4pot3:0000000000000000 $d
/var/folders/7c/668hyr3s7rlgsbdftclf3hsr0000gn/T//ccVahvvy.s:2896   .bss._ZL4pot3:0000000000000000 _ZL4pot3
/var/folders/7c/668hyr3s7rlgsbdftclf3hsr0000gn/T//ccVahvvy.s:2899   .bss._ZL9adcConfig:0000000000000000 $d
/var/folders/7c/668hyr3s7rlgsbdftclf3hsr0000gn/T//ccVahvvy.s:2903   .bss._ZL9adcConfig:0000000000000000 _ZL9adcConfig
/var/folders/7c/668hyr3s7rlgsbdftclf3hsr0000gn/T//ccVahvvy.s:2906   .bss.mode:0000000000000000 $d
/var/folders/7c/668hyr3s7rlgsbdftclf3hsr0000gn/T//ccVahvvy.s:2912   .bss.octave:0000000000000000 $d
/var/folders/7c/668hyr3s7rlgsbdftclf3hsr0000gn/T//ccVahvvy.s:2919   .bss.octave_down:0000000000000000 $d
/var/folders/7c/668hyr3s7rlgsbdftclf3hsr0000gn/T//ccVahvvy.s:2926   .bss.octave_up:0000000000000000 $d
/var/folders/7c/668hyr3s7rlgsbdftclf3hsr0000gn/T//ccVahvvy.s:2933   .bss.oscFreq:0000000000000000 $d
/var/folders/7c/668hyr3s7rlgsbdftclf3hsr0000gn/T//ccVahvvy.s:2940   .bss.vibrato:0000000000000000 $d
                           .group:0000000000000000 _ZN7daisysp5AdEnvD5Ev
                           .group:0000000000000000 _ZN7daisysp10OscillatorD5Ev
                           .group:0000000000000000 _ZN5daisy6SwitchD5Ev
                           .group:0000000000000000 _ZN5daisy13AnalogControlD5Ev
                           .group:0000000000000000 _ZN5daisy9DaisySeedD5Ev

UNDEFINED SYMBOLS
_ZN7daisysp10Oscillator12CalcPhaseIncEf
_ZN7daisysp5AdEnv7ProcessEv
_ZN7daisysp10Oscillator7ProcessEv
_ZN5daisy9DaisySeed9ConfigureEv
_ZN5daisy9DaisySeed4InitEb
_ZN5daisy9DaisySeed17SetAudioBlockSizeEj
_ZN5daisy9DaisySeed6GetPinEh
_ZN5daisy16AdcChannelConfig10InitSingleE12dsy_gpio_pinNS0_15ConversionSpeedE
_ZN5daisy9AdcHandle4InitEPNS_16AdcChannelConfigEjNS0_12OverSamplingE
_ZN5daisy9DaisySeed15AudioSampleRateEv
_ZN7daisysp5AdEnv4InitEf
ARM GAS  /var/folders/7c/668hyr3s7rlgsbdftclf3hsr0000gn/T//ccVahvvy.s 			page 86


_ZN5daisy6Switch4InitE12dsy_gpio_pinf
_ZNK5daisy9AdcHandle6GetPtrEh
_ZN5daisy13AnalogControl4InitEPtfbbf
_ZN5daisy9DaisySeed10StartAudioEPFvPKfPfjE
_ZN5daisy6Switch8DebounceEv
_ZN5daisy13AnalogControl7ProcessEv
__aeabi_atexit
__dso_handle
