ARM GAS  /var/folders/7c/668hyr3s7rlgsbdftclf3hsr0000gn/T//ccdjQHJK.s 			page 1


   1              		.cpu cortex-m7
   2              		.arch armv7e-m
   3              		.fpu fpv5-d16
   4              		.eabi_attribute 28, 1
   5              		.eabi_attribute 20, 1
   6              		.eabi_attribute 21, 1
   7              		.eabi_attribute 23, 3
   8              		.eabi_attribute 24, 1
   9              		.eabi_attribute 25, 1
  10              		.eabi_attribute 26, 1
  11              		.eabi_attribute 30, 2
  12              		.eabi_attribute 34, 1
  13              		.eabi_attribute 18, 4
  14              		.file	"keys.cpp"
  15              		.text
  16              	.Ltext0:
  17              		.cfi_sections	.debug_frame
  18              		.section	.text._ZN7daisysp5AdEnvD2Ev,"axG",%progbits,_ZN7daisysp5AdEnvD5Ev,comdat
  19              		.align	1
  20              		.p2align 2,,3
  21              		.weak	_ZN7daisysp5AdEnvD2Ev
  22              		.syntax unified
  23              		.thumb
  24              		.thumb_func
  26              	_ZN7daisysp5AdEnvD2Ev:
  27              	.LVL0:
  28              	.LFB548:
  29              		.file 1 "../DaisyExamples/DaisySP/Source/Control/adenv.h"
   1:../DaisyExamples/DaisySP/Source/Control/adenv.h **** /*
   2:../DaisyExamples/DaisySP/Source/Control/adenv.h **** Copyright (c) 2020 Electrosmith, Corp
   3:../DaisyExamples/DaisySP/Source/Control/adenv.h **** 
   4:../DaisyExamples/DaisySP/Source/Control/adenv.h **** Use of this source code is governed by an MIT-style
   5:../DaisyExamples/DaisySP/Source/Control/adenv.h **** license that can be found in the LICENSE file or at
   6:../DaisyExamples/DaisySP/Source/Control/adenv.h **** https://opensource.org/licenses/MIT.
   7:../DaisyExamples/DaisySP/Source/Control/adenv.h **** */
   8:../DaisyExamples/DaisySP/Source/Control/adenv.h **** 
   9:../DaisyExamples/DaisySP/Source/Control/adenv.h **** #pragma once
  10:../DaisyExamples/DaisySP/Source/Control/adenv.h **** #ifndef ADENV_H
  11:../DaisyExamples/DaisySP/Source/Control/adenv.h **** #define ADENV_H
  12:../DaisyExamples/DaisySP/Source/Control/adenv.h **** #include <stdint.h>
  13:../DaisyExamples/DaisySP/Source/Control/adenv.h **** #ifdef __cplusplus
  14:../DaisyExamples/DaisySP/Source/Control/adenv.h **** 
  15:../DaisyExamples/DaisySP/Source/Control/adenv.h **** namespace daisysp
  16:../DaisyExamples/DaisySP/Source/Control/adenv.h **** {
  17:../DaisyExamples/DaisySP/Source/Control/adenv.h **** /** Distinct stages that the phase of the envelope can be located in.
  18:../DaisyExamples/DaisySP/Source/Control/adenv.h ****     @see AdEnv
  19:../DaisyExamples/DaisySP/Source/Control/adenv.h **** */
  20:../DaisyExamples/DaisySP/Source/Control/adenv.h **** enum AdEnvSegment
  21:../DaisyExamples/DaisySP/Source/Control/adenv.h **** {
  22:../DaisyExamples/DaisySP/Source/Control/adenv.h ****     /** located at phase location 0, and not currently running */
  23:../DaisyExamples/DaisySP/Source/Control/adenv.h ****     ADENV_SEG_IDLE,
  24:../DaisyExamples/DaisySP/Source/Control/adenv.h ****     /** First segment of envelope where phase moves from MIN value to MAX value */
  25:../DaisyExamples/DaisySP/Source/Control/adenv.h ****     ADENV_SEG_ATTACK,
  26:../DaisyExamples/DaisySP/Source/Control/adenv.h ****     /** Second segment of envelope where phase moves from MAX to MIN value */
  27:../DaisyExamples/DaisySP/Source/Control/adenv.h ****     ADENV_SEG_DECAY,
  28:../DaisyExamples/DaisySP/Source/Control/adenv.h ****     /** The final segment of the envelope (currently decay) */
  29:../DaisyExamples/DaisySP/Source/Control/adenv.h ****     ADENV_SEG_LAST,
ARM GAS  /var/folders/7c/668hyr3s7rlgsbdftclf3hsr0000gn/T//ccdjQHJK.s 			page 2


  30:../DaisyExamples/DaisySP/Source/Control/adenv.h **** };
  31:../DaisyExamples/DaisySP/Source/Control/adenv.h **** 
  32:../DaisyExamples/DaisySP/Source/Control/adenv.h **** /** Trigger-able envelope with adjustable min/max, and independent per-segment time control.
  33:../DaisyExamples/DaisySP/Source/Control/adenv.h **** 
  34:../DaisyExamples/DaisySP/Source/Control/adenv.h ****     \author shensley
  35:../DaisyExamples/DaisySP/Source/Control/adenv.h ****     \todo - Add Cycling
  36:../DaisyExamples/DaisySP/Source/Control/adenv.h ****     \todo - Implement Curve (its only linear for now).
  37:../DaisyExamples/DaisySP/Source/Control/adenv.h ****     \todo - Maybe make this an ADsr_ that has AD/AR/Asr_ modes.
  38:../DaisyExamples/DaisySP/Source/Control/adenv.h ****  */
  39:../DaisyExamples/DaisySP/Source/Control/adenv.h **** class AdEnv
  40:../DaisyExamples/DaisySP/Source/Control/adenv.h **** {
  41:../DaisyExamples/DaisySP/Source/Control/adenv.h ****   public:
  42:../DaisyExamples/DaisySP/Source/Control/adenv.h ****     AdEnv() {}
  43:../DaisyExamples/DaisySP/Source/Control/adenv.h ****     ~AdEnv() {}
  30              		.loc 1 43 5 view -0
  31              		.cfi_startproc
  32              		@ args = 0, pretend = 0, frame = 0
  33              		@ frame_needed = 0, uses_anonymous_args = 0
  34              		@ link register save eliminated.
  35              		.loc 1 43 15 is_stmt 0 view .LVU1
  36 0000 7047     		bx	lr
  37              		.cfi_endproc
  38              	.LFE548:
  40              		.weak	_ZN7daisysp5AdEnvD1Ev
  41              		.thumb_set _ZN7daisysp5AdEnvD1Ev,_ZN7daisysp5AdEnvD2Ev
  42 0002 00BF     		.section	.text._ZN7daisysp10OscillatorD2Ev,"axG",%progbits,_ZN7daisysp10OscillatorD5Ev,comdat
  43              		.align	1
  44              		.p2align 2,,3
  45              		.weak	_ZN7daisysp10OscillatorD2Ev
  46              		.syntax unified
  47              		.thumb
  48              		.thumb_func
  50              	_ZN7daisysp10OscillatorD2Ev:
  51              	.LVL1:
  52              	.LFB2826:
  53              		.file 2 "../DaisyExamples/DaisySP/Source/Synthesis/oscillator.h"
   1:../DaisyExamples/DaisySP/Source/Synthesis/oscillator.h **** /*
   2:../DaisyExamples/DaisySP/Source/Synthesis/oscillator.h **** Copyright (c) 2020 Electrosmith, Corp
   3:../DaisyExamples/DaisySP/Source/Synthesis/oscillator.h **** 
   4:../DaisyExamples/DaisySP/Source/Synthesis/oscillator.h **** Use of this source code is governed by an MIT-style
   5:../DaisyExamples/DaisySP/Source/Synthesis/oscillator.h **** license that can be found in the LICENSE file or at
   6:../DaisyExamples/DaisySP/Source/Synthesis/oscillator.h **** https://opensource.org/licenses/MIT.
   7:../DaisyExamples/DaisySP/Source/Synthesis/oscillator.h **** */
   8:../DaisyExamples/DaisySP/Source/Synthesis/oscillator.h **** 
   9:../DaisyExamples/DaisySP/Source/Synthesis/oscillator.h **** #pragma once
  10:../DaisyExamples/DaisySP/Source/Synthesis/oscillator.h **** #ifndef DSY_OSCILLATOR_H
  11:../DaisyExamples/DaisySP/Source/Synthesis/oscillator.h **** #define DSY_OSCILLATOR_H
  12:../DaisyExamples/DaisySP/Source/Synthesis/oscillator.h **** #include <stdint.h>
  13:../DaisyExamples/DaisySP/Source/Synthesis/oscillator.h **** #include "Utility/dsp.h"
  14:../DaisyExamples/DaisySP/Source/Synthesis/oscillator.h **** #ifdef __cplusplus
  15:../DaisyExamples/DaisySP/Source/Synthesis/oscillator.h **** 
  16:../DaisyExamples/DaisySP/Source/Synthesis/oscillator.h **** namespace daisysp
  17:../DaisyExamples/DaisySP/Source/Synthesis/oscillator.h **** {
  18:../DaisyExamples/DaisySP/Source/Synthesis/oscillator.h **** /** Synthesis of several waveforms, including polyBLEP bandlimited waveforms.
  19:../DaisyExamples/DaisySP/Source/Synthesis/oscillator.h **** */
  20:../DaisyExamples/DaisySP/Source/Synthesis/oscillator.h **** class Oscillator
  21:../DaisyExamples/DaisySP/Source/Synthesis/oscillator.h **** {
ARM GAS  /var/folders/7c/668hyr3s7rlgsbdftclf3hsr0000gn/T//ccdjQHJK.s 			page 3


  22:../DaisyExamples/DaisySP/Source/Synthesis/oscillator.h ****   public:
  23:../DaisyExamples/DaisySP/Source/Synthesis/oscillator.h ****     Oscillator() {}
  24:../DaisyExamples/DaisySP/Source/Synthesis/oscillator.h ****     ~Oscillator() {}
  54              		.loc 2 24 5 is_stmt 1 view -0
  55              		.cfi_startproc
  56              		@ args = 0, pretend = 0, frame = 0
  57              		@ frame_needed = 0, uses_anonymous_args = 0
  58              		@ link register save eliminated.
  59              		.loc 2 24 20 is_stmt 0 view .LVU3
  60 0000 7047     		bx	lr
  61              		.cfi_endproc
  62              	.LFE2826:
  64              		.weak	_ZN7daisysp10OscillatorD1Ev
  65              		.thumb_set _ZN7daisysp10OscillatorD1Ev,_ZN7daisysp10OscillatorD2Ev
  66 0002 00BF     		.section	.text._ZN5daisy6SwitchD2Ev,"axG",%progbits,_ZN5daisy6SwitchD5Ev,comdat
  67              		.align	1
  68              		.p2align 2,,3
  69              		.weak	_ZN5daisy6SwitchD2Ev
  70              		.syntax unified
  71              		.thumb
  72              		.thumb_func
  74              	_ZN5daisy6SwitchD2Ev:
  75              	.LVL2:
  76              	.LFB3767:
  77              		.file 3 "../DaisyExamples/libDaisy/src/hid/switch.h"
   1:../DaisyExamples/libDaisy/src/hid/switch.h **** #pragma once
   2:../DaisyExamples/libDaisy/src/hid/switch.h **** #ifndef DSY_SWITCH_H
   3:../DaisyExamples/libDaisy/src/hid/switch.h **** #define DSY_SWITCH_H
   4:../DaisyExamples/libDaisy/src/hid/switch.h **** #include "daisy_core.h"
   5:../DaisyExamples/libDaisy/src/hid/switch.h **** #include "per/gpio.h"
   6:../DaisyExamples/libDaisy/src/hid/switch.h **** #include "sys/system.h"
   7:../DaisyExamples/libDaisy/src/hid/switch.h **** 
   8:../DaisyExamples/libDaisy/src/hid/switch.h **** namespace daisy
   9:../DaisyExamples/libDaisy/src/hid/switch.h **** {
  10:../DaisyExamples/libDaisy/src/hid/switch.h **** /** 
  11:../DaisyExamples/libDaisy/src/hid/switch.h ****     Generic Class for handling momentary/latching switches \n 
  12:../DaisyExamples/libDaisy/src/hid/switch.h ****     Inspired/influenced by Mutable Instruments (pichenettes) Switch classes
  13:../DaisyExamples/libDaisy/src/hid/switch.h ****     @author Stephen Hensley
  14:../DaisyExamples/libDaisy/src/hid/switch.h ****     @date December 2019
  15:../DaisyExamples/libDaisy/src/hid/switch.h ****     @ingroup controls
  16:../DaisyExamples/libDaisy/src/hid/switch.h **** */
  17:../DaisyExamples/libDaisy/src/hid/switch.h **** class Switch
  18:../DaisyExamples/libDaisy/src/hid/switch.h **** {
  19:../DaisyExamples/libDaisy/src/hid/switch.h ****   public:
  20:../DaisyExamples/libDaisy/src/hid/switch.h ****     /** Specifies the expected behavior of the switch */
  21:../DaisyExamples/libDaisy/src/hid/switch.h ****     enum Type
  22:../DaisyExamples/libDaisy/src/hid/switch.h ****     {
  23:../DaisyExamples/libDaisy/src/hid/switch.h ****         TYPE_TOGGLE,    /**< & */
  24:../DaisyExamples/libDaisy/src/hid/switch.h ****         TYPE_MOMENTARY, /**< & */
  25:../DaisyExamples/libDaisy/src/hid/switch.h ****     };
  26:../DaisyExamples/libDaisy/src/hid/switch.h ****     /** Specifies whether the pressed is HIGH or LOW. */
  27:../DaisyExamples/libDaisy/src/hid/switch.h ****     enum Polarity
  28:../DaisyExamples/libDaisy/src/hid/switch.h ****     {
  29:../DaisyExamples/libDaisy/src/hid/switch.h ****         POLARITY_NORMAL,   /**< & */
  30:../DaisyExamples/libDaisy/src/hid/switch.h ****         POLARITY_INVERTED, /**< & */
  31:../DaisyExamples/libDaisy/src/hid/switch.h ****     };
  32:../DaisyExamples/libDaisy/src/hid/switch.h **** 
ARM GAS  /var/folders/7c/668hyr3s7rlgsbdftclf3hsr0000gn/T//ccdjQHJK.s 			page 4


  33:../DaisyExamples/libDaisy/src/hid/switch.h ****     /** Specifies whether to use built-in Pull Up/Down resistors to hold button at a given state wh
  34:../DaisyExamples/libDaisy/src/hid/switch.h ****     enum Pull
  35:../DaisyExamples/libDaisy/src/hid/switch.h ****     {
  36:../DaisyExamples/libDaisy/src/hid/switch.h ****         PULL_UP,   /**< & */
  37:../DaisyExamples/libDaisy/src/hid/switch.h ****         PULL_DOWN, /**< & */
  38:../DaisyExamples/libDaisy/src/hid/switch.h ****         PULL_NONE, /**< & */
  39:../DaisyExamples/libDaisy/src/hid/switch.h ****     };
  40:../DaisyExamples/libDaisy/src/hid/switch.h **** 
  41:../DaisyExamples/libDaisy/src/hid/switch.h ****     Switch() {}
  42:../DaisyExamples/libDaisy/src/hid/switch.h ****     ~Switch() {}
  78              		.loc 3 42 5 is_stmt 1 view -0
  79              		.cfi_startproc
  80              		@ args = 0, pretend = 0, frame = 0
  81              		@ frame_needed = 0, uses_anonymous_args = 0
  82              		@ link register save eliminated.
  83              		.loc 3 42 16 is_stmt 0 view .LVU5
  84 0000 7047     		bx	lr
  85              		.cfi_endproc
  86              	.LFE3767:
  88              		.weak	_ZN5daisy6SwitchD1Ev
  89              		.thumb_set _ZN5daisy6SwitchD1Ev,_ZN5daisy6SwitchD2Ev
  90 0002 00BF     		.section	.text._ZN5daisy9DaisySeedD2Ev,"axG",%progbits,_ZN5daisy9DaisySeedD5Ev,comdat
  91              		.align	1
  92              		.p2align 2,,3
  93              		.weak	_ZN5daisy9DaisySeedD2Ev
  94              		.syntax unified
  95              		.thumb
  96              		.thumb_func
  98              	_ZN5daisy9DaisySeedD2Ev:
  99              	.LVL3:
 100              	.LFB4677:
 101              		.file 4 "../DaisyExamples/libDaisy/src/daisy_seed.h"
   1:../DaisyExamples/libDaisy/src/daisy_seed.h **** #pragma once
   2:../DaisyExamples/libDaisy/src/daisy_seed.h **** #ifndef DSY_SEED_H
   3:../DaisyExamples/libDaisy/src/daisy_seed.h **** #define DSY_SEED_H
   4:../DaisyExamples/libDaisy/src/daisy_seed.h **** 
   5:../DaisyExamples/libDaisy/src/daisy_seed.h **** #include "daisy.h"
   6:../DaisyExamples/libDaisy/src/daisy_seed.h **** 
   7:../DaisyExamples/libDaisy/src/daisy_seed.h **** //Uncomment this out if you're still using the rev2 hardware
   8:../DaisyExamples/libDaisy/src/daisy_seed.h **** //#define SEED_REV2
   9:../DaisyExamples/libDaisy/src/daisy_seed.h **** 
  10:../DaisyExamples/libDaisy/src/daisy_seed.h **** namespace daisy
  11:../DaisyExamples/libDaisy/src/daisy_seed.h **** {
  12:../DaisyExamples/libDaisy/src/daisy_seed.h **** /**
  13:../DaisyExamples/libDaisy/src/daisy_seed.h ****    @brief This is the higher-level interface for the Daisy board. \n 
  14:../DaisyExamples/libDaisy/src/daisy_seed.h ****     All basic peripheral configuration/initialization is setup here. \n
  15:../DaisyExamples/libDaisy/src/daisy_seed.h **** 
  16:../DaisyExamples/libDaisy/src/daisy_seed.h ****    @ingroup boards
  17:../DaisyExamples/libDaisy/src/daisy_seed.h **** */
  18:../DaisyExamples/libDaisy/src/daisy_seed.h **** class DaisySeed
  19:../DaisyExamples/libDaisy/src/daisy_seed.h **** {
  20:../DaisyExamples/libDaisy/src/daisy_seed.h ****   public:
  21:../DaisyExamples/libDaisy/src/daisy_seed.h ****     DaisySeed() {}
  22:../DaisyExamples/libDaisy/src/daisy_seed.h ****     ~DaisySeed() {}
 102              		.loc 4 22 5 is_stmt 1 view -0
 103              		.cfi_startproc
 104              		@ args = 0, pretend = 0, frame = 0
ARM GAS  /var/folders/7c/668hyr3s7rlgsbdftclf3hsr0000gn/T//ccdjQHJK.s 			page 5


 105              		@ frame_needed = 0, uses_anonymous_args = 0
 106              		@ link register save eliminated.
 107              	.LBB205:
 108              	.LBI205:
 109              		.file 5 "../DaisyExamples/libDaisy/src/sys/system.h"
   1:../DaisyExamples/libDaisy/src/sys/system.h **** #ifndef DSY_SYSTEM_H
   2:../DaisyExamples/libDaisy/src/sys/system.h **** #define DSY_SYSTEM_H
   3:../DaisyExamples/libDaisy/src/sys/system.h **** 
   4:../DaisyExamples/libDaisy/src/sys/system.h **** #ifndef UNIT_TEST // for unit tests, a dummy implementation is provided below
   5:../DaisyExamples/libDaisy/src/sys/system.h **** 
   6:../DaisyExamples/libDaisy/src/sys/system.h **** #include <cstdint>
   7:../DaisyExamples/libDaisy/src/sys/system.h **** #include "per/tim.h"
   8:../DaisyExamples/libDaisy/src/sys/system.h **** 
   9:../DaisyExamples/libDaisy/src/sys/system.h **** namespace daisy
  10:../DaisyExamples/libDaisy/src/sys/system.h **** {
  11:../DaisyExamples/libDaisy/src/sys/system.h **** /** A handle for interacting with the Core System.
  12:../DaisyExamples/libDaisy/src/sys/system.h ****  ** This includes the Clock tree, MPU, global DMA initialization,
  13:../DaisyExamples/libDaisy/src/sys/system.h ****  ** cache handling, and any other necessary global initiailzation
  14:../DaisyExamples/libDaisy/src/sys/system.h ****  **
  15:../DaisyExamples/libDaisy/src/sys/system.h ****  ** @author shensley
  16:../DaisyExamples/libDaisy/src/sys/system.h ****  ** @ingroup system
  17:../DaisyExamples/libDaisy/src/sys/system.h ****  */
  18:../DaisyExamples/libDaisy/src/sys/system.h **** class System
  19:../DaisyExamples/libDaisy/src/sys/system.h **** {
  20:../DaisyExamples/libDaisy/src/sys/system.h ****   public:
  21:../DaisyExamples/libDaisy/src/sys/system.h ****     /** Contains settings for initializing the System */
  22:../DaisyExamples/libDaisy/src/sys/system.h ****     struct Config
  23:../DaisyExamples/libDaisy/src/sys/system.h ****     {
  24:../DaisyExamples/libDaisy/src/sys/system.h ****         /** Specifies the system clock frequency that feeds APB/AHB clocks, etc. */
  25:../DaisyExamples/libDaisy/src/sys/system.h ****         enum class SysClkFreq
  26:../DaisyExamples/libDaisy/src/sys/system.h ****         {
  27:../DaisyExamples/libDaisy/src/sys/system.h ****             FREQ_400MHZ,
  28:../DaisyExamples/libDaisy/src/sys/system.h ****             FREQ_480MHZ,
  29:../DaisyExamples/libDaisy/src/sys/system.h ****         };
  30:../DaisyExamples/libDaisy/src/sys/system.h **** 
  31:../DaisyExamples/libDaisy/src/sys/system.h ****         /** Method to call on the struct to set to defaults
  32:../DaisyExamples/libDaisy/src/sys/system.h ****          ** CPU Freq set to 400MHz
  33:../DaisyExamples/libDaisy/src/sys/system.h ****          ** Cache Enabled
  34:../DaisyExamples/libDaisy/src/sys/system.h ****          ** */
  35:../DaisyExamples/libDaisy/src/sys/system.h ****         void Defaults()
  36:../DaisyExamples/libDaisy/src/sys/system.h ****         {
  37:../DaisyExamples/libDaisy/src/sys/system.h ****             cpu_freq    = SysClkFreq::FREQ_400MHZ;
  38:../DaisyExamples/libDaisy/src/sys/system.h ****             use_dcache  = true;
  39:../DaisyExamples/libDaisy/src/sys/system.h ****             use_icache  = true;
  40:../DaisyExamples/libDaisy/src/sys/system.h ****             skip_clocks = false;
  41:../DaisyExamples/libDaisy/src/sys/system.h ****         }
  42:../DaisyExamples/libDaisy/src/sys/system.h **** 
  43:../DaisyExamples/libDaisy/src/sys/system.h ****         /** Method to call on the struct to set to boost mode:
  44:../DaisyExamples/libDaisy/src/sys/system.h ****          ** CPU Freq set to 480MHz
  45:../DaisyExamples/libDaisy/src/sys/system.h ****          ** Cache Enabled
  46:../DaisyExamples/libDaisy/src/sys/system.h ****          ** */
  47:../DaisyExamples/libDaisy/src/sys/system.h ****         void Boost()
  48:../DaisyExamples/libDaisy/src/sys/system.h ****         {
  49:../DaisyExamples/libDaisy/src/sys/system.h ****             cpu_freq    = SysClkFreq::FREQ_480MHZ;
  50:../DaisyExamples/libDaisy/src/sys/system.h ****             use_dcache  = true;
  51:../DaisyExamples/libDaisy/src/sys/system.h ****             use_icache  = true;
  52:../DaisyExamples/libDaisy/src/sys/system.h ****             skip_clocks = false;
ARM GAS  /var/folders/7c/668hyr3s7rlgsbdftclf3hsr0000gn/T//ccdjQHJK.s 			page 6


  53:../DaisyExamples/libDaisy/src/sys/system.h ****         }
  54:../DaisyExamples/libDaisy/src/sys/system.h **** 
  55:../DaisyExamples/libDaisy/src/sys/system.h ****         SysClkFreq cpu_freq;
  56:../DaisyExamples/libDaisy/src/sys/system.h ****         bool       use_dcache;
  57:../DaisyExamples/libDaisy/src/sys/system.h ****         bool       use_icache;
  58:../DaisyExamples/libDaisy/src/sys/system.h ****         bool       skip_clocks;
  59:../DaisyExamples/libDaisy/src/sys/system.h ****     };
  60:../DaisyExamples/libDaisy/src/sys/system.h **** 
  61:../DaisyExamples/libDaisy/src/sys/system.h ****     /** Describes the different regions of memory available to the Daisy */
  62:../DaisyExamples/libDaisy/src/sys/system.h ****     enum MemoryRegion
  63:../DaisyExamples/libDaisy/src/sys/system.h ****     {
  64:../DaisyExamples/libDaisy/src/sys/system.h ****         INTERNAL_FLASH = 0,
  65:../DaisyExamples/libDaisy/src/sys/system.h ****         ITCMRAM,
  66:../DaisyExamples/libDaisy/src/sys/system.h ****         DTCMRAM,
  67:../DaisyExamples/libDaisy/src/sys/system.h ****         SRAM_D1,
  68:../DaisyExamples/libDaisy/src/sys/system.h ****         SRAM_D2,
  69:../DaisyExamples/libDaisy/src/sys/system.h ****         SRAM_D3,
  70:../DaisyExamples/libDaisy/src/sys/system.h ****         SDRAM,
  71:../DaisyExamples/libDaisy/src/sys/system.h ****         QSPI,
  72:../DaisyExamples/libDaisy/src/sys/system.h ****         INVALID_ADDRESS,
  73:../DaisyExamples/libDaisy/src/sys/system.h ****     };
  74:../DaisyExamples/libDaisy/src/sys/system.h **** 
  75:../DaisyExamples/libDaisy/src/sys/system.h ****     /** Bootloader struct for controlling bootloading parameters */
  76:../DaisyExamples/libDaisy/src/sys/system.h ****     struct BootInfo
  77:../DaisyExamples/libDaisy/src/sys/system.h ****     {
  78:../DaisyExamples/libDaisy/src/sys/system.h ****         enum class Type : uint32_t
  79:../DaisyExamples/libDaisy/src/sys/system.h ****         {
  80:../DaisyExamples/libDaisy/src/sys/system.h ****             INVALID      = 0x00000000,
  81:../DaisyExamples/libDaisy/src/sys/system.h ****             JUMP         = 0xDEADBEEF,
  82:../DaisyExamples/libDaisy/src/sys/system.h ****             SKIP_TIMEOUT = 0x5AFEB007,
  83:../DaisyExamples/libDaisy/src/sys/system.h ****             INF_TIMEOUT  = 0xB0074EFA,
  84:../DaisyExamples/libDaisy/src/sys/system.h ****         } status;
  85:../DaisyExamples/libDaisy/src/sys/system.h ****         uint32_t data;
  86:../DaisyExamples/libDaisy/src/sys/system.h ****         enum class Version : uint32_t
  87:../DaisyExamples/libDaisy/src/sys/system.h ****         {
  88:../DaisyExamples/libDaisy/src/sys/system.h ****             LT_v6_0 = 0, // Less than v6.0
  89:../DaisyExamples/libDaisy/src/sys/system.h ****             NONE,        // No bootloader present
  90:../DaisyExamples/libDaisy/src/sys/system.h ****             v6_0,        // v6.0
  91:../DaisyExamples/libDaisy/src/sys/system.h ****             v6_1,        // v6.1 or greater
  92:../DaisyExamples/libDaisy/src/sys/system.h ****             LAST
  93:../DaisyExamples/libDaisy/src/sys/system.h ****         } version;
  94:../DaisyExamples/libDaisy/src/sys/system.h ****     };
  95:../DaisyExamples/libDaisy/src/sys/system.h **** 
  96:../DaisyExamples/libDaisy/src/sys/system.h ****     System() {}
  97:../DaisyExamples/libDaisy/src/sys/system.h ****     ~System() {}
 110              		.loc 5 97 5 view .LVU7
 111              		.loc 5 97 5 is_stmt 0 view .LVU8
 112              	.LBE205:
 113              	.LBB206:
 114              	.LBI206:
 115              		.file 6 "../DaisyExamples/libDaisy/src/hid/usb.h"
   1:../DaisyExamples/libDaisy/src/hid/usb.h **** #pragma once
   2:../DaisyExamples/libDaisy/src/hid/usb.h **** #ifndef DSY_HID_USB_H
   3:../DaisyExamples/libDaisy/src/hid/usb.h **** #define DSY_HID_USB_H
   4:../DaisyExamples/libDaisy/src/hid/usb.h **** #include <stdint.h>
   5:../DaisyExamples/libDaisy/src/hid/usb.h **** #include <stdlib.h>
   6:../DaisyExamples/libDaisy/src/hid/usb.h **** 
ARM GAS  /var/folders/7c/668hyr3s7rlgsbdftclf3hsr0000gn/T//ccdjQHJK.s 			page 7


   7:../DaisyExamples/libDaisy/src/hid/usb.h **** namespace daisy
   8:../DaisyExamples/libDaisy/src/hid/usb.h **** /** @addtogroup human_interface
   9:../DaisyExamples/libDaisy/src/hid/usb.h ****     @{
  10:../DaisyExamples/libDaisy/src/hid/usb.h **** */
  11:../DaisyExamples/libDaisy/src/hid/usb.h **** 
  12:../DaisyExamples/libDaisy/src/hid/usb.h **** {
  13:../DaisyExamples/libDaisy/src/hid/usb.h **** /** 
  14:../DaisyExamples/libDaisy/src/hid/usb.h ****     @brief Interface for initializing and using the USB Peripherals on the daisy
  15:../DaisyExamples/libDaisy/src/hid/usb.h ****     @author Stephen Hensley
  16:../DaisyExamples/libDaisy/src/hid/usb.h ****     @date December 2019
  17:../DaisyExamples/libDaisy/src/hid/usb.h **** */
  18:../DaisyExamples/libDaisy/src/hid/usb.h **** class UsbHandle
  19:../DaisyExamples/libDaisy/src/hid/usb.h **** {
  20:../DaisyExamples/libDaisy/src/hid/usb.h ****   public:
  21:../DaisyExamples/libDaisy/src/hid/usb.h ****     /** Return values for USBHandle Functions */
  22:../DaisyExamples/libDaisy/src/hid/usb.h ****     enum class Result
  23:../DaisyExamples/libDaisy/src/hid/usb.h ****     {
  24:../DaisyExamples/libDaisy/src/hid/usb.h ****         OK,
  25:../DaisyExamples/libDaisy/src/hid/usb.h ****         ERR,
  26:../DaisyExamples/libDaisy/src/hid/usb.h ****     };
  27:../DaisyExamples/libDaisy/src/hid/usb.h **** 
  28:../DaisyExamples/libDaisy/src/hid/usb.h ****     /** Specified which of the two USB Peripherals to initialize. */
  29:../DaisyExamples/libDaisy/src/hid/usb.h ****     enum UsbPeriph
  30:../DaisyExamples/libDaisy/src/hid/usb.h ****     {
  31:../DaisyExamples/libDaisy/src/hid/usb.h ****         FS_INTERNAL, /**< Internal pin */
  32:../DaisyExamples/libDaisy/src/hid/usb.h ****         FS_EXTERNAL, /**< FS External D+ pin is Pin 38 (GPIO32). FS External D- pin is Pin 37 (GPIO
  33:../DaisyExamples/libDaisy/src/hid/usb.h ****         FS_BOTH,     /**< Both */
  34:../DaisyExamples/libDaisy/src/hid/usb.h ****     };
  35:../DaisyExamples/libDaisy/src/hid/usb.h **** 
  36:../DaisyExamples/libDaisy/src/hid/usb.h **** 
  37:../DaisyExamples/libDaisy/src/hid/usb.h ****     /** Function called upon reception of a buffer */
  38:../DaisyExamples/libDaisy/src/hid/usb.h ****     typedef void (*ReceiveCallback)(uint8_t* buff, uint32_t* len);
  39:../DaisyExamples/libDaisy/src/hid/usb.h **** 
  40:../DaisyExamples/libDaisy/src/hid/usb.h ****     UsbHandle() {}
  41:../DaisyExamples/libDaisy/src/hid/usb.h **** 
  42:../DaisyExamples/libDaisy/src/hid/usb.h ****     ~UsbHandle() {}
 116              		.loc 6 42 5 is_stmt 1 view .LVU9
 117              		.loc 6 42 5 is_stmt 0 view .LVU10
 118              	.LBE206:
 119              	.LBB207:
 120              	.LBI207:
 121              		.file 7 "../DaisyExamples/libDaisy/src/per/adc.h"
   1:../DaisyExamples/libDaisy/src/per/adc.h **** #pragma once
   2:../DaisyExamples/libDaisy/src/per/adc.h **** #ifndef DSY_ADC_H
   3:../DaisyExamples/libDaisy/src/per/adc.h **** #define DSY_ADC_H /**< Macro */
   4:../DaisyExamples/libDaisy/src/per/adc.h **** #include <stdint.h>
   5:../DaisyExamples/libDaisy/src/per/adc.h **** #include <stdlib.h>
   6:../DaisyExamples/libDaisy/src/per/adc.h **** #include "daisy_core.h"
   7:../DaisyExamples/libDaisy/src/per/adc.h **** #include "per/gpio.h"
   8:../DaisyExamples/libDaisy/src/per/adc.h **** 
   9:../DaisyExamples/libDaisy/src/per/adc.h **** #define DSY_ADC_MAX_CHANNELS 16 /**< Maximum number of ADC channels */
  10:../DaisyExamples/libDaisy/src/per/adc.h **** 
  11:../DaisyExamples/libDaisy/src/per/adc.h **** namespace daisy
  12:../DaisyExamples/libDaisy/src/per/adc.h **** {
  13:../DaisyExamples/libDaisy/src/per/adc.h **** /** @addtogroup per_analog
  14:../DaisyExamples/libDaisy/src/per/adc.h ****     @{
  15:../DaisyExamples/libDaisy/src/per/adc.h **** */
ARM GAS  /var/folders/7c/668hyr3s7rlgsbdftclf3hsr0000gn/T//ccdjQHJK.s 			page 8


  16:../DaisyExamples/libDaisy/src/per/adc.h **** 
  17:../DaisyExamples/libDaisy/src/per/adc.h **** /* While there may not be many configuration options here,
  18:../DaisyExamples/libDaisy/src/per/adc.h **** using a struct like this allows us to add more configuration
  19:../DaisyExamples/libDaisy/src/per/adc.h **** later without breaking existing functionality.
  20:../DaisyExamples/libDaisy/src/per/adc.h **** */
  21:../DaisyExamples/libDaisy/src/per/adc.h **** 
  22:../DaisyExamples/libDaisy/src/per/adc.h **** /** @brief   Configuration Structure for an ADC Channel 
  23:../DaisyExamples/libDaisy/src/per/adc.h ****  *  @details This can be used to configure a a single input, 
  24:../DaisyExamples/libDaisy/src/per/adc.h ****  *           or a multiplexed input, allowing up to 8 inputs on 
  25:../DaisyExamples/libDaisy/src/per/adc.h ****  *           one channel.
  26:../DaisyExamples/libDaisy/src/per/adc.h ****  *  @note    Sharing data lines to multiple muxes _is_ possible, but
  27:../DaisyExamples/libDaisy/src/per/adc.h ****  *           each channel sharing data lines must be set to the maximum
  28:../DaisyExamples/libDaisy/src/per/adc.h ****  *           number of channels, even if some multiplexers have fewer
  29:../DaisyExamples/libDaisy/src/per/adc.h ****  *           inputs connected.
  30:../DaisyExamples/libDaisy/src/per/adc.h **** */
  31:../DaisyExamples/libDaisy/src/per/adc.h **** struct AdcChannelConfig
  32:../DaisyExamples/libDaisy/src/per/adc.h **** {
  33:../DaisyExamples/libDaisy/src/per/adc.h ****     /** Which pin to use for multiplexing */
  34:../DaisyExamples/libDaisy/src/per/adc.h ****     enum MuxPin
  35:../DaisyExamples/libDaisy/src/per/adc.h ****     {
  36:../DaisyExamples/libDaisy/src/per/adc.h ****         MUX_SEL_0,    /**< & */
  37:../DaisyExamples/libDaisy/src/per/adc.h ****         MUX_SEL_1,    /**< & */
  38:../DaisyExamples/libDaisy/src/per/adc.h ****         MUX_SEL_2,    /**< & */
  39:../DaisyExamples/libDaisy/src/per/adc.h ****         MUX_SEL_LAST, /**< & */
  40:../DaisyExamples/libDaisy/src/per/adc.h ****     };
  41:../DaisyExamples/libDaisy/src/per/adc.h **** 
  42:../DaisyExamples/libDaisy/src/per/adc.h ****     /** \brief per channel conversion speed added to fixed time based on bitdepth, etc. */
  43:../DaisyExamples/libDaisy/src/per/adc.h ****     enum ConversionSpeed
  44:../DaisyExamples/libDaisy/src/per/adc.h ****     {
  45:../DaisyExamples/libDaisy/src/per/adc.h ****         SPEED_1CYCLES_5,
  46:../DaisyExamples/libDaisy/src/per/adc.h ****         SPEED_2CYCLES_5,
  47:../DaisyExamples/libDaisy/src/per/adc.h ****         SPEED_8CYCLES_5,
  48:../DaisyExamples/libDaisy/src/per/adc.h ****         SPEED_16CYCLES_5,
  49:../DaisyExamples/libDaisy/src/per/adc.h ****         SPEED_32CYCLES_5,
  50:../DaisyExamples/libDaisy/src/per/adc.h ****         SPEED_64CYCLES_5,
  51:../DaisyExamples/libDaisy/src/per/adc.h ****         SPEED_387CYCLES_5,
  52:../DaisyExamples/libDaisy/src/per/adc.h ****         SPEED_810CYCLES_5,
  53:../DaisyExamples/libDaisy/src/per/adc.h ****     };
  54:../DaisyExamples/libDaisy/src/per/adc.h **** 
  55:../DaisyExamples/libDaisy/src/per/adc.h ****     /** Initializes a single ADC pin as an ADC. 
  56:../DaisyExamples/libDaisy/src/per/adc.h ****     \param pin Pin to init.
  57:../DaisyExamples/libDaisy/src/per/adc.h ****     \param speed conversion speed for this pin defaults to 8.5 cycles
  58:../DaisyExamples/libDaisy/src/per/adc.h ****      */
  59:../DaisyExamples/libDaisy/src/per/adc.h ****     void InitSingle(dsy_gpio_pin pin, ConversionSpeed speed = SPEED_8CYCLES_5);
  60:../DaisyExamples/libDaisy/src/per/adc.h **** 
  61:../DaisyExamples/libDaisy/src/per/adc.h ****     /** 
  62:../DaisyExamples/libDaisy/src/per/adc.h ****     Initializes a single ADC pin as a Multiplexed ADC.
  63:../DaisyExamples/libDaisy/src/per/adc.h ****     Requires a CD405X Multiplexer connected to the pin.
  64:../DaisyExamples/libDaisy/src/per/adc.h ****     You only need to supply the mux pins that are required,
  65:../DaisyExamples/libDaisy/src/per/adc.h ****     e.g. a 4052 mux would only require mux_0 and mux_1.
  66:../DaisyExamples/libDaisy/src/per/adc.h ****     Internal Callbacks handle the pin addressing.
  67:../DaisyExamples/libDaisy/src/per/adc.h ****     \param adc_pin &
  68:../DaisyExamples/libDaisy/src/per/adc.h ****     \param mux_channels must be 1-8
  69:../DaisyExamples/libDaisy/src/per/adc.h ****     \param mux_0 First mux pin
  70:../DaisyExamples/libDaisy/src/per/adc.h ****     \param mux_1 Second mux pin
  71:../DaisyExamples/libDaisy/src/per/adc.h ****     \param mux_2 Third mux pin
  72:../DaisyExamples/libDaisy/src/per/adc.h ****     \param speed conversion speed for this pin defaults to 8.5 cycles
ARM GAS  /var/folders/7c/668hyr3s7rlgsbdftclf3hsr0000gn/T//ccdjQHJK.s 			page 9


  73:../DaisyExamples/libDaisy/src/per/adc.h ****     */
  74:../DaisyExamples/libDaisy/src/per/adc.h ****     void InitMux(dsy_gpio_pin    adc_pin,
  75:../DaisyExamples/libDaisy/src/per/adc.h ****                  size_t          mux_channels,
  76:../DaisyExamples/libDaisy/src/per/adc.h ****                  dsy_gpio_pin    mux_0,
  77:../DaisyExamples/libDaisy/src/per/adc.h ****                  dsy_gpio_pin    mux_1 = {DSY_GPIOX, 0},
  78:../DaisyExamples/libDaisy/src/per/adc.h ****                  dsy_gpio_pin    mux_2 = {DSY_GPIOX, 0},
  79:../DaisyExamples/libDaisy/src/per/adc.h ****                  ConversionSpeed speed = SPEED_8CYCLES_5);
  80:../DaisyExamples/libDaisy/src/per/adc.h **** 
  81:../DaisyExamples/libDaisy/src/per/adc.h ****     dsy_gpio        pin_;                   /**< & */
  82:../DaisyExamples/libDaisy/src/per/adc.h ****     dsy_gpio        mux_pin_[MUX_SEL_LAST]; /**< & */
  83:../DaisyExamples/libDaisy/src/per/adc.h ****     uint8_t         mux_channels_;          /**< & */
  84:../DaisyExamples/libDaisy/src/per/adc.h ****     ConversionSpeed speed_;
  85:../DaisyExamples/libDaisy/src/per/adc.h **** };
  86:../DaisyExamples/libDaisy/src/per/adc.h **** 
  87:../DaisyExamples/libDaisy/src/per/adc.h **** /**
  88:../DaisyExamples/libDaisy/src/per/adc.h ****    @brief Handler for analog to digital conversion
  89:../DaisyExamples/libDaisy/src/per/adc.h **** */
  90:../DaisyExamples/libDaisy/src/per/adc.h **** class AdcHandle
  91:../DaisyExamples/libDaisy/src/per/adc.h **** {
  92:../DaisyExamples/libDaisy/src/per/adc.h ****   public:
  93:../DaisyExamples/libDaisy/src/per/adc.h ****     /** Supported oversampling amounts */
  94:../DaisyExamples/libDaisy/src/per/adc.h ****     enum OverSampling
  95:../DaisyExamples/libDaisy/src/per/adc.h ****     {
  96:../DaisyExamples/libDaisy/src/per/adc.h ****         OVS_NONE, /**< & */
  97:../DaisyExamples/libDaisy/src/per/adc.h ****         OVS_4,    /**< & */
  98:../DaisyExamples/libDaisy/src/per/adc.h ****         OVS_8,    /**< & */
  99:../DaisyExamples/libDaisy/src/per/adc.h ****         OVS_16,   /**< & */
 100:../DaisyExamples/libDaisy/src/per/adc.h ****         OVS_32,   /**< & */
 101:../DaisyExamples/libDaisy/src/per/adc.h ****         OVS_64,   /**< & */
 102:../DaisyExamples/libDaisy/src/per/adc.h ****         OVS_128,  /**< & */
 103:../DaisyExamples/libDaisy/src/per/adc.h ****         OVS_256,  /**< & */
 104:../DaisyExamples/libDaisy/src/per/adc.h ****         OVS_512,  /**< & */
 105:../DaisyExamples/libDaisy/src/per/adc.h ****         OVS_1024, /**< & */
 106:../DaisyExamples/libDaisy/src/per/adc.h ****         OVS_LAST, /**< & */
 107:../DaisyExamples/libDaisy/src/per/adc.h ****     };
 108:../DaisyExamples/libDaisy/src/per/adc.h **** 
 109:../DaisyExamples/libDaisy/src/per/adc.h ****     AdcHandle() {}
 110:../DaisyExamples/libDaisy/src/per/adc.h ****     ~AdcHandle() {}
 122              		.loc 7 110 5 is_stmt 1 view .LVU11
 123              		.loc 7 110 5 is_stmt 0 view .LVU12
 124              	.LBE207:
 125              	.LBB208:
 126              	.LBI208:
 127              		.file 8 "../DaisyExamples/libDaisy/src/hid/audio.h"
   1:../DaisyExamples/libDaisy/src/hid/audio.h **** #ifndef DSY_AUDIO_H
   2:../DaisyExamples/libDaisy/src/hid/audio.h **** #define DSY_AUDIO_H /**< & */
   3:../DaisyExamples/libDaisy/src/hid/audio.h **** 
   4:../DaisyExamples/libDaisy/src/hid/audio.h **** #include "per/sai.h"
   5:../DaisyExamples/libDaisy/src/hid/audio.h **** 
   6:../DaisyExamples/libDaisy/src/hid/audio.h **** namespace daisy
   7:../DaisyExamples/libDaisy/src/hid/audio.h **** {
   8:../DaisyExamples/libDaisy/src/hid/audio.h **** /** @brief Audio Engine Handle
   9:../DaisyExamples/libDaisy/src/hid/audio.h ****  *  @ingroup audio 
  10:../DaisyExamples/libDaisy/src/hid/audio.h ****  *  @details This class allows for higher level access to an audio engine.
  11:../DaisyExamples/libDaisy/src/hid/audio.h ****  *           If you're using a SOM like the DaisySeed or DaisyPatchSM (or any 
  12:../DaisyExamples/libDaisy/src/hid/audio.h ****  *            board that includes one of those objects) then the intialization
  13:../DaisyExamples/libDaisy/src/hid/audio.h ****  *            is already taken  care of.
ARM GAS  /var/folders/7c/668hyr3s7rlgsbdftclf3hsr0000gn/T//ccdjQHJK.s 			page 10


  14:../DaisyExamples/libDaisy/src/hid/audio.h ****  *           If you're setting up your own custom hardware, or need to make changes
  15:../DaisyExamples/libDaisy/src/hid/audio.h ****  *           you will have to take the following steps:
  16:../DaisyExamples/libDaisy/src/hid/audio.h ****  *             1. Create and Initialize an SaiHandle or two depending on your requirements
  17:../DaisyExamples/libDaisy/src/hid/audio.h ****  *             2. Initialize the Audio Handle with the desired settings and the Initialized SaiHand
  18:../DaisyExamples/libDaisy/src/hid/audio.h ****  *             3. If the connected codec requires special configuration or initialization, do so
  19:../DaisyExamples/libDaisy/src/hid/audio.h ****  *             4. Write a callback method using either the AudioCallback or the InterleavingAudioCa
  20:../DaisyExamples/libDaisy/src/hid/audio.h ****  *             5. Start the Audio using one of the StartAudio function
  21:../DaisyExamples/libDaisy/src/hid/audio.h ****  */
  22:../DaisyExamples/libDaisy/src/hid/audio.h **** class AudioHandle
  23:../DaisyExamples/libDaisy/src/hid/audio.h **** {
  24:../DaisyExamples/libDaisy/src/hid/audio.h ****   public:
  25:../DaisyExamples/libDaisy/src/hid/audio.h ****     /** Manually configurable details about the Audio Engine */
  26:../DaisyExamples/libDaisy/src/hid/audio.h ****     /** TODO: Figure out how to get samplerate in here. */
  27:../DaisyExamples/libDaisy/src/hid/audio.h ****     struct Config
  28:../DaisyExamples/libDaisy/src/hid/audio.h ****     {
  29:../DaisyExamples/libDaisy/src/hid/audio.h ****         /** number of samples to process per callback */
  30:../DaisyExamples/libDaisy/src/hid/audio.h ****         size_t blocksize;
  31:../DaisyExamples/libDaisy/src/hid/audio.h **** 
  32:../DaisyExamples/libDaisy/src/hid/audio.h ****         /**< Sample rate of audio */
  33:../DaisyExamples/libDaisy/src/hid/audio.h ****         SaiHandle::Config::SampleRate samplerate;
  34:../DaisyExamples/libDaisy/src/hid/audio.h **** 
  35:../DaisyExamples/libDaisy/src/hid/audio.h ****         /** factor for adjustment before and after callback for hardware that may have extra headro
  36:../DaisyExamples/libDaisy/src/hid/audio.h ****         float postgain;
  37:../DaisyExamples/libDaisy/src/hid/audio.h **** 
  38:../DaisyExamples/libDaisy/src/hid/audio.h ****         /** factor for additional one-sided compensation to audio path for hardware that may
  39:../DaisyExamples/libDaisy/src/hid/audio.h ****          *  have unequal input/output ranges
  40:../DaisyExamples/libDaisy/src/hid/audio.h ****          */
  41:../DaisyExamples/libDaisy/src/hid/audio.h ****         float output_compensation;
  42:../DaisyExamples/libDaisy/src/hid/audio.h **** 
  43:../DaisyExamples/libDaisy/src/hid/audio.h ****         /** Sets default values for config struct */
  44:../DaisyExamples/libDaisy/src/hid/audio.h ****         Config()
  45:../DaisyExamples/libDaisy/src/hid/audio.h ****         : blocksize(48),
  46:../DaisyExamples/libDaisy/src/hid/audio.h ****           samplerate(SaiHandle::Config::SampleRate::SAI_48KHZ),
  47:../DaisyExamples/libDaisy/src/hid/audio.h ****           postgain(1.f),
  48:../DaisyExamples/libDaisy/src/hid/audio.h ****           output_compensation(1.f)
  49:../DaisyExamples/libDaisy/src/hid/audio.h ****         {
  50:../DaisyExamples/libDaisy/src/hid/audio.h ****         }
  51:../DaisyExamples/libDaisy/src/hid/audio.h ****     };
  52:../DaisyExamples/libDaisy/src/hid/audio.h **** 
  53:../DaisyExamples/libDaisy/src/hid/audio.h ****     enum class Result
  54:../DaisyExamples/libDaisy/src/hid/audio.h ****     {
  55:../DaisyExamples/libDaisy/src/hid/audio.h ****         OK,
  56:../DaisyExamples/libDaisy/src/hid/audio.h ****         ERR,
  57:../DaisyExamples/libDaisy/src/hid/audio.h ****     };
  58:../DaisyExamples/libDaisy/src/hid/audio.h **** 
  59:../DaisyExamples/libDaisy/src/hid/audio.h ****     /** Non-Interleaving input buffer
  60:../DaisyExamples/libDaisy/src/hid/audio.h ****      * Buffer arranged by float[chn][sample] 
  61:../DaisyExamples/libDaisy/src/hid/audio.h ****      * const so that the user can't modify the input
  62:../DaisyExamples/libDaisy/src/hid/audio.h ****      */
  63:../DaisyExamples/libDaisy/src/hid/audio.h ****     typedef const float* const* InputBuffer;
  64:../DaisyExamples/libDaisy/src/hid/audio.h **** 
  65:../DaisyExamples/libDaisy/src/hid/audio.h ****     /** Non-Interleaving output buffer
  66:../DaisyExamples/libDaisy/src/hid/audio.h ****      * Arranged by float[chn][sample] 
  67:../DaisyExamples/libDaisy/src/hid/audio.h ****      */
  68:../DaisyExamples/libDaisy/src/hid/audio.h ****     typedef float** OutputBuffer;
  69:../DaisyExamples/libDaisy/src/hid/audio.h **** 
  70:../DaisyExamples/libDaisy/src/hid/audio.h ****     /** Type for a Non-Interleaving audio callback 
ARM GAS  /var/folders/7c/668hyr3s7rlgsbdftclf3hsr0000gn/T//ccdjQHJK.s 			page 11


  71:../DaisyExamples/libDaisy/src/hid/audio.h ****      * Non-Interleaving audio callbacks in daisy will be of this type
  72:../DaisyExamples/libDaisy/src/hid/audio.h ****      */
  73:../DaisyExamples/libDaisy/src/hid/audio.h ****     typedef void (*AudioCallback)(InputBuffer  in,
  74:../DaisyExamples/libDaisy/src/hid/audio.h ****                                   OutputBuffer out,
  75:../DaisyExamples/libDaisy/src/hid/audio.h ****                                   size_t       size);
  76:../DaisyExamples/libDaisy/src/hid/audio.h **** 
  77:../DaisyExamples/libDaisy/src/hid/audio.h ****     /** Interleaving Input buffer
  78:../DaisyExamples/libDaisy/src/hid/audio.h ****      ** audio is prepared as { L0, R0, L1, R1, . . . LN, RN }]
  79:../DaisyExamples/libDaisy/src/hid/audio.h ****      ** this is const, as the user shouldn't modify it
  80:../DaisyExamples/libDaisy/src/hid/audio.h ****     */
  81:../DaisyExamples/libDaisy/src/hid/audio.h ****     typedef const float* InterleavingInputBuffer;
  82:../DaisyExamples/libDaisy/src/hid/audio.h **** 
  83:../DaisyExamples/libDaisy/src/hid/audio.h ****     /** Interleaving Output buffer 
  84:../DaisyExamples/libDaisy/src/hid/audio.h ****      ** audio is prepared as { L0, R0, L1, R1, . . . LN, RN }
  85:../DaisyExamples/libDaisy/src/hid/audio.h ****     */
  86:../DaisyExamples/libDaisy/src/hid/audio.h ****     typedef float* InterleavingOutputBuffer;
  87:../DaisyExamples/libDaisy/src/hid/audio.h **** 
  88:../DaisyExamples/libDaisy/src/hid/audio.h ****     /** Interleaving Audio Callback 
  89:../DaisyExamples/libDaisy/src/hid/audio.h ****      * Interleaving audio callbacks in daisy must be of this type
  90:../DaisyExamples/libDaisy/src/hid/audio.h ****      */
  91:../DaisyExamples/libDaisy/src/hid/audio.h ****     typedef void (*InterleavingAudioCallback)(InterleavingInputBuffer  in,
  92:../DaisyExamples/libDaisy/src/hid/audio.h ****                                               InterleavingOutputBuffer out,
  93:../DaisyExamples/libDaisy/src/hid/audio.h ****                                               size_t                   size);
  94:../DaisyExamples/libDaisy/src/hid/audio.h **** 
  95:../DaisyExamples/libDaisy/src/hid/audio.h ****     AudioHandle() : pimpl_(nullptr) {}
  96:../DaisyExamples/libDaisy/src/hid/audio.h ****     ~AudioHandle() {}
 128              		.loc 8 96 5 is_stmt 1 view .LVU13
 129              		.loc 8 96 5 is_stmt 0 view .LVU14
 130              	.LBE208:
 131              		.loc 4 22 19 view .LVU15
 132 0000 7047     		bx	lr
 133              		.cfi_endproc
 134              	.LFE4677:
 136              		.weak	_ZN5daisy9DaisySeedD1Ev
 137              		.thumb_set _ZN5daisy9DaisySeedD1Ev,_ZN5daisy9DaisySeedD2Ev
 138 0002 00BF     		.section	.text._Z11NextSamplesRf,"ax",%progbits
 139              		.align	1
 140              		.p2align 2,,3
 141              		.global	_Z11NextSamplesRf
 142              		.syntax unified
 143              		.thumb
 144              		.thumb_func
 146              	_Z11NextSamplesRf:
 147              	.LVL4:
 148              	.LFB4682:
 149              		.file 9 "keys.cpp"
   1:keys.cpp      **** #include "daisysp.h"
   2:keys.cpp      **** #include "daisy_seed.h"
   3:keys.cpp      **** 
   4:keys.cpp      **** using namespace daisysp;
   5:keys.cpp      **** using namespace daisy;
   6:keys.cpp      **** // Use the daisy namespace to prevent having to type
   7:keys.cpp      **** // daisy:: before all libdaisy functions
   8:keys.cpp      **** // Declare a DaisySeed object called hardware
   9:keys.cpp      **** 
  10:keys.cpp      **** static DaisySeed hw;
  11:keys.cpp      **** static Oscillator osc;
ARM GAS  /var/folders/7c/668hyr3s7rlgsbdftclf3hsr0000gn/T//ccdjQHJK.s 			page 12


  12:keys.cpp      **** static AdEnv      ad;
  13:keys.cpp      **** 
  14:keys.cpp      **** int   wave, mode;
  15:keys.cpp      **** float vibrato, oscFreq;
  16:keys.cpp      **** 
  17:keys.cpp      **** Switch C;
  18:keys.cpp      **** Switch CS;
  19:keys.cpp      **** Switch D;
  20:keys.cpp      **** Switch DS;
  21:keys.cpp      **** Switch E;
  22:keys.cpp      **** Switch F;
  23:keys.cpp      **** Switch FS;
  24:keys.cpp      **** Switch G;
  25:keys.cpp      **** Switch GS;
  26:keys.cpp      **** Switch A;
  27:keys.cpp      **** Switch AS;
  28:keys.cpp      **** Switch B;
  29:keys.cpp      **** Switch C2;
  30:keys.cpp      **** 
  31:keys.cpp      **** void Controls();
  32:keys.cpp      **** 
  33:keys.cpp      **** void NextSamples(float &sig)
  34:keys.cpp      **** {
 150              		.loc 9 34 1 is_stmt 1 view -0
 151              		.cfi_startproc
 152              		@ args = 0, pretend = 0, frame = 0
 153              		@ frame_needed = 0, uses_anonymous_args = 0
  35:keys.cpp      ****     float ad_out = ad.Process();
 154              		.loc 9 35 5 view .LVU17
  34:keys.cpp      ****     float ad_out = ad.Process();
 155              		.loc 9 34 1 is_stmt 0 view .LVU18
 156 0000 38B5     		push	{r3, r4, r5, lr}
 157              		.cfi_def_cfa_offset 16
 158              		.cfi_offset 3, -16
 159              		.cfi_offset 4, -12
 160              		.cfi_offset 5, -8
 161              		.cfi_offset 14, -4
 162 0002 0546     		mov	r5, r0
 163              		.loc 9 35 30 view .LVU19
 164 0004 0E48     		ldr	r0, .L8
 165              	.LVL5:
 166              	.LBB211:
 167              	.LBB212:
  25:../DaisyExamples/DaisySP/Source/Synthesis/oscillator.h ****     /** Choices for output waveforms, POLYBLEP are appropriately labeled. Others are naive forms.
  26:../DaisyExamples/DaisySP/Source/Synthesis/oscillator.h ****     */
  27:../DaisyExamples/DaisySP/Source/Synthesis/oscillator.h ****     enum
  28:../DaisyExamples/DaisySP/Source/Synthesis/oscillator.h ****     {
  29:../DaisyExamples/DaisySP/Source/Synthesis/oscillator.h ****         WAVE_SIN,
  30:../DaisyExamples/DaisySP/Source/Synthesis/oscillator.h ****         WAVE_TRI,
  31:../DaisyExamples/DaisySP/Source/Synthesis/oscillator.h ****         WAVE_SAW,
  32:../DaisyExamples/DaisySP/Source/Synthesis/oscillator.h ****         WAVE_RAMP,
  33:../DaisyExamples/DaisySP/Source/Synthesis/oscillator.h ****         WAVE_SQUARE,
  34:../DaisyExamples/DaisySP/Source/Synthesis/oscillator.h ****         WAVE_POLYBLEP_TRI,
  35:../DaisyExamples/DaisySP/Source/Synthesis/oscillator.h ****         WAVE_POLYBLEP_SAW,
  36:../DaisyExamples/DaisySP/Source/Synthesis/oscillator.h ****         WAVE_POLYBLEP_SQUARE,
  37:../DaisyExamples/DaisySP/Source/Synthesis/oscillator.h ****         WAVE_LAST,
  38:../DaisyExamples/DaisySP/Source/Synthesis/oscillator.h ****     };
ARM GAS  /var/folders/7c/668hyr3s7rlgsbdftclf3hsr0000gn/T//ccdjQHJK.s 			page 13


  39:../DaisyExamples/DaisySP/Source/Synthesis/oscillator.h **** 
  40:../DaisyExamples/DaisySP/Source/Synthesis/oscillator.h **** 
  41:../DaisyExamples/DaisySP/Source/Synthesis/oscillator.h ****     /** Initializes the Oscillator
  42:../DaisyExamples/DaisySP/Source/Synthesis/oscillator.h **** 
  43:../DaisyExamples/DaisySP/Source/Synthesis/oscillator.h ****         \param sample_rate - sample rate of the audio engine being run, and the frequency that the 
  44:../DaisyExamples/DaisySP/Source/Synthesis/oscillator.h **** 
  45:../DaisyExamples/DaisySP/Source/Synthesis/oscillator.h ****         Defaults:
  46:../DaisyExamples/DaisySP/Source/Synthesis/oscillator.h ****         - freq_ = 100 Hz
  47:../DaisyExamples/DaisySP/Source/Synthesis/oscillator.h ****         - amp_ = 0.5
  48:../DaisyExamples/DaisySP/Source/Synthesis/oscillator.h ****         - waveform_ = sine wave.
  49:../DaisyExamples/DaisySP/Source/Synthesis/oscillator.h ****     */
  50:../DaisyExamples/DaisySP/Source/Synthesis/oscillator.h ****     void Init(float sample_rate)
  51:../DaisyExamples/DaisySP/Source/Synthesis/oscillator.h ****     {
  52:../DaisyExamples/DaisySP/Source/Synthesis/oscillator.h ****         sr_        = sample_rate;
  53:../DaisyExamples/DaisySP/Source/Synthesis/oscillator.h ****         sr_recip_  = 1.0f / sample_rate;
  54:../DaisyExamples/DaisySP/Source/Synthesis/oscillator.h ****         freq_      = 100.0f;
  55:../DaisyExamples/DaisySP/Source/Synthesis/oscillator.h ****         amp_       = 0.5f;
  56:../DaisyExamples/DaisySP/Source/Synthesis/oscillator.h ****         pw_        = 0.5f;
  57:../DaisyExamples/DaisySP/Source/Synthesis/oscillator.h ****         phase_     = 0.0f;
  58:../DaisyExamples/DaisySP/Source/Synthesis/oscillator.h ****         phase_inc_ = CalcPhaseInc(freq_);
  59:../DaisyExamples/DaisySP/Source/Synthesis/oscillator.h ****         waveform_  = WAVE_SIN;
  60:../DaisyExamples/DaisySP/Source/Synthesis/oscillator.h ****         eoc_       = true;
  61:../DaisyExamples/DaisySP/Source/Synthesis/oscillator.h ****         eor_       = true;
  62:../DaisyExamples/DaisySP/Source/Synthesis/oscillator.h ****     }
  63:../DaisyExamples/DaisySP/Source/Synthesis/oscillator.h **** 
  64:../DaisyExamples/DaisySP/Source/Synthesis/oscillator.h **** 
  65:../DaisyExamples/DaisySP/Source/Synthesis/oscillator.h ****     /** Changes the frequency of the Oscillator, and recalculates phase increment.
  66:../DaisyExamples/DaisySP/Source/Synthesis/oscillator.h ****     */
  67:../DaisyExamples/DaisySP/Source/Synthesis/oscillator.h ****     inline void SetFreq(const float f)
  68:../DaisyExamples/DaisySP/Source/Synthesis/oscillator.h ****     {
  69:../DaisyExamples/DaisySP/Source/Synthesis/oscillator.h ****         freq_      = f;
 168              		.loc 2 69 20 view .LVU20
 169 0006 0F4C     		ldr	r4, .L8+4
 170              	.LBE212:
 171              	.LBE211:
  34:keys.cpp      ****     float ad_out = ad.Process();
 172              		.loc 9 34 1 view .LVU21
 173 0008 2DED028B 		vpush.64	{d8}
 174              		.cfi_def_cfa_offset 24
 175              		.cfi_offset 80, -24
 176              		.cfi_offset 81, -20
 177              		.loc 9 35 30 view .LVU22
 178 000c FFF7FEFF 		bl	_ZN7daisysp5AdEnv7ProcessEv
 179              	.LVL6:
  36:keys.cpp      ****     // vibrato      = lfo.Process();
  37:keys.cpp      **** 
  38:keys.cpp      ****     // osc.SetFreq(oscFreq + vibrato);
  39:keys.cpp      ****     osc.SetFreq(oscFreq);
 180              		.loc 9 39 16 view .LVU23
 181 0010 0D4B     		ldr	r3, .L8+8
  35:keys.cpp      ****     // vibrato      = lfo.Process();
 182              		.loc 9 35 30 view .LVU24
 183 0012 B0EE408A 		vmov.f32	s16, s0
 184              	.LVL7:
 185              		.loc 9 39 5 is_stmt 1 view .LVU25
 186              	.LBB216:
 187              	.LBB213:
ARM GAS  /var/folders/7c/668hyr3s7rlgsbdftclf3hsr0000gn/T//ccdjQHJK.s 			page 14


  70:../DaisyExamples/DaisySP/Source/Synthesis/oscillator.h ****         phase_inc_ = CalcPhaseInc(f);
 188              		.loc 2 70 34 is_stmt 0 view .LVU26
 189 0016 2046     		mov	r0, r4
 190              	.LBE213:
 191              	.LBE216:
 192              		.loc 9 39 16 view .LVU27
 193 0018 D3ED007A 		vldr.32	s15, [r3]
 194              	.LVL8:
 195              	.LBB217:
 196              	.LBI211:
  67:../DaisyExamples/DaisySP/Source/Synthesis/oscillator.h ****     {
 197              		.loc 2 67 17 is_stmt 1 view .LVU28
 198              	.LBB214:
  69:../DaisyExamples/DaisySP/Source/Synthesis/oscillator.h ****         phase_inc_ = CalcPhaseInc(f);
 199              		.loc 2 69 9 view .LVU29
 200              		.loc 2 70 34 is_stmt 0 view .LVU30
 201 001c B0EE670A 		vmov.f32	s0, s15
 202              	.LVL9:
  69:../DaisyExamples/DaisySP/Source/Synthesis/oscillator.h ****         phase_inc_ = CalcPhaseInc(f);
 203              		.loc 2 69 20 view .LVU31
 204 0020 C4ED027A 		vstr.32	s15, [r4, #8]
 205              		.loc 2 70 9 is_stmt 1 view .LVU32
 206              		.loc 2 70 34 is_stmt 0 view .LVU33
 207 0024 FFF7FEFF 		bl	_ZN7daisysp10Oscillator12CalcPhaseIncEf
 208              	.LVL10:
 209              		.loc 2 70 34 view .LVU34
 210              	.LBE214:
 211              	.LBE217:
  40:keys.cpp      **** 
  41:keys.cpp      ****     sig = osc.Process();
 212              		.loc 9 41 22 view .LVU35
 213 0028 2046     		mov	r0, r4
 214              	.LBB218:
 215              	.LBB215:
 216              		.loc 2 70 20 view .LVU36
 217 002a 84ED070A 		vstr.32	s0, [r4, #28]
 218              	.LVL11:
 219              		.loc 2 70 20 view .LVU37
 220              	.LBE215:
 221              	.LBE218:
 222              		.loc 9 41 5 is_stmt 1 view .LVU38
 223              		.loc 9 41 22 is_stmt 0 view .LVU39
 224 002e FFF7FEFF 		bl	_ZN7daisysp10Oscillator7ProcessEv
 225              	.LVL12:
  42:keys.cpp      ****     // sig = flt.Process(sig);
  43:keys.cpp      ****     sig *= ad_out;
 226              		.loc 9 43 5 is_stmt 1 view .LVU40
 227              		.loc 9 43 9 is_stmt 0 view .LVU41
 228 0032 20EE080A 		vmul.f32	s0, s0, s16
  44:keys.cpp      **** }
 229              		.loc 9 44 1 view .LVU42
 230 0036 BDEC028B 		vldm	sp!, {d8}
 231              		.cfi_restore 80
 232              		.cfi_restore 81
 233              		.cfi_def_cfa_offset 16
 234              	.LVL13:
  43:keys.cpp      **** }
ARM GAS  /var/folders/7c/668hyr3s7rlgsbdftclf3hsr0000gn/T//ccdjQHJK.s 			page 15


 235              		.loc 9 43 9 view .LVU43
 236 003a 85ED000A 		vstr.32	s0, [r5]
 237              		.loc 9 44 1 view .LVU44
 238 003e 38BD     		pop	{r3, r4, r5, pc}
 239              	.LVL14:
 240              	.L9:
 241              		.loc 9 44 1 view .LVU45
 242              		.align	2
 243              	.L8:
 244 0040 00000000 		.word	.LANCHOR0
 245 0044 00000000 		.word	.LANCHOR2
 246 0048 00000000 		.word	.LANCHOR1
 247              		.cfi_endproc
 248              	.LFE4682:
 250              		.section	.text.startup.main,"ax",%progbits
 251              		.align	1
 252              		.p2align 2,,3
 253              		.global	main
 254              		.syntax unified
 255              		.thumb
 256              		.thumb_func
 258              	main:
 259              	.LFB4684:
  45:keys.cpp      **** 
  46:keys.cpp      **** static void AudioCallback(AudioHandle::InterleavingInputBuffer  in,
  47:keys.cpp      ****                           AudioHandle::InterleavingOutputBuffer out,
  48:keys.cpp      ****                           size_t                                size)
  49:keys.cpp      **** {
  50:keys.cpp      ****     Controls();
  51:keys.cpp      **** 
  52:keys.cpp      **** 
  53:keys.cpp      ****     for(size_t i = 0; i < size; i += 2)
  54:keys.cpp      ****     {
  55:keys.cpp      ****         float sig;
  56:keys.cpp      ****         NextSamples(sig);
  57:keys.cpp      **** 
  58:keys.cpp      ****         // left out
  59:keys.cpp      ****         out[i] = sig;
  60:keys.cpp      **** 
  61:keys.cpp      ****         // right out
  62:keys.cpp      ****         out[i + 1] = sig;
  63:keys.cpp      ****     }
  64:keys.cpp      **** }
  65:keys.cpp      **** 
  66:keys.cpp      **** int main(void){
 260              		.loc 9 66 15 is_stmt 1 view -0
 261              		.cfi_startproc
 262              		@ args = 0, pretend = 0, frame = 56
 263              		@ frame_needed = 0, uses_anonymous_args = 0
  67:keys.cpp      ****     // global variables
  68:keys.cpp      ****     float sample_rate;
 264              		.loc 9 68 5 view .LVU47
  69:keys.cpp      ****     oscFreq = 1000.0f;
 265              		.loc 9 69 5 view .LVU48
  66:keys.cpp      ****     // global variables
 266              		.loc 9 66 15 is_stmt 0 view .LVU49
 267 0000 F0B5     		push	{r4, r5, r6, r7, lr}
ARM GAS  /var/folders/7c/668hyr3s7rlgsbdftclf3hsr0000gn/T//ccdjQHJK.s 			page 16


 268              		.cfi_def_cfa_offset 20
 269              		.cfi_offset 4, -20
 270              		.cfi_offset 5, -16
 271              		.cfi_offset 6, -12
 272              		.cfi_offset 7, -8
 273              		.cfi_offset 14, -4
 274              		.loc 9 69 13 view .LVU50
 275 0002 754B     		ldr	r3, .L13
 276              	.LBB237:
 277              	.LBB238:
  55:../DaisyExamples/DaisySP/Source/Synthesis/oscillator.h ****         pw_        = 0.5f;
 278              		.loc 2 55 20 view .LVU51
 279 0004 4FF07C56 		mov	r6, #1056964608
 280              	.LBE238:
 281              	.LBE237:
  70:keys.cpp      **** 
  71:keys.cpp      ****     //Init everything
  72:keys.cpp      ****     hw.Configure();
 282              		.loc 9 72 17 view .LVU52
 283 0008 7448     		ldr	r0, .L13+4
 284              	.LBB243:
 285              	.LBB239:
  57:../DaisyExamples/DaisySP/Source/Synthesis/oscillator.h ****         phase_inc_ = CalcPhaseInc(freq_);
 286              		.loc 2 57 20 view .LVU53
 287 000a 0027     		movs	r7, #0
  52:../DaisyExamples/DaisySP/Source/Synthesis/oscillator.h ****         sr_recip_  = 1.0f / sample_rate;
 288              		.loc 2 52 20 view .LVU54
 289 000c 744C     		ldr	r4, .L13+8
 290              	.LBE239:
 291              	.LBE243:
  73:keys.cpp      ****     hw.Init();
  74:keys.cpp      ****     hw.SetAudioBlockSize(4);
  75:keys.cpp      **** 
  76:keys.cpp      ****     sample_rate = hw.AudioSampleRate();
  77:keys.cpp      ****     osc.Init(sample_rate);
  78:keys.cpp      ****     ad.Init(sample_rate);
 292              		.loc 9 78 12 view .LVU55
 293 000e 754D     		ldr	r5, .L13+12
  66:keys.cpp      ****     // global variables
 294              		.loc 9 66 15 view .LVU56
 295 0010 2DED048B 		vpush.64	{d8, d9}
 296              		.cfi_def_cfa_offset 36
 297              		.cfi_offset 80, -36
 298              		.cfi_offset 81, -32
 299              		.cfi_offset 82, -28
 300              		.cfi_offset 83, -24
  69:keys.cpp      **** 
 301              		.loc 9 69 13 view .LVU57
 302 0014 9FED748A 		vldr.32	s16, .L13+16
  66:keys.cpp      ****     // global variables
 303              		.loc 9 66 15 view .LVU58
 304 0018 8FB0     		sub	sp, sp, #60
 305              		.cfi_def_cfa_offset 96
 306              	.LBB244:
 307              	.LBB240:
  53:../DaisyExamples/DaisySP/Source/Synthesis/oscillator.h ****         freq_      = 100.0f;
 308              		.loc 2 53 27 view .LVU59
ARM GAS  /var/folders/7c/668hyr3s7rlgsbdftclf3hsr0000gn/T//ccdjQHJK.s 			page 17


 309 001a B7EE009A 		vmov.f32	s18, #1.0e+0
 310              	.LBE240:
 311              	.LBE244:
  69:keys.cpp      **** 
 312              		.loc 9 69 13 view .LVU60
 313 001e 83ED008A 		vstr.32	s16, [r3]
  72:keys.cpp      ****     hw.Init();
 314              		.loc 9 72 5 is_stmt 1 view .LVU61
  72:keys.cpp      ****     hw.Init();
 315              		.loc 9 72 17 is_stmt 0 view .LVU62
 316 0022 FFF7FEFF 		bl	_ZN5daisy9DaisySeed9ConfigureEv
 317              	.LVL15:
  73:keys.cpp      ****     hw.SetAudioBlockSize(4);
 318              		.loc 9 73 5 is_stmt 1 view .LVU63
  73:keys.cpp      ****     hw.SetAudioBlockSize(4);
 319              		.loc 9 73 12 is_stmt 0 view .LVU64
 320 0026 0021     		movs	r1, #0
 321 0028 6C48     		ldr	r0, .L13+4
 322 002a FFF7FEFF 		bl	_ZN5daisy9DaisySeed4InitEb
 323              	.LVL16:
  74:keys.cpp      **** 
 324              		.loc 9 74 5 is_stmt 1 view .LVU65
  74:keys.cpp      **** 
 325              		.loc 9 74 25 is_stmt 0 view .LVU66
 326 002e 0421     		movs	r1, #4
 327 0030 6A48     		ldr	r0, .L13+4
 328 0032 FFF7FEFF 		bl	_ZN5daisy9DaisySeed17SetAudioBlockSizeEj
 329              	.LVL17:
  76:keys.cpp      ****     osc.Init(sample_rate);
 330              		.loc 9 76 5 is_stmt 1 view .LVU67
  76:keys.cpp      ****     osc.Init(sample_rate);
 331              		.loc 9 76 37 is_stmt 0 view .LVU68
 332 0036 6948     		ldr	r0, .L13+4
 333 0038 FFF7FEFF 		bl	_ZN5daisy9DaisySeed15AudioSampleRateEv
 334              	.LVL18:
 335 003c F0EE408A 		vmov.f32	s17, s0
 336              	.LVL19:
  77:keys.cpp      ****     ad.Init(sample_rate);
 337              		.loc 9 77 5 is_stmt 1 view .LVU69
 338              	.LBB245:
 339              	.LBI237:
  50:../DaisyExamples/DaisySP/Source/Synthesis/oscillator.h ****     {
 340              		.loc 2 50 10 view .LVU70
 341              	.LBB241:
  52:../DaisyExamples/DaisySP/Source/Synthesis/oscillator.h ****         sr_recip_  = 1.0f / sample_rate;
 342              		.loc 2 52 9 view .LVU71
  54:../DaisyExamples/DaisySP/Source/Synthesis/oscillator.h ****         amp_       = 0.5f;
 343              		.loc 2 54 20 is_stmt 0 view .LVU72
 344 0040 DFED6A7A 		vldr.32	s15, .L13+20
  58:../DaisyExamples/DaisySP/Source/Synthesis/oscillator.h ****         waveform_  = WAVE_SIN;
 345              		.loc 2 58 34 view .LVU73
 346 0044 2046     		mov	r0, r4
  55:../DaisyExamples/DaisySP/Source/Synthesis/oscillator.h ****         pw_        = 0.5f;
 347              		.loc 2 55 20 view .LVU74
 348 0046 6660     		str	r6, [r4, #4]	@ float
  53:../DaisyExamples/DaisySP/Source/Synthesis/oscillator.h ****         freq_      = 100.0f;
 349              		.loc 2 53 27 view .LVU75
ARM GAS  /var/folders/7c/668hyr3s7rlgsbdftclf3hsr0000gn/T//ccdjQHJK.s 			page 18


 350 0048 89EE287A 		vdiv.f32	s14, s18, s17
  54:../DaisyExamples/DaisySP/Source/Synthesis/oscillator.h ****         amp_       = 0.5f;
 351              		.loc 2 54 20 view .LVU76
 352 004c C4ED027A 		vstr.32	s15, [r4, #8]
  52:../DaisyExamples/DaisySP/Source/Synthesis/oscillator.h ****         sr_recip_  = 1.0f / sample_rate;
 353              		.loc 2 52 20 view .LVU77
 354 0050 C4ED048A 		vstr.32	s17, [r4, #16]
  53:../DaisyExamples/DaisySP/Source/Synthesis/oscillator.h ****         freq_      = 100.0f;
 355              		.loc 2 53 9 is_stmt 1 view .LVU78
  56:../DaisyExamples/DaisySP/Source/Synthesis/oscillator.h ****         phase_     = 0.0f;
 356              		.loc 2 56 20 is_stmt 0 view .LVU79
 357 0054 E660     		str	r6, [r4, #12]	@ float
  57:../DaisyExamples/DaisySP/Source/Synthesis/oscillator.h ****         phase_inc_ = CalcPhaseInc(freq_);
 358              		.loc 2 57 20 view .LVU80
 359 0056 A761     		str	r7, [r4, #24]	@ float
  58:../DaisyExamples/DaisySP/Source/Synthesis/oscillator.h ****         waveform_  = WAVE_SIN;
 360              		.loc 2 58 34 view .LVU81
 361 0058 B0EE670A 		vmov.f32	s0, s15
 362              	.LVL20:
  53:../DaisyExamples/DaisySP/Source/Synthesis/oscillator.h ****         freq_      = 100.0f;
 363              		.loc 2 53 20 view .LVU82
 364 005c 84ED057A 		vstr.32	s14, [r4, #20]
  54:../DaisyExamples/DaisySP/Source/Synthesis/oscillator.h ****         amp_       = 0.5f;
 365              		.loc 2 54 9 is_stmt 1 view .LVU83
  55:../DaisyExamples/DaisySP/Source/Synthesis/oscillator.h ****         pw_        = 0.5f;
 366              		.loc 2 55 9 view .LVU84
  56:../DaisyExamples/DaisySP/Source/Synthesis/oscillator.h ****         phase_     = 0.0f;
 367              		.loc 2 56 9 view .LVU85
  57:../DaisyExamples/DaisySP/Source/Synthesis/oscillator.h ****         phase_inc_ = CalcPhaseInc(freq_);
 368              		.loc 2 57 9 view .LVU86
  58:../DaisyExamples/DaisySP/Source/Synthesis/oscillator.h ****         waveform_  = WAVE_SIN;
 369              		.loc 2 58 9 view .LVU87
  58:../DaisyExamples/DaisySP/Source/Synthesis/oscillator.h ****         waveform_  = WAVE_SIN;
 370              		.loc 2 58 34 is_stmt 0 view .LVU88
 371 0060 FFF7FEFF 		bl	_ZN7daisysp10Oscillator12CalcPhaseIncEf
 372              	.LVL21:
  59:../DaisyExamples/DaisySP/Source/Synthesis/oscillator.h ****         eoc_       = true;
 373              		.loc 2 59 20 view .LVU89
 374 0064 0023     		movs	r3, #0
  58:../DaisyExamples/DaisySP/Source/Synthesis/oscillator.h ****         waveform_  = WAVE_SIN;
 375              		.loc 2 58 34 view .LVU90
 376 0066 F0EE407A 		vmov.f32	s15, s0
 377              	.LBE241:
 378              	.LBE245:
 379              		.loc 9 78 12 view .LVU91
 380 006a 2846     		mov	r0, r5
 381 006c B0EE680A 		vmov.f32	s0, s17
 382              	.LBB246:
 383              	.LBB242:
  59:../DaisyExamples/DaisySP/Source/Synthesis/oscillator.h ****         eoc_       = true;
 384              		.loc 2 59 20 view .LVU92
 385 0070 2370     		strb	r3, [r4]
  61:../DaisyExamples/DaisySP/Source/Synthesis/oscillator.h ****     }
 386              		.loc 2 61 20 view .LVU93
 387 0072 40F20113 		movw	r3, #257
  58:../DaisyExamples/DaisySP/Source/Synthesis/oscillator.h ****         waveform_  = WAVE_SIN;
 388              		.loc 2 58 20 view .LVU94
ARM GAS  /var/folders/7c/668hyr3s7rlgsbdftclf3hsr0000gn/T//ccdjQHJK.s 			page 19


 389 0076 C4ED077A 		vstr.32	s15, [r4, #28]
  59:../DaisyExamples/DaisySP/Source/Synthesis/oscillator.h ****         eoc_       = true;
 390              		.loc 2 59 9 is_stmt 1 view .LVU95
  60:../DaisyExamples/DaisySP/Source/Synthesis/oscillator.h ****         eor_       = true;
 391              		.loc 2 60 9 view .LVU96
  61:../DaisyExamples/DaisySP/Source/Synthesis/oscillator.h ****     }
 392              		.loc 2 61 9 view .LVU97
  61:../DaisyExamples/DaisySP/Source/Synthesis/oscillator.h ****     }
 393              		.loc 2 61 20 is_stmt 0 view .LVU98
 394 007a 2385     		strh	r3, [r4, #40]	@ movhi
 395              	.LVL22:
  61:../DaisyExamples/DaisySP/Source/Synthesis/oscillator.h ****     }
 396              		.loc 2 61 20 view .LVU99
 397              	.LBE242:
 398              	.LBE246:
 399              		.loc 9 78 5 is_stmt 1 view .LVU100
 400              		.loc 9 78 12 is_stmt 0 view .LVU101
 401 007c FFF7FEFF 		bl	_ZN7daisysp5AdEnv4InitEf
 402              	.LVL23:
  79:keys.cpp      **** 
  80:keys.cpp      ****     C2.Init(hw.GetPin(13), 1000);
 403              		.loc 9 80 5 is_stmt 1 view .LVU102
 404              		.loc 9 80 12 is_stmt 0 view .LVU103
 405 0080 0D20     		movs	r0, #13
 406 0082 FFF7FEFF 		bl	_ZN5daisy9DaisySeed6GetPinEh
 407              	.LVL24:
 408 0086 ADF80400 		strh	r0, [sp, #4]	@ movhi
 409 008a B0EE480A 		vmov.f32	s0, s16
 410 008e 0199     		ldr	r1, [sp, #4]
 411 0090 5748     		ldr	r0, .L13+24
 412 0092 FFF7FEFF 		bl	_ZN5daisy6Switch4InitE12dsy_gpio_pinf
 413              	.LVL25:
  81:keys.cpp      ****     B.Init(hw.GetPin(12), 1000);
 414              		.loc 9 81 5 is_stmt 1 view .LVU104
 415              		.loc 9 81 11 is_stmt 0 view .LVU105
 416 0096 0C20     		movs	r0, #12
 417 0098 FFF7FEFF 		bl	_ZN5daisy9DaisySeed6GetPinEh
 418              	.LVL26:
 419 009c ADF80800 		strh	r0, [sp, #8]	@ movhi
 420 00a0 B0EE480A 		vmov.f32	s0, s16
 421 00a4 0299     		ldr	r1, [sp, #8]
 422 00a6 5348     		ldr	r0, .L13+28
 423 00a8 FFF7FEFF 		bl	_ZN5daisy6Switch4InitE12dsy_gpio_pinf
 424              	.LVL27:
  82:keys.cpp      ****     AS.Init(hw.GetPin(11), 1000);
 425              		.loc 9 82 5 is_stmt 1 view .LVU106
 426              		.loc 9 82 12 is_stmt 0 view .LVU107
 427 00ac 0B20     		movs	r0, #11
 428 00ae FFF7FEFF 		bl	_ZN5daisy9DaisySeed6GetPinEh
 429              	.LVL28:
 430 00b2 ADF80C00 		strh	r0, [sp, #12]	@ movhi
 431 00b6 B0EE480A 		vmov.f32	s0, s16
 432 00ba 0399     		ldr	r1, [sp, #12]
 433 00bc 4E48     		ldr	r0, .L13+32
 434 00be FFF7FEFF 		bl	_ZN5daisy6Switch4InitE12dsy_gpio_pinf
 435              	.LVL29:
  83:keys.cpp      ****     A.Init(hw.GetPin(10), 1000);
ARM GAS  /var/folders/7c/668hyr3s7rlgsbdftclf3hsr0000gn/T//ccdjQHJK.s 			page 20


 436              		.loc 9 83 5 is_stmt 1 view .LVU108
 437              		.loc 9 83 11 is_stmt 0 view .LVU109
 438 00c2 0A20     		movs	r0, #10
 439 00c4 FFF7FEFF 		bl	_ZN5daisy9DaisySeed6GetPinEh
 440              	.LVL30:
 441 00c8 ADF81000 		strh	r0, [sp, #16]	@ movhi
 442 00cc B0EE480A 		vmov.f32	s0, s16
 443 00d0 0499     		ldr	r1, [sp, #16]
 444 00d2 4A48     		ldr	r0, .L13+36
 445 00d4 FFF7FEFF 		bl	_ZN5daisy6Switch4InitE12dsy_gpio_pinf
 446              	.LVL31:
  84:keys.cpp      ****     GS.Init(hw.GetPin(9), 1000);
 447              		.loc 9 84 5 is_stmt 1 view .LVU110
 448              		.loc 9 84 12 is_stmt 0 view .LVU111
 449 00d8 0920     		movs	r0, #9
 450 00da FFF7FEFF 		bl	_ZN5daisy9DaisySeed6GetPinEh
 451              	.LVL32:
 452 00de ADF81400 		strh	r0, [sp, #20]	@ movhi
 453 00e2 B0EE480A 		vmov.f32	s0, s16
 454 00e6 0599     		ldr	r1, [sp, #20]
 455 00e8 4548     		ldr	r0, .L13+40
 456 00ea FFF7FEFF 		bl	_ZN5daisy6Switch4InitE12dsy_gpio_pinf
 457              	.LVL33:
  85:keys.cpp      ****     G.Init(hw.GetPin(8), 1000);
 458              		.loc 9 85 5 is_stmt 1 view .LVU112
 459              		.loc 9 85 11 is_stmt 0 view .LVU113
 460 00ee 0820     		movs	r0, #8
 461 00f0 FFF7FEFF 		bl	_ZN5daisy9DaisySeed6GetPinEh
 462              	.LVL34:
 463 00f4 ADF81800 		strh	r0, [sp, #24]	@ movhi
 464 00f8 B0EE480A 		vmov.f32	s0, s16
 465 00fc 0699     		ldr	r1, [sp, #24]
 466 00fe 4148     		ldr	r0, .L13+44
 467 0100 FFF7FEFF 		bl	_ZN5daisy6Switch4InitE12dsy_gpio_pinf
 468              	.LVL35:
  86:keys.cpp      ****     FS.Init(hw.GetPin(7), 1000);
 469              		.loc 9 86 5 is_stmt 1 view .LVU114
 470              		.loc 9 86 12 is_stmt 0 view .LVU115
 471 0104 0720     		movs	r0, #7
 472 0106 FFF7FEFF 		bl	_ZN5daisy9DaisySeed6GetPinEh
 473              	.LVL36:
 474 010a ADF81C00 		strh	r0, [sp, #28]	@ movhi
 475 010e B0EE480A 		vmov.f32	s0, s16
 476 0112 0799     		ldr	r1, [sp, #28]
 477 0114 3C48     		ldr	r0, .L13+48
 478 0116 FFF7FEFF 		bl	_ZN5daisy6Switch4InitE12dsy_gpio_pinf
 479              	.LVL37:
  87:keys.cpp      ****     F.Init(hw.GetPin(6), 1000);
 480              		.loc 9 87 5 is_stmt 1 view .LVU116
 481              		.loc 9 87 11 is_stmt 0 view .LVU117
 482 011a 0620     		movs	r0, #6
 483 011c FFF7FEFF 		bl	_ZN5daisy9DaisySeed6GetPinEh
 484              	.LVL38:
 485 0120 ADF82000 		strh	r0, [sp, #32]	@ movhi
 486 0124 B0EE480A 		vmov.f32	s0, s16
 487 0128 0899     		ldr	r1, [sp, #32]
 488 012a 3848     		ldr	r0, .L13+52
ARM GAS  /var/folders/7c/668hyr3s7rlgsbdftclf3hsr0000gn/T//ccdjQHJK.s 			page 21


 489 012c FFF7FEFF 		bl	_ZN5daisy6Switch4InitE12dsy_gpio_pinf
 490              	.LVL39:
  88:keys.cpp      ****     E.Init(hw.GetPin(5), 1000);
 491              		.loc 9 88 5 is_stmt 1 view .LVU118
 492              		.loc 9 88 11 is_stmt 0 view .LVU119
 493 0130 0520     		movs	r0, #5
 494 0132 FFF7FEFF 		bl	_ZN5daisy9DaisySeed6GetPinEh
 495              	.LVL40:
 496 0136 ADF82400 		strh	r0, [sp, #36]	@ movhi
 497 013a B0EE480A 		vmov.f32	s0, s16
 498 013e 0999     		ldr	r1, [sp, #36]
 499 0140 3348     		ldr	r0, .L13+56
 500 0142 FFF7FEFF 		bl	_ZN5daisy6Switch4InitE12dsy_gpio_pinf
 501              	.LVL41:
  89:keys.cpp      ****     DS.Init(hw.GetPin(4), 1000);
 502              		.loc 9 89 5 is_stmt 1 view .LVU120
 503              		.loc 9 89 12 is_stmt 0 view .LVU121
 504 0146 0420     		movs	r0, #4
 505 0148 FFF7FEFF 		bl	_ZN5daisy9DaisySeed6GetPinEh
 506              	.LVL42:
 507 014c ADF82800 		strh	r0, [sp, #40]	@ movhi
 508 0150 B0EE480A 		vmov.f32	s0, s16
 509 0154 0A99     		ldr	r1, [sp, #40]
 510 0156 2F48     		ldr	r0, .L13+60
 511 0158 FFF7FEFF 		bl	_ZN5daisy6Switch4InitE12dsy_gpio_pinf
 512              	.LVL43:
  90:keys.cpp      ****     D.Init(hw.GetPin(3), 1000);
 513              		.loc 9 90 5 is_stmt 1 view .LVU122
 514              		.loc 9 90 11 is_stmt 0 view .LVU123
 515 015c 0320     		movs	r0, #3
 516 015e FFF7FEFF 		bl	_ZN5daisy9DaisySeed6GetPinEh
 517              	.LVL44:
 518 0162 ADF82C00 		strh	r0, [sp, #44]	@ movhi
 519 0166 B0EE480A 		vmov.f32	s0, s16
 520 016a 0B99     		ldr	r1, [sp, #44]
 521 016c 2A48     		ldr	r0, .L13+64
 522 016e FFF7FEFF 		bl	_ZN5daisy6Switch4InitE12dsy_gpio_pinf
 523              	.LVL45:
  91:keys.cpp      ****     CS.Init(hw.GetPin(2), 1000);
 524              		.loc 9 91 5 is_stmt 1 view .LVU124
 525              		.loc 9 91 12 is_stmt 0 view .LVU125
 526 0172 0220     		movs	r0, #2
 527 0174 FFF7FEFF 		bl	_ZN5daisy9DaisySeed6GetPinEh
 528              	.LVL46:
 529 0178 ADF83000 		strh	r0, [sp, #48]	@ movhi
 530 017c B0EE480A 		vmov.f32	s0, s16
 531 0180 0C99     		ldr	r1, [sp, #48]
 532 0182 2648     		ldr	r0, .L13+68
 533 0184 FFF7FEFF 		bl	_ZN5daisy6Switch4InitE12dsy_gpio_pinf
 534              	.LVL47:
  92:keys.cpp      ****     C.Init(hw.GetPin(1), 1000);
 535              		.loc 9 92 5 is_stmt 1 view .LVU126
 536              		.loc 9 92 11 is_stmt 0 view .LVU127
 537 0188 0120     		movs	r0, #1
 538 018a FFF7FEFF 		bl	_ZN5daisy9DaisySeed6GetPinEh
 539              	.LVL48:
 540 018e ADF83400 		strh	r0, [sp, #52]	@ movhi
ARM GAS  /var/folders/7c/668hyr3s7rlgsbdftclf3hsr0000gn/T//ccdjQHJK.s 			page 22


 541 0192 0D99     		ldr	r1, [sp, #52]
 542 0194 B0EE480A 		vmov.f32	s0, s16
 543 0198 2148     		ldr	r0, .L13+72
 544 019a FFF7FEFF 		bl	_ZN5daisy6Switch4InitE12dsy_gpio_pinf
 545              	.LVL49:
  93:keys.cpp      **** 
  94:keys.cpp      **** 
  95:keys.cpp      ****     // Set parameters for oscillator
  96:keys.cpp      ****     osc.SetWaveform(osc.WAVE_SAW);
 546              		.loc 9 96 5 is_stmt 1 view .LVU128
 547              	.LBB247:
 548              	.LBI247:
  71:../DaisyExamples/DaisySP/Source/Synthesis/oscillator.h ****     }
  72:../DaisyExamples/DaisySP/Source/Synthesis/oscillator.h **** 
  73:../DaisyExamples/DaisySP/Source/Synthesis/oscillator.h **** 
  74:../DaisyExamples/DaisySP/Source/Synthesis/oscillator.h ****     /** Sets the amplitude of the waveform.
  75:../DaisyExamples/DaisySP/Source/Synthesis/oscillator.h ****     */
  76:../DaisyExamples/DaisySP/Source/Synthesis/oscillator.h ****     inline void SetAmp(const float a) { amp_ = a; }
  77:../DaisyExamples/DaisySP/Source/Synthesis/oscillator.h ****     /** Sets the waveform to be synthesized by the Process() function.
  78:../DaisyExamples/DaisySP/Source/Synthesis/oscillator.h ****     */
  79:../DaisyExamples/DaisySP/Source/Synthesis/oscillator.h ****     inline void SetWaveform(const uint8_t wf)
 549              		.loc 2 79 17 view .LVU129
 550              	.LBB248:
  80:../DaisyExamples/DaisySP/Source/Synthesis/oscillator.h ****     {
  81:../DaisyExamples/DaisySP/Source/Synthesis/oscillator.h ****         waveform_ = wf < WAVE_LAST ? wf : WAVE_SIN;
 551              		.loc 2 81 9 view .LVU130
 552              		.loc 2 81 19 is_stmt 0 view .LVU131
 553 019e 0223     		movs	r3, #2
 554              	.LBE248:
 555              	.LBE247:
  97:keys.cpp      ****     wave = osc.WAVE_SAW;
 556              		.loc 9 97 10 view .LVU132
 557 01a0 204A     		ldr	r2, .L13+76
 558              	.LBB250:
 559              	.LBB251:
  70:../DaisyExamples/DaisySP/Source/Synthesis/oscillator.h ****     }
 560              		.loc 2 70 34 view .LVU133
 561 01a2 2046     		mov	r0, r4
  69:../DaisyExamples/DaisySP/Source/Synthesis/oscillator.h ****         phase_inc_ = CalcPhaseInc(f);
 562              		.loc 2 69 20 view .LVU134
 563 01a4 9FED200A 		vldr.32	s0, .L13+80
 564              	.LBE251:
 565              	.LBE250:
 566              		.loc 9 97 10 view .LVU135
 567 01a8 1360     		str	r3, [r2]
 568              	.LBB254:
 569              	.LBB249:
 570              		.loc 2 81 19 view .LVU136
 571 01aa 2370     		strb	r3, [r4]
 572              	.LVL50:
 573              		.loc 2 81 19 view .LVU137
 574              	.LBE249:
 575              	.LBE254:
 576              		.loc 9 97 5 is_stmt 1 view .LVU138
  98:keys.cpp      ****     osc.SetFreq(440);
 577              		.loc 9 98 5 view .LVU139
 578              	.LBB255:
ARM GAS  /var/folders/7c/668hyr3s7rlgsbdftclf3hsr0000gn/T//ccdjQHJK.s 			page 23


 579              	.LBI250:
  67:../DaisyExamples/DaisySP/Source/Synthesis/oscillator.h ****     {
 580              		.loc 2 67 17 view .LVU140
 581              	.LBB252:
  69:../DaisyExamples/DaisySP/Source/Synthesis/oscillator.h ****         phase_inc_ = CalcPhaseInc(f);
 582              		.loc 2 69 9 view .LVU141
  70:../DaisyExamples/DaisySP/Source/Synthesis/oscillator.h ****     }
 583              		.loc 2 70 9 view .LVU142
  69:../DaisyExamples/DaisySP/Source/Synthesis/oscillator.h ****         phase_inc_ = CalcPhaseInc(f);
 584              		.loc 2 69 20 is_stmt 0 view .LVU143
 585 01ac 84ED020A 		vstr.32	s0, [r4, #8]
  70:../DaisyExamples/DaisySP/Source/Synthesis/oscillator.h ****     }
 586              		.loc 2 70 34 view .LVU144
 587 01b0 FFF7FEFF 		bl	_ZN7daisysp10Oscillator12CalcPhaseIncEf
 588              	.LVL51:
 589              	.LBE252:
 590              	.LBE255:
 591              	.LBB256:
 592              	.LBB257:
  44:../DaisyExamples/DaisySP/Source/Control/adenv.h ****     /** Initializes the ad envelope.
  45:../DaisyExamples/DaisySP/Source/Control/adenv.h **** 
  46:../DaisyExamples/DaisySP/Source/Control/adenv.h ****         Defaults:
  47:../DaisyExamples/DaisySP/Source/Control/adenv.h ****             - current segment = idle
  48:../DaisyExamples/DaisySP/Source/Control/adenv.h ****             - curve = linear
  49:../DaisyExamples/DaisySP/Source/Control/adenv.h ****             - phase = 0
  50:../DaisyExamples/DaisySP/Source/Control/adenv.h ****             - min = 0
  51:../DaisyExamples/DaisySP/Source/Control/adenv.h ****             - max = 1
  52:../DaisyExamples/DaisySP/Source/Control/adenv.h **** 
  53:../DaisyExamples/DaisySP/Source/Control/adenv.h ****         \param sample_rate      sample rate of the audio engine being run
  54:../DaisyExamples/DaisySP/Source/Control/adenv.h ****     */
  55:../DaisyExamples/DaisySP/Source/Control/adenv.h ****     void Init(float sample_rate);
  56:../DaisyExamples/DaisySP/Source/Control/adenv.h **** 
  57:../DaisyExamples/DaisySP/Source/Control/adenv.h ****     /** Processes the current sample of the envelope. This should be called once
  58:../DaisyExamples/DaisySP/Source/Control/adenv.h ****         per sample period.
  59:../DaisyExamples/DaisySP/Source/Control/adenv.h ****         \return the current envelope value.
  60:../DaisyExamples/DaisySP/Source/Control/adenv.h ****     */
  61:../DaisyExamples/DaisySP/Source/Control/adenv.h ****     float Process();
  62:../DaisyExamples/DaisySP/Source/Control/adenv.h **** 
  63:../DaisyExamples/DaisySP/Source/Control/adenv.h ****     /** Starts or retriggers the envelope.*/
  64:../DaisyExamples/DaisySP/Source/Control/adenv.h ****     inline void Trigger() { trigger_ = 1; }
  65:../DaisyExamples/DaisySP/Source/Control/adenv.h ****     /** Sets the length of time (in seconds) for a specific segment. */
  66:../DaisyExamples/DaisySP/Source/Control/adenv.h ****     inline void SetTime(uint8_t seg, float time) { segment_time_[seg] = time; }
 593              		.loc 1 66 71 view .LVU145
 594 01b4 1D4A     		ldr	r2, .L13+84
 595              	.LBE257:
 596              	.LBE256:
 597              	.LBB260:
 598              	.LBB261:
 599 01b6 1E4B     		ldr	r3, .L13+88
 600              	.LBE261:
 601              	.LBE260:
  99:keys.cpp      ****     osc.SetAmp(1);
 100:keys.cpp      **** 
 101:keys.cpp      ****     //Set envelope parameters
 102:keys.cpp      ****     ad.SetTime(ADENV_SEG_ATTACK, 0.01);
 103:keys.cpp      ****     ad.SetTime(ADENV_SEG_DECAY, .2);
 104:keys.cpp      ****     ad.SetMax(1);
ARM GAS  /var/folders/7c/668hyr3s7rlgsbdftclf3hsr0000gn/T//ccdjQHJK.s 			page 24


 105:keys.cpp      ****     ad.SetMin(0);
 106:keys.cpp      ****     ad.SetCurve(0.5);
 107:keys.cpp      **** 
 108:keys.cpp      **** 
 109:keys.cpp      ****     // Start the adc
 110:keys.cpp      ****     // hw.adc.Start();
 111:keys.cpp      **** 
 112:keys.cpp      ****     //Start calling the audio callback
 113:keys.cpp      ****     hw.StartAudio(AudioCallback);
 602              		.loc 9 113 18 view .LVU146
 603 01b8 1E49     		ldr	r1, .L13+92
 604 01ba 0848     		ldr	r0, .L13+4
 605              	.LBB263:
 606              	.LBB264:
  76:../DaisyExamples/DaisySP/Source/Synthesis/oscillator.h ****     /** Sets the waveform to be synthesized by the Process() function.
 607              		.loc 2 76 46 view .LVU147
 608 01bc 84ED019A 		vstr.32	s18, [r4, #4]
 609              	.LBE264:
 610              	.LBE263:
 611              	.LBB266:
 612              	.LBB267:
  67:../DaisyExamples/DaisySP/Source/Control/adenv.h ****     /** Sets the amount of curve applied. A positve value will create a log
  68:../DaisyExamples/DaisySP/Source/Control/adenv.h ****         curve. Input range: -100 to 100.  (or more)
  69:../DaisyExamples/DaisySP/Source/Control/adenv.h ****     */
  70:../DaisyExamples/DaisySP/Source/Control/adenv.h ****     inline void SetCurve(float scalar) { curve_scalar_ = scalar; }
  71:../DaisyExamples/DaisySP/Source/Control/adenv.h ****     /** Sets the minimum value of the envelope output.
  72:../DaisyExamples/DaisySP/Source/Control/adenv.h ****         Input range: -FLTmax_, to FLTmax_
  73:../DaisyExamples/DaisySP/Source/Control/adenv.h ****     */
  74:../DaisyExamples/DaisySP/Source/Control/adenv.h ****     inline void SetMin(float min) { min_ = min; }
  75:../DaisyExamples/DaisySP/Source/Control/adenv.h ****     /** Sets the maximum value of the envelope output.
  76:../DaisyExamples/DaisySP/Source/Control/adenv.h ****         Input range: -FLTmax_, to FLTmax_
  77:../DaisyExamples/DaisySP/Source/Control/adenv.h ****     */
  78:../DaisyExamples/DaisySP/Source/Control/adenv.h ****     inline void SetMax(float max) { max_ = max; }
 613              		.loc 1 78 42 view .LVU148
 614 01c0 85ED069A 		vstr.32	s18, [r5, #24]
 615              	.LBE267:
 616              	.LBE266:
 617              	.LBB269:
 618              	.LBB253:
  70:../DaisyExamples/DaisySP/Source/Synthesis/oscillator.h ****     }
 619              		.loc 2 70 20 view .LVU149
 620 01c4 84ED070A 		vstr.32	s0, [r4, #28]
 621              	.LVL52:
  70:../DaisyExamples/DaisySP/Source/Synthesis/oscillator.h ****     }
 622              		.loc 2 70 20 view .LVU150
 623              	.LBE253:
 624              	.LBE269:
  99:keys.cpp      **** 
 625              		.loc 9 99 5 is_stmt 1 view .LVU151
 626              	.LBB270:
 627              	.LBI263:
  76:../DaisyExamples/DaisySP/Source/Synthesis/oscillator.h ****     /** Sets the waveform to be synthesized by the Process() function.
 628              		.loc 2 76 17 view .LVU152
 629              	.LBB265:
  76:../DaisyExamples/DaisySP/Source/Synthesis/oscillator.h ****     /** Sets the waveform to be synthesized by the Process() function.
 630              		.loc 2 76 41 view .LVU153
  76:../DaisyExamples/DaisySP/Source/Synthesis/oscillator.h ****     /** Sets the waveform to be synthesized by the Process() function.
ARM GAS  /var/folders/7c/668hyr3s7rlgsbdftclf3hsr0000gn/T//ccdjQHJK.s 			page 25


 631              		.loc 2 76 41 is_stmt 0 view .LVU154
 632              	.LBE265:
 633              	.LBE270:
 102:keys.cpp      ****     ad.SetTime(ADENV_SEG_DECAY, .2);
 634              		.loc 9 102 5 is_stmt 1 view .LVU155
 635              	.LBB271:
 636              	.LBI256:
  66:../DaisyExamples/DaisySP/Source/Control/adenv.h ****     /** Sets the amount of curve applied. A positve value will create a log
 637              		.loc 1 66 17 view .LVU156
 638              	.LBB258:
  66:../DaisyExamples/DaisySP/Source/Control/adenv.h ****     /** Sets the amount of curve applied. A positve value will create a log
 639              		.loc 1 66 52 view .LVU157
 640              	.LBE258:
 641              	.LBE271:
 642              	.LBB272:
 643              	.LBB273:
  74:../DaisyExamples/DaisySP/Source/Control/adenv.h ****     /** Sets the maximum value of the envelope output.
 644              		.loc 1 74 42 is_stmt 0 view .LVU158
 645 01c8 6F61     		str	r7, [r5, #20]	@ float
 646              	.LBE273:
 647              	.LBE272:
 648              	.LBB275:
 649              	.LBB259:
  66:../DaisyExamples/DaisySP/Source/Control/adenv.h ****     /** Sets the amount of curve applied. A positve value will create a log
 650              		.loc 1 66 71 view .LVU159
 651 01ca AA60     		str	r2, [r5, #8]	@ float
 652              	.LVL53:
  66:../DaisyExamples/DaisySP/Source/Control/adenv.h ****     /** Sets the amount of curve applied. A positve value will create a log
 653              		.loc 1 66 71 view .LVU160
 654              	.LBE259:
 655              	.LBE275:
 103:keys.cpp      ****     ad.SetMax(1);
 656              		.loc 9 103 5 is_stmt 1 view .LVU161
 657              	.LBB276:
 658              	.LBI260:
  66:../DaisyExamples/DaisySP/Source/Control/adenv.h ****     /** Sets the amount of curve applied. A positve value will create a log
 659              		.loc 1 66 17 view .LVU162
 660              	.LBB262:
  66:../DaisyExamples/DaisySP/Source/Control/adenv.h ****     /** Sets the amount of curve applied. A positve value will create a log
 661              		.loc 1 66 52 view .LVU163
  66:../DaisyExamples/DaisySP/Source/Control/adenv.h ****     /** Sets the amount of curve applied. A positve value will create a log
 662              		.loc 1 66 71 is_stmt 0 view .LVU164
 663 01cc EB60     		str	r3, [r5, #12]	@ float
 664              	.LVL54:
  66:../DaisyExamples/DaisySP/Source/Control/adenv.h ****     /** Sets the amount of curve applied. A positve value will create a log
 665              		.loc 1 66 71 view .LVU165
 666              	.LBE262:
 667              	.LBE276:
 104:keys.cpp      ****     ad.SetMin(0);
 668              		.loc 9 104 5 is_stmt 1 view .LVU166
 669              	.LBB277:
 670              	.LBI266:
 671              		.loc 1 78 17 view .LVU167
 672              	.LBB268:
 673              		.loc 1 78 37 view .LVU168
 674              		.loc 1 78 37 is_stmt 0 view .LVU169
 675              	.LBE268:
ARM GAS  /var/folders/7c/668hyr3s7rlgsbdftclf3hsr0000gn/T//ccdjQHJK.s 			page 26


 676              	.LBE277:
 105:keys.cpp      ****     ad.SetCurve(0.5);
 677              		.loc 9 105 5 is_stmt 1 view .LVU170
 678              	.LBB278:
 679              	.LBI272:
  74:../DaisyExamples/DaisySP/Source/Control/adenv.h ****     /** Sets the maximum value of the envelope output.
 680              		.loc 1 74 17 view .LVU171
 681              	.LBB274:
  74:../DaisyExamples/DaisySP/Source/Control/adenv.h ****     /** Sets the maximum value of the envelope output.
 682              		.loc 1 74 37 view .LVU172
  74:../DaisyExamples/DaisySP/Source/Control/adenv.h ****     /** Sets the maximum value of the envelope output.
 683              		.loc 1 74 37 is_stmt 0 view .LVU173
 684              	.LBE274:
 685              	.LBE278:
 106:keys.cpp      **** 
 686              		.loc 9 106 5 is_stmt 1 view .LVU174
 687              	.LBB279:
 688              	.LBI279:
  70:../DaisyExamples/DaisySP/Source/Control/adenv.h ****     /** Sets the minimum value of the envelope output.
 689              		.loc 1 70 17 view .LVU175
 690              	.LBB280:
  70:../DaisyExamples/DaisySP/Source/Control/adenv.h ****     /** Sets the minimum value of the envelope output.
 691              		.loc 1 70 42 view .LVU176
  70:../DaisyExamples/DaisySP/Source/Control/adenv.h ****     /** Sets the minimum value of the envelope output.
 692              		.loc 1 70 56 is_stmt 0 view .LVU177
 693 01ce 2E62     		str	r6, [r5, #32]	@ float
 694              	.LVL55:
  70:../DaisyExamples/DaisySP/Source/Control/adenv.h ****     /** Sets the minimum value of the envelope output.
 695              		.loc 1 70 56 view .LVU178
 696              	.LBE280:
 697              	.LBE279:
 698              		.loc 9 113 5 is_stmt 1 view .LVU179
 699              		.loc 9 113 18 is_stmt 0 view .LVU180
 700 01d0 FFF7FEFF 		bl	_ZN5daisy9DaisySeed10StartAudioEPFvPKfPfjE
 701              	.LVL56:
 702              	.L11:
 114:keys.cpp      **** 
 115:keys.cpp      **** 
 116:keys.cpp      ****     while(1) {}
 703              		.loc 9 116 5 is_stmt 1 discriminator 1 view .LVU181
 704              		.loc 9 116 5 discriminator 1 view .LVU182
 705              		.loc 9 116 5 discriminator 1 view .LVU183
 706              		.loc 9 116 5 discriminator 1 view .LVU184
 707 01d4 FEE7     		b	.L11
 708              	.L14:
 709 01d6 00BF     		.align	2
 710              	.L13:
 711 01d8 00000000 		.word	.LANCHOR1
 712 01dc 00000000 		.word	.LANCHOR3
 713 01e0 00000000 		.word	.LANCHOR2
 714 01e4 00000000 		.word	.LANCHOR0
 715 01e8 00007A44 		.word	1148846080
 716 01ec 0000C842 		.word	1120403456
 717 01f0 00000000 		.word	.LANCHOR4
 718 01f4 00000000 		.word	.LANCHOR5
 719 01f8 00000000 		.word	.LANCHOR6
 720 01fc 00000000 		.word	.LANCHOR7
ARM GAS  /var/folders/7c/668hyr3s7rlgsbdftclf3hsr0000gn/T//ccdjQHJK.s 			page 27


 721 0200 00000000 		.word	.LANCHOR8
 722 0204 00000000 		.word	.LANCHOR9
 723 0208 00000000 		.word	.LANCHOR10
 724 020c 00000000 		.word	.LANCHOR11
 725 0210 00000000 		.word	.LANCHOR12
 726 0214 00000000 		.word	.LANCHOR13
 727 0218 00000000 		.word	.LANCHOR14
 728 021c 00000000 		.word	.LANCHOR15
 729 0220 00000000 		.word	.LANCHOR16
 730 0224 00000000 		.word	.LANCHOR17
 731 0228 0000DC43 		.word	1138491392
 732 022c 0AD7233C 		.word	1008981770
 733 0230 CDCC4C3E 		.word	1045220557
 734 0234 00000000 		.word	_ZL13AudioCallbackPKfPfj
 735              		.cfi_endproc
 736              	.LFE4684:
 738              		.section	.text._Z13UpdateButtonsv,"ax",%progbits
 739              		.align	1
 740              		.p2align 2,,3
 741              		.global	_Z13UpdateButtonsv
 742              		.syntax unified
 743              		.thumb
 744              		.thumb_func
 746              	_Z13UpdateButtonsv:
 747              	.LFB4685:
 117:keys.cpp      **** 
 118:keys.cpp      **** }
 119:keys.cpp      **** 
 120:keys.cpp      **** 
 121:keys.cpp      **** void UpdateButtons()
 122:keys.cpp      **** {
 748              		.loc 9 122 1 view -0
 749              		.cfi_startproc
 750              		@ args = 0, pretend = 0, frame = 0
 751              		@ frame_needed = 0, uses_anonymous_args = 0
 123:keys.cpp      **** 
 124:keys.cpp      ****     C.Debounce();
 752              		.loc 9 124 5 view .LVU186
 122:keys.cpp      **** 
 753              		.loc 9 122 1 is_stmt 0 view .LVU187
 754 0000 10B5     		push	{r4, lr}
 755              		.cfi_def_cfa_offset 8
 756              		.cfi_offset 4, -8
 757              		.cfi_offset 14, -4
 758              		.loc 9 124 15 view .LVU188
 759 0002 704C     		ldr	r4, .L81
 760 0004 2046     		mov	r0, r4
 761 0006 FFF7FEFF 		bl	_ZN5daisy6Switch8DebounceEv
 762              	.LVL57:
 125:keys.cpp      ****     CS.Debounce();
 763              		.loc 9 125 5 is_stmt 1 view .LVU189
 764              		.loc 9 125 16 is_stmt 0 view .LVU190
 765 000a 6F48     		ldr	r0, .L81+4
 766 000c FFF7FEFF 		bl	_ZN5daisy6Switch8DebounceEv
 767              	.LVL58:
 126:keys.cpp      ****     D.Debounce();
 768              		.loc 9 126 5 is_stmt 1 view .LVU191
ARM GAS  /var/folders/7c/668hyr3s7rlgsbdftclf3hsr0000gn/T//ccdjQHJK.s 			page 28


 769              		.loc 9 126 15 is_stmt 0 view .LVU192
 770 0010 6E48     		ldr	r0, .L81+8
 771 0012 FFF7FEFF 		bl	_ZN5daisy6Switch8DebounceEv
 772              	.LVL59:
 127:keys.cpp      ****     DS.Debounce();
 773              		.loc 9 127 5 is_stmt 1 view .LVU193
 774              		.loc 9 127 16 is_stmt 0 view .LVU194
 775 0016 6E48     		ldr	r0, .L81+12
 776 0018 FFF7FEFF 		bl	_ZN5daisy6Switch8DebounceEv
 777              	.LVL60:
 128:keys.cpp      ****     E.Debounce();
 778              		.loc 9 128 5 is_stmt 1 view .LVU195
 779              		.loc 9 128 15 is_stmt 0 view .LVU196
 780 001c 6D48     		ldr	r0, .L81+16
 781 001e FFF7FEFF 		bl	_ZN5daisy6Switch8DebounceEv
 782              	.LVL61:
 129:keys.cpp      ****     F.Debounce();
 783              		.loc 9 129 5 is_stmt 1 view .LVU197
 784              		.loc 9 129 15 is_stmt 0 view .LVU198
 785 0022 6D48     		ldr	r0, .L81+20
 786 0024 FFF7FEFF 		bl	_ZN5daisy6Switch8DebounceEv
 787              	.LVL62:
 130:keys.cpp      ****     FS.Debounce();
 788              		.loc 9 130 5 is_stmt 1 view .LVU199
 789              		.loc 9 130 16 is_stmt 0 view .LVU200
 790 0028 6C48     		ldr	r0, .L81+24
 791 002a FFF7FEFF 		bl	_ZN5daisy6Switch8DebounceEv
 792              	.LVL63:
 131:keys.cpp      ****     G.Debounce();
 793              		.loc 9 131 5 is_stmt 1 view .LVU201
 794              		.loc 9 131 15 is_stmt 0 view .LVU202
 795 002e 6C48     		ldr	r0, .L81+28
 796 0030 FFF7FEFF 		bl	_ZN5daisy6Switch8DebounceEv
 797              	.LVL64:
 132:keys.cpp      ****     GS.Debounce();
 798              		.loc 9 132 5 is_stmt 1 view .LVU203
 799              		.loc 9 132 16 is_stmt 0 view .LVU204
 800 0034 6B48     		ldr	r0, .L81+32
 801 0036 FFF7FEFF 		bl	_ZN5daisy6Switch8DebounceEv
 802              	.LVL65:
 133:keys.cpp      ****     A.Debounce();
 803              		.loc 9 133 5 is_stmt 1 view .LVU205
 804              		.loc 9 133 15 is_stmt 0 view .LVU206
 805 003a 6B48     		ldr	r0, .L81+36
 806 003c FFF7FEFF 		bl	_ZN5daisy6Switch8DebounceEv
 807              	.LVL66:
 134:keys.cpp      ****     AS.Debounce();
 808              		.loc 9 134 5 is_stmt 1 view .LVU207
 809              		.loc 9 134 16 is_stmt 0 view .LVU208
 810 0040 6A48     		ldr	r0, .L81+40
 811 0042 FFF7FEFF 		bl	_ZN5daisy6Switch8DebounceEv
 812              	.LVL67:
 135:keys.cpp      ****     B.Debounce();
 813              		.loc 9 135 5 is_stmt 1 view .LVU209
 814              		.loc 9 135 15 is_stmt 0 view .LVU210
 815 0046 6A48     		ldr	r0, .L81+44
 816 0048 FFF7FEFF 		bl	_ZN5daisy6Switch8DebounceEv
ARM GAS  /var/folders/7c/668hyr3s7rlgsbdftclf3hsr0000gn/T//ccdjQHJK.s 			page 29


 817              	.LVL68:
 136:keys.cpp      ****     C2.Debounce();
 818              		.loc 9 136 5 is_stmt 1 view .LVU211
 819              		.loc 9 136 16 is_stmt 0 view .LVU212
 820 004c 6948     		ldr	r0, .L81+48
 821 004e FFF7FEFF 		bl	_ZN5daisy6Switch8DebounceEv
 822              	.LVL69:
 137:keys.cpp      **** 
 138:keys.cpp      ****     if(C.RisingEdge())
 823              		.loc 9 138 5 is_stmt 1 view .LVU213
 824              	.LBB281:
 825              	.LBI281:
  43:../DaisyExamples/libDaisy/src/hid/switch.h **** 
  44:../DaisyExamples/libDaisy/src/hid/switch.h ****     /** 
  45:../DaisyExamples/libDaisy/src/hid/switch.h ****     Initializes the switch object with a given port/pin combo.
  46:../DaisyExamples/libDaisy/src/hid/switch.h ****     \param pin port/pin object to tell the switch which hardware pin to use.
  47:../DaisyExamples/libDaisy/src/hid/switch.h ****     \param update_rate Does nothing. Backwards compatibility until next breaking update.
  48:../DaisyExamples/libDaisy/src/hid/switch.h ****     \param t switch type -- Default: TYPE_MOMENTARY
  49:../DaisyExamples/libDaisy/src/hid/switch.h ****     \param pol switch polarity -- Default: POLARITY_INVERTED
  50:../DaisyExamples/libDaisy/src/hid/switch.h ****     \param pu switch pull up/down -- Default: PULL_UP
  51:../DaisyExamples/libDaisy/src/hid/switch.h ****     */
  52:../DaisyExamples/libDaisy/src/hid/switch.h ****     void
  53:../DaisyExamples/libDaisy/src/hid/switch.h ****     Init(dsy_gpio_pin pin, float update_rate, Type t, Polarity pol, Pull pu);
  54:../DaisyExamples/libDaisy/src/hid/switch.h **** 
  55:../DaisyExamples/libDaisy/src/hid/switch.h ****     /**
  56:../DaisyExamples/libDaisy/src/hid/switch.h ****        Simplified Init.
  57:../DaisyExamples/libDaisy/src/hid/switch.h ****        \param pin port/pin object to tell the switch which hardware pin to use.
  58:../DaisyExamples/libDaisy/src/hid/switch.h ****        \param update_rate Left for backwards compatibility until next breaking change.
  59:../DaisyExamples/libDaisy/src/hid/switch.h ****     */
  60:../DaisyExamples/libDaisy/src/hid/switch.h ****     void Init(dsy_gpio_pin pin, float update_rate = 0.f);
  61:../DaisyExamples/libDaisy/src/hid/switch.h **** 
  62:../DaisyExamples/libDaisy/src/hid/switch.h ****     /** 
  63:../DaisyExamples/libDaisy/src/hid/switch.h ****     Called at update_rate to debounce and handle timing for the switch.
  64:../DaisyExamples/libDaisy/src/hid/switch.h ****     In order for events not to be missed, its important that the Edge/Pressed checks
  65:../DaisyExamples/libDaisy/src/hid/switch.h ****     be made at the same rate as the debounce function is being called.
  66:../DaisyExamples/libDaisy/src/hid/switch.h ****     */
  67:../DaisyExamples/libDaisy/src/hid/switch.h ****     void Debounce();
  68:../DaisyExamples/libDaisy/src/hid/switch.h **** 
  69:../DaisyExamples/libDaisy/src/hid/switch.h ****     /** \return true if a button was just pressed. */
  70:../DaisyExamples/libDaisy/src/hid/switch.h ****     inline bool RisingEdge() const { return updated_ ? state_ == 0x7f : false; }
 826              		.loc 3 70 17 view .LVU214
 827              	.LBB282:
 828              		.loc 3 70 38 view .LVU215
 829              		.loc 3 70 54 is_stmt 0 view .LVU216
 830 0052 2379     		ldrb	r3, [r4, #4]	@ zero_extendqisi2
 831 0054 1BB1     		cbz	r3, .L16
 832              	.LVL70:
 833              		.loc 3 70 54 view .LVU217
 834              	.LBE282:
 835              	.LBE281:
 836              		.loc 9 138 5 view .LVU218
 837 0056 A37A     		ldrb	r3, [r4, #10]	@ zero_extendqisi2
 838 0058 7F2B     		cmp	r3, #127
 839 005a 00F0AA80 		beq	.L69
 840              	.L16:
 139:keys.cpp      ****     {
 140:keys.cpp      **** 
ARM GAS  /var/folders/7c/668hyr3s7rlgsbdftclf3hsr0000gn/T//ccdjQHJK.s 			page 30


 141:keys.cpp      ****         oscFreq = 261.63f;
 142:keys.cpp      ****         // oscFreq = 277.18f; //C#
 143:keys.cpp      ****         ad.Trigger();
 144:keys.cpp      ****         // hw.SetLed(true);
 145:keys.cpp      ****     }
 146:keys.cpp      ****     if(CS.RisingEdge())
 841              		.loc 9 146 5 is_stmt 1 view .LVU219
 842              	.LVL71:
 843              	.LBB283:
 844              	.LBI283:
 845              		.loc 3 70 17 view .LVU220
 846              	.LBB284:
 847              		.loc 3 70 38 view .LVU221
 848              		.loc 3 70 45 is_stmt 0 view .LVU222
 849 005e 5A4B     		ldr	r3, .L81+4
 850              		.loc 3 70 54 view .LVU223
 851 0060 1A79     		ldrb	r2, [r3, #4]	@ zero_extendqisi2
 852 0062 1AB1     		cbz	r2, .L17
 853              	.LVL72:
 854              		.loc 3 70 54 view .LVU224
 855              	.LBE284:
 856              	.LBE283:
 857              		.loc 9 146 5 view .LVU225
 858 0064 9B7A     		ldrb	r3, [r3, #10]	@ zero_extendqisi2
 859 0066 7F2B     		cmp	r3, #127
 860 0068 00F09B80 		beq	.L70
 861              	.L17:
 147:keys.cpp      ****     {
 148:keys.cpp      **** 
 149:keys.cpp      ****         oscFreq = 277.18f;
 150:keys.cpp      ****         // oscFreq = 277.18f; //C#
 151:keys.cpp      ****         ad.Trigger();
 152:keys.cpp      ****         // hw.SetLed(true);
 153:keys.cpp      ****     }
 154:keys.cpp      ****     if(D.RisingEdge())
 862              		.loc 9 154 5 is_stmt 1 view .LVU226
 863              	.LVL73:
 864              	.LBB285:
 865              	.LBI285:
 866              		.loc 3 70 17 view .LVU227
 867              	.LBB286:
 868              		.loc 3 70 38 view .LVU228
 869              		.loc 3 70 45 is_stmt 0 view .LVU229
 870 006c 574B     		ldr	r3, .L81+8
 871              		.loc 3 70 54 view .LVU230
 872 006e 1A79     		ldrb	r2, [r3, #4]	@ zero_extendqisi2
 873 0070 1AB1     		cbz	r2, .L18
 874              	.LVL74:
 875              		.loc 3 70 54 view .LVU231
 876              	.LBE286:
 877              	.LBE285:
 878              		.loc 9 154 5 view .LVU232
 879 0072 9B7A     		ldrb	r3, [r3, #10]	@ zero_extendqisi2
 880 0074 7F2B     		cmp	r3, #127
 881 0076 00F08C80 		beq	.L71
 882              	.L18:
 155:keys.cpp      ****     {
ARM GAS  /var/folders/7c/668hyr3s7rlgsbdftclf3hsr0000gn/T//ccdjQHJK.s 			page 31


 156:keys.cpp      **** 
 157:keys.cpp      ****         oscFreq = 293.66f;
 158:keys.cpp      ****         ad.Trigger();
 159:keys.cpp      ****         // hw.SetLed(true);
 160:keys.cpp      ****     }
 161:keys.cpp      ****     if(DS.RisingEdge())
 883              		.loc 9 161 5 is_stmt 1 view .LVU233
 884              	.LVL75:
 885              	.LBB287:
 886              	.LBI287:
 887              		.loc 3 70 17 view .LVU234
 888              	.LBB288:
 889              		.loc 3 70 38 view .LVU235
 890              		.loc 3 70 45 is_stmt 0 view .LVU236
 891 007a 554B     		ldr	r3, .L81+12
 892              		.loc 3 70 54 view .LVU237
 893 007c 1A79     		ldrb	r2, [r3, #4]	@ zero_extendqisi2
 894 007e 12B1     		cbz	r2, .L19
 895              	.LVL76:
 896              		.loc 3 70 54 view .LVU238
 897              	.LBE288:
 898              	.LBE287:
 899              		.loc 9 161 5 view .LVU239
 900 0080 9B7A     		ldrb	r3, [r3, #10]	@ zero_extendqisi2
 901 0082 7F2B     		cmp	r3, #127
 902 0084 7DD0     		beq	.L72
 903              	.L19:
 162:keys.cpp      ****     {
 163:keys.cpp      **** 
 164:keys.cpp      ****         oscFreq = 311.13f;
 165:keys.cpp      ****         // oscFreq = 277.18f; //C#
 166:keys.cpp      ****         ad.Trigger();
 167:keys.cpp      ****         // hw.SetLed(true);
 168:keys.cpp      ****     }
 169:keys.cpp      ****     if(E.RisingEdge())
 904              		.loc 9 169 5 is_stmt 1 view .LVU240
 905              	.LVL77:
 906              	.LBB289:
 907              	.LBI289:
 908              		.loc 3 70 17 view .LVU241
 909              	.LBB290:
 910              		.loc 3 70 38 view .LVU242
 911              		.loc 3 70 45 is_stmt 0 view .LVU243
 912 0086 534B     		ldr	r3, .L81+16
 913              		.loc 3 70 54 view .LVU244
 914 0088 1A79     		ldrb	r2, [r3, #4]	@ zero_extendqisi2
 915 008a 12B1     		cbz	r2, .L20
 916              	.LVL78:
 917              		.loc 3 70 54 view .LVU245
 918              	.LBE290:
 919              	.LBE289:
 920              		.loc 9 169 5 view .LVU246
 921 008c 9B7A     		ldrb	r3, [r3, #10]	@ zero_extendqisi2
 922 008e 7F2B     		cmp	r3, #127
 923 0090 6FD0     		beq	.L73
 924              	.L20:
 170:keys.cpp      ****     {
ARM GAS  /var/folders/7c/668hyr3s7rlgsbdftclf3hsr0000gn/T//ccdjQHJK.s 			page 32


 171:keys.cpp      **** 
 172:keys.cpp      ****         oscFreq = 329.63f;
 173:keys.cpp      ****         ad.Trigger();
 174:keys.cpp      ****         // hw.SetLed(true);
 175:keys.cpp      ****     }
 176:keys.cpp      ****     if(F.RisingEdge())
 925              		.loc 9 176 5 is_stmt 1 view .LVU247
 926              	.LVL79:
 927              	.LBB291:
 928              	.LBI291:
 929              		.loc 3 70 17 view .LVU248
 930              	.LBB292:
 931              		.loc 3 70 38 view .LVU249
 932              		.loc 3 70 45 is_stmt 0 view .LVU250
 933 0092 514B     		ldr	r3, .L81+20
 934              		.loc 3 70 54 view .LVU251
 935 0094 1A79     		ldrb	r2, [r3, #4]	@ zero_extendqisi2
 936 0096 12B1     		cbz	r2, .L21
 937              	.LVL80:
 938              		.loc 3 70 54 view .LVU252
 939              	.LBE292:
 940              	.LBE291:
 941              		.loc 9 176 5 view .LVU253
 942 0098 9B7A     		ldrb	r3, [r3, #10]	@ zero_extendqisi2
 943 009a 7F2B     		cmp	r3, #127
 944 009c 61D0     		beq	.L74
 945              	.L21:
 177:keys.cpp      ****     {
 178:keys.cpp      **** 
 179:keys.cpp      ****         oscFreq = 349.23f;
 180:keys.cpp      ****         // oscFreq = 369.99f; // F#
 181:keys.cpp      **** 
 182:keys.cpp      ****         ad.Trigger();
 183:keys.cpp      ****         // hw.SetLed(true);
 184:keys.cpp      ****     }
 185:keys.cpp      ****     if(FS.RisingEdge())
 946              		.loc 9 185 5 is_stmt 1 view .LVU254
 947              	.LVL81:
 948              	.LBB293:
 949              	.LBI293:
 950              		.loc 3 70 17 view .LVU255
 951              	.LBB294:
 952              		.loc 3 70 38 view .LVU256
 953              		.loc 3 70 45 is_stmt 0 view .LVU257
 954 009e 4F4B     		ldr	r3, .L81+24
 955              		.loc 3 70 54 view .LVU258
 956 00a0 1A79     		ldrb	r2, [r3, #4]	@ zero_extendqisi2
 957 00a2 12B1     		cbz	r2, .L22
 958              	.LVL82:
 959              		.loc 3 70 54 view .LVU259
 960              	.LBE294:
 961              	.LBE293:
 962              		.loc 9 185 5 view .LVU260
 963 00a4 9B7A     		ldrb	r3, [r3, #10]	@ zero_extendqisi2
 964 00a6 7F2B     		cmp	r3, #127
 965 00a8 53D0     		beq	.L75
 966              	.L22:
ARM GAS  /var/folders/7c/668hyr3s7rlgsbdftclf3hsr0000gn/T//ccdjQHJK.s 			page 33


 186:keys.cpp      ****     {
 187:keys.cpp      **** 
 188:keys.cpp      ****         oscFreq = 369.99f;
 189:keys.cpp      ****         // oscFreq = 277.18f; //C#
 190:keys.cpp      ****         ad.Trigger();
 191:keys.cpp      ****         // hw.SetLed(true);
 192:keys.cpp      ****     }
 193:keys.cpp      ****     if(G.RisingEdge())
 967              		.loc 9 193 5 is_stmt 1 view .LVU261
 968              	.LVL83:
 969              	.LBB295:
 970              	.LBI295:
 971              		.loc 3 70 17 view .LVU262
 972              	.LBB296:
 973              		.loc 3 70 38 view .LVU263
 974              		.loc 3 70 45 is_stmt 0 view .LVU264
 975 00aa 4D4B     		ldr	r3, .L81+28
 976              		.loc 3 70 54 view .LVU265
 977 00ac 1A79     		ldrb	r2, [r3, #4]	@ zero_extendqisi2
 978 00ae 12B1     		cbz	r2, .L23
 979              	.LVL84:
 980              		.loc 3 70 54 view .LVU266
 981              	.LBE296:
 982              	.LBE295:
 983              		.loc 9 193 5 view .LVU267
 984 00b0 9B7A     		ldrb	r3, [r3, #10]	@ zero_extendqisi2
 985 00b2 7F2B     		cmp	r3, #127
 986 00b4 45D0     		beq	.L76
 987              	.L23:
 194:keys.cpp      ****     {
 195:keys.cpp      **** 
 196:keys.cpp      ****         oscFreq = 392.0f;
 197:keys.cpp      ****         ad.Trigger();
 198:keys.cpp      ****         // hw.SetLed(true);
 199:keys.cpp      ****     }
 200:keys.cpp      ****     if(GS.RisingEdge())
 988              		.loc 9 200 5 is_stmt 1 view .LVU268
 989              	.LVL85:
 990              	.LBB297:
 991              	.LBI297:
 992              		.loc 3 70 17 view .LVU269
 993              	.LBB298:
 994              		.loc 3 70 38 view .LVU270
 995              		.loc 3 70 45 is_stmt 0 view .LVU271
 996 00b6 4B4B     		ldr	r3, .L81+32
 997              		.loc 3 70 54 view .LVU272
 998 00b8 1A79     		ldrb	r2, [r3, #4]	@ zero_extendqisi2
 999 00ba 12B1     		cbz	r2, .L24
 1000              	.LVL86:
 1001              		.loc 3 70 54 view .LVU273
 1002              	.LBE298:
 1003              	.LBE297:
 1004              		.loc 9 200 5 view .LVU274
 1005 00bc 9B7A     		ldrb	r3, [r3, #10]	@ zero_extendqisi2
 1006 00be 7F2B     		cmp	r3, #127
 1007 00c0 37D0     		beq	.L77
 1008              	.L24:
ARM GAS  /var/folders/7c/668hyr3s7rlgsbdftclf3hsr0000gn/T//ccdjQHJK.s 			page 34


 201:keys.cpp      ****     {
 202:keys.cpp      **** 
 203:keys.cpp      ****         oscFreq = 415.30f;
 204:keys.cpp      ****         // oscFreq = 277.18f; //C#
 205:keys.cpp      ****         ad.Trigger();
 206:keys.cpp      ****         // hw.SetLed(true);
 207:keys.cpp      ****     }
 208:keys.cpp      ****     if(A.RisingEdge())
 1009              		.loc 9 208 5 is_stmt 1 view .LVU275
 1010              	.LVL87:
 1011              	.LBB299:
 1012              	.LBI299:
 1013              		.loc 3 70 17 view .LVU276
 1014              	.LBB300:
 1015              		.loc 3 70 38 view .LVU277
 1016              		.loc 3 70 45 is_stmt 0 view .LVU278
 1017 00c2 494B     		ldr	r3, .L81+36
 1018              		.loc 3 70 54 view .LVU279
 1019 00c4 1A79     		ldrb	r2, [r3, #4]	@ zero_extendqisi2
 1020 00c6 12B1     		cbz	r2, .L25
 1021              	.LVL88:
 1022              		.loc 3 70 54 view .LVU280
 1023              	.LBE300:
 1024              	.LBE299:
 1025              		.loc 9 208 5 view .LVU281
 1026 00c8 9B7A     		ldrb	r3, [r3, #10]	@ zero_extendqisi2
 1027 00ca 7F2B     		cmp	r3, #127
 1028 00cc 29D0     		beq	.L78
 1029              	.L25:
 209:keys.cpp      ****     {
 210:keys.cpp      **** 
 211:keys.cpp      ****         oscFreq = 440.0f;
 212:keys.cpp      ****         ad.Trigger();
 213:keys.cpp      ****         // hw.SetLed(true);
 214:keys.cpp      ****     }
 215:keys.cpp      ****     if(AS.RisingEdge())
 1030              		.loc 9 215 5 is_stmt 1 view .LVU282
 1031              	.LVL89:
 1032              	.LBB301:
 1033              	.LBI301:
 1034              		.loc 3 70 17 view .LVU283
 1035              	.LBB302:
 1036              		.loc 3 70 38 view .LVU284
 1037              		.loc 3 70 45 is_stmt 0 view .LVU285
 1038 00ce 474B     		ldr	r3, .L81+40
 1039              		.loc 3 70 54 view .LVU286
 1040 00d0 1A79     		ldrb	r2, [r3, #4]	@ zero_extendqisi2
 1041 00d2 12B1     		cbz	r2, .L26
 1042              	.LVL90:
 1043              		.loc 3 70 54 view .LVU287
 1044              	.LBE302:
 1045              	.LBE301:
 1046              		.loc 9 215 5 view .LVU288
 1047 00d4 9B7A     		ldrb	r3, [r3, #10]	@ zero_extendqisi2
 1048 00d6 7F2B     		cmp	r3, #127
 1049 00d8 1BD0     		beq	.L79
 1050              	.L26:
ARM GAS  /var/folders/7c/668hyr3s7rlgsbdftclf3hsr0000gn/T//ccdjQHJK.s 			page 35


 216:keys.cpp      ****     {
 217:keys.cpp      **** 
 218:keys.cpp      ****         oscFreq = 466.16f;
 219:keys.cpp      ****         // oscFreq = 277.18f; //C#
 220:keys.cpp      ****         ad.Trigger();
 221:keys.cpp      ****         // hw.SetLed(true);
 222:keys.cpp      ****     }
 223:keys.cpp      ****     if(B.RisingEdge())
 1051              		.loc 9 223 5 is_stmt 1 view .LVU289
 1052              	.LVL91:
 1053              	.LBB303:
 1054              	.LBI303:
 1055              		.loc 3 70 17 view .LVU290
 1056              	.LBB304:
 1057              		.loc 3 70 38 view .LVU291
 1058              		.loc 3 70 45 is_stmt 0 view .LVU292
 1059 00da 454B     		ldr	r3, .L81+44
 1060              		.loc 3 70 54 view .LVU293
 1061 00dc 1A79     		ldrb	r2, [r3, #4]	@ zero_extendqisi2
 1062 00de 12B1     		cbz	r2, .L27
 1063              	.LVL92:
 1064              		.loc 3 70 54 view .LVU294
 1065              	.LBE304:
 1066              	.LBE303:
 1067              		.loc 9 223 5 view .LVU295
 1068 00e0 9B7A     		ldrb	r3, [r3, #10]	@ zero_extendqisi2
 1069 00e2 7F2B     		cmp	r3, #127
 1070 00e4 0DD0     		beq	.L80
 1071              	.L27:
 224:keys.cpp      ****     {
 225:keys.cpp      **** 
 226:keys.cpp      ****         oscFreq = 493.88f;
 227:keys.cpp      ****             // oscFreq = 246.94f; //dropped octave
 228:keys.cpp      **** 
 229:keys.cpp      ****         ad.Trigger();
 230:keys.cpp      ****         // hw.SetLed(true);
 231:keys.cpp      ****     }
 232:keys.cpp      ****     if(C2.RisingEdge())
 1072              		.loc 9 232 5 is_stmt 1 view .LVU296
 1073              	.LVL93:
 1074              	.LBB305:
 1075              	.LBI305:
 1076              		.loc 3 70 17 view .LVU297
 1077              	.LBB306:
 1078              		.loc 3 70 38 view .LVU298
 1079              		.loc 3 70 45 is_stmt 0 view .LVU299
 1080 00e6 434B     		ldr	r3, .L81+48
 1081              		.loc 3 70 54 view .LVU300
 1082 00e8 1A79     		ldrb	r2, [r3, #4]	@ zero_extendqisi2
 1083 00ea 4AB1     		cbz	r2, .L15
 1084              	.LVL94:
 1085              		.loc 3 70 54 view .LVU301
 1086              	.LBE306:
 1087              	.LBE305:
 1088              		.loc 9 232 5 view .LVU302
 1089 00ec 9B7A     		ldrb	r3, [r3, #10]	@ zero_extendqisi2
 1090 00ee 7F2B     		cmp	r3, #127
ARM GAS  /var/folders/7c/668hyr3s7rlgsbdftclf3hsr0000gn/T//ccdjQHJK.s 			page 36


 1091 00f0 06D1     		bne	.L15
 233:keys.cpp      ****     {
 234:keys.cpp      **** 
 235:keys.cpp      ****         oscFreq = 523.25f;
 1092              		.loc 9 235 9 is_stmt 1 view .LVU303
 1093              		.loc 9 235 17 is_stmt 0 view .LVU304
 1094 00f2 4149     		ldr	r1, .L81+52
 1095              	.LBB307:
 1096              	.LBB308:
  64:../DaisyExamples/DaisySP/Source/Control/adenv.h ****     /** Sets the length of time (in seconds) for a specific segment. */
 1097              		.loc 1 64 38 view .LVU305
 1098 00f4 0122     		movs	r2, #1
 1099              	.LBE308:
 1100              	.LBE307:
 1101              		.loc 9 235 17 view .LVU306
 1102 00f6 4148     		ldr	r0, .L81+56
 1103              	.LBB311:
 1104              	.LBB309:
  64:../DaisyExamples/DaisySP/Source/Control/adenv.h ****     /** Sets the length of time (in seconds) for a specific segment. */
 1105              		.loc 1 64 38 view .LVU307
 1106 00f8 414B     		ldr	r3, .L81+60
 1107              	.LBE309:
 1108              	.LBE311:
 1109              		.loc 9 235 17 view .LVU308
 1110 00fa 0860     		str	r0, [r1]	@ float
 236:keys.cpp      ****         ad.Trigger();
 1111              		.loc 9 236 9 is_stmt 1 view .LVU309
 1112              	.LVL95:
 1113              	.LBB312:
 1114              	.LBI307:
  64:../DaisyExamples/DaisySP/Source/Control/adenv.h ****     /** Sets the length of time (in seconds) for a specific segment. */
 1115              		.loc 1 64 17 view .LVU310
 1116              	.LBB310:
  64:../DaisyExamples/DaisySP/Source/Control/adenv.h ****     /** Sets the length of time (in seconds) for a specific segment. */
 1117              		.loc 1 64 29 view .LVU311
  64:../DaisyExamples/DaisySP/Source/Control/adenv.h ****     /** Sets the length of time (in seconds) for a specific segment. */
 1118              		.loc 1 64 38 is_stmt 0 view .LVU312
 1119 00fc 83F83420 		strb	r2, [r3, #52]
 1120              	.LVL96:
 1121              	.L15:
  64:../DaisyExamples/DaisySP/Source/Control/adenv.h ****     /** Sets the length of time (in seconds) for a specific segment. */
 1122              		.loc 1 64 38 view .LVU313
 1123              	.LBE310:
 1124              	.LBE312:
 237:keys.cpp      ****         // hw.SetLed(true);
 238:keys.cpp      ****     }
 239:keys.cpp      **** 
 240:keys.cpp      **** }
 1125              		.loc 9 240 1 view .LVU314
 1126 0100 10BD     		pop	{r4, pc}
 1127              	.L80:
 226:keys.cpp      ****             // oscFreq = 246.94f; //dropped octave
 1128              		.loc 9 226 9 is_stmt 1 view .LVU315
 226:keys.cpp      ****             // oscFreq = 246.94f; //dropped octave
 1129              		.loc 9 226 17 is_stmt 0 view .LVU316
 1130 0102 3D49     		ldr	r1, .L81+52
 1131              	.LBB313:
ARM GAS  /var/folders/7c/668hyr3s7rlgsbdftclf3hsr0000gn/T//ccdjQHJK.s 			page 37


 1132              	.LBB314:
  64:../DaisyExamples/DaisySP/Source/Control/adenv.h ****     /** Sets the length of time (in seconds) for a specific segment. */
 1133              		.loc 1 64 38 view .LVU317
 1134 0104 0122     		movs	r2, #1
 1135              	.LBE314:
 1136              	.LBE313:
 226:keys.cpp      ****             // oscFreq = 246.94f; //dropped octave
 1137              		.loc 9 226 17 view .LVU318
 1138 0106 3F48     		ldr	r0, .L81+64
 1139              	.LBB317:
 1140              	.LBB315:
  64:../DaisyExamples/DaisySP/Source/Control/adenv.h ****     /** Sets the length of time (in seconds) for a specific segment. */
 1141              		.loc 1 64 38 view .LVU319
 1142 0108 3D4B     		ldr	r3, .L81+60
 1143              	.LBE315:
 1144              	.LBE317:
 226:keys.cpp      ****             // oscFreq = 246.94f; //dropped octave
 1145              		.loc 9 226 17 view .LVU320
 1146 010a 0860     		str	r0, [r1]	@ float
 229:keys.cpp      ****         // hw.SetLed(true);
 1147              		.loc 9 229 9 is_stmt 1 view .LVU321
 1148              	.LVL97:
 1149              	.LBB318:
 1150              	.LBI313:
  64:../DaisyExamples/DaisySP/Source/Control/adenv.h ****     /** Sets the length of time (in seconds) for a specific segment. */
 1151              		.loc 1 64 17 view .LVU322
 1152              	.LBB316:
  64:../DaisyExamples/DaisySP/Source/Control/adenv.h ****     /** Sets the length of time (in seconds) for a specific segment. */
 1153              		.loc 1 64 29 view .LVU323
  64:../DaisyExamples/DaisySP/Source/Control/adenv.h ****     /** Sets the length of time (in seconds) for a specific segment. */
 1154              		.loc 1 64 38 is_stmt 0 view .LVU324
 1155 010c 83F83420 		strb	r2, [r3, #52]
  64:../DaisyExamples/DaisySP/Source/Control/adenv.h ****     /** Sets the length of time (in seconds) for a specific segment. */
 1156              		.loc 1 64 43 view .LVU325
 1157 0110 E9E7     		b	.L27
 1158              	.LVL98:
 1159              	.L79:
  64:../DaisyExamples/DaisySP/Source/Control/adenv.h ****     /** Sets the length of time (in seconds) for a specific segment. */
 1160              		.loc 1 64 43 view .LVU326
 1161              	.LBE316:
 1162              	.LBE318:
 218:keys.cpp      ****         // oscFreq = 277.18f; //C#
 1163              		.loc 9 218 9 is_stmt 1 view .LVU327
 218:keys.cpp      ****         // oscFreq = 277.18f; //C#
 1164              		.loc 9 218 17 is_stmt 0 view .LVU328
 1165 0112 3949     		ldr	r1, .L81+52
 1166              	.LBB319:
 1167              	.LBB320:
  64:../DaisyExamples/DaisySP/Source/Control/adenv.h ****     /** Sets the length of time (in seconds) for a specific segment. */
 1168              		.loc 1 64 38 view .LVU329
 1169 0114 0122     		movs	r2, #1
 1170              	.LBE320:
 1171              	.LBE319:
 218:keys.cpp      ****         // oscFreq = 277.18f; //C#
 1172              		.loc 9 218 17 view .LVU330
 1173 0116 3C48     		ldr	r0, .L81+68
 1174              	.LBB323:
ARM GAS  /var/folders/7c/668hyr3s7rlgsbdftclf3hsr0000gn/T//ccdjQHJK.s 			page 38


 1175              	.LBB321:
  64:../DaisyExamples/DaisySP/Source/Control/adenv.h ****     /** Sets the length of time (in seconds) for a specific segment. */
 1176              		.loc 1 64 38 view .LVU331
 1177 0118 394B     		ldr	r3, .L81+60
 1178              	.LBE321:
 1179              	.LBE323:
 218:keys.cpp      ****         // oscFreq = 277.18f; //C#
 1180              		.loc 9 218 17 view .LVU332
 1181 011a 0860     		str	r0, [r1]	@ float
 220:keys.cpp      ****         // hw.SetLed(true);
 1182              		.loc 9 220 9 is_stmt 1 view .LVU333
 1183              	.LVL99:
 1184              	.LBB324:
 1185              	.LBI319:
  64:../DaisyExamples/DaisySP/Source/Control/adenv.h ****     /** Sets the length of time (in seconds) for a specific segment. */
 1186              		.loc 1 64 17 view .LVU334
 1187              	.LBB322:
  64:../DaisyExamples/DaisySP/Source/Control/adenv.h ****     /** Sets the length of time (in seconds) for a specific segment. */
 1188              		.loc 1 64 29 view .LVU335
  64:../DaisyExamples/DaisySP/Source/Control/adenv.h ****     /** Sets the length of time (in seconds) for a specific segment. */
 1189              		.loc 1 64 38 is_stmt 0 view .LVU336
 1190 011c 83F83420 		strb	r2, [r3, #52]
  64:../DaisyExamples/DaisySP/Source/Control/adenv.h ****     /** Sets the length of time (in seconds) for a specific segment. */
 1191              		.loc 1 64 43 view .LVU337
 1192 0120 DBE7     		b	.L26
 1193              	.LVL100:
 1194              	.L78:
  64:../DaisyExamples/DaisySP/Source/Control/adenv.h ****     /** Sets the length of time (in seconds) for a specific segment. */
 1195              		.loc 1 64 43 view .LVU338
 1196              	.LBE322:
 1197              	.LBE324:
 211:keys.cpp      ****         ad.Trigger();
 1198              		.loc 9 211 9 is_stmt 1 view .LVU339
 211:keys.cpp      ****         ad.Trigger();
 1199              		.loc 9 211 17 is_stmt 0 view .LVU340
 1200 0122 3549     		ldr	r1, .L81+52
 1201              	.LBB325:
 1202              	.LBB326:
  64:../DaisyExamples/DaisySP/Source/Control/adenv.h ****     /** Sets the length of time (in seconds) for a specific segment. */
 1203              		.loc 1 64 38 view .LVU341
 1204 0124 0122     		movs	r2, #1
 1205              	.LBE326:
 1206              	.LBE325:
 211:keys.cpp      ****         ad.Trigger();
 1207              		.loc 9 211 17 view .LVU342
 1208 0126 3948     		ldr	r0, .L81+72
 1209              	.LBB329:
 1210              	.LBB327:
  64:../DaisyExamples/DaisySP/Source/Control/adenv.h ****     /** Sets the length of time (in seconds) for a specific segment. */
 1211              		.loc 1 64 38 view .LVU343
 1212 0128 354B     		ldr	r3, .L81+60
 1213              	.LBE327:
 1214              	.LBE329:
 211:keys.cpp      ****         ad.Trigger();
 1215              		.loc 9 211 17 view .LVU344
 1216 012a 0860     		str	r0, [r1]	@ float
 212:keys.cpp      ****         // hw.SetLed(true);
ARM GAS  /var/folders/7c/668hyr3s7rlgsbdftclf3hsr0000gn/T//ccdjQHJK.s 			page 39


 1217              		.loc 9 212 9 is_stmt 1 view .LVU345
 1218              	.LVL101:
 1219              	.LBB330:
 1220              	.LBI325:
  64:../DaisyExamples/DaisySP/Source/Control/adenv.h ****     /** Sets the length of time (in seconds) for a specific segment. */
 1221              		.loc 1 64 17 view .LVU346
 1222              	.LBB328:
  64:../DaisyExamples/DaisySP/Source/Control/adenv.h ****     /** Sets the length of time (in seconds) for a specific segment. */
 1223              		.loc 1 64 29 view .LVU347
  64:../DaisyExamples/DaisySP/Source/Control/adenv.h ****     /** Sets the length of time (in seconds) for a specific segment. */
 1224              		.loc 1 64 38 is_stmt 0 view .LVU348
 1225 012c 83F83420 		strb	r2, [r3, #52]
  64:../DaisyExamples/DaisySP/Source/Control/adenv.h ****     /** Sets the length of time (in seconds) for a specific segment. */
 1226              		.loc 1 64 43 view .LVU349
 1227 0130 CDE7     		b	.L25
 1228              	.LVL102:
 1229              	.L77:
  64:../DaisyExamples/DaisySP/Source/Control/adenv.h ****     /** Sets the length of time (in seconds) for a specific segment. */
 1230              		.loc 1 64 43 view .LVU350
 1231              	.LBE328:
 1232              	.LBE330:
 203:keys.cpp      ****         // oscFreq = 277.18f; //C#
 1233              		.loc 9 203 9 is_stmt 1 view .LVU351
 203:keys.cpp      ****         // oscFreq = 277.18f; //C#
 1234              		.loc 9 203 17 is_stmt 0 view .LVU352
 1235 0132 3149     		ldr	r1, .L81+52
 1236              	.LBB331:
 1237              	.LBB332:
  64:../DaisyExamples/DaisySP/Source/Control/adenv.h ****     /** Sets the length of time (in seconds) for a specific segment. */
 1238              		.loc 1 64 38 view .LVU353
 1239 0134 0122     		movs	r2, #1
 1240              	.LBE332:
 1241              	.LBE331:
 203:keys.cpp      ****         // oscFreq = 277.18f; //C#
 1242              		.loc 9 203 17 view .LVU354
 1243 0136 3648     		ldr	r0, .L81+76
 1244              	.LBB335:
 1245              	.LBB333:
  64:../DaisyExamples/DaisySP/Source/Control/adenv.h ****     /** Sets the length of time (in seconds) for a specific segment. */
 1246              		.loc 1 64 38 view .LVU355
 1247 0138 314B     		ldr	r3, .L81+60
 1248              	.LBE333:
 1249              	.LBE335:
 203:keys.cpp      ****         // oscFreq = 277.18f; //C#
 1250              		.loc 9 203 17 view .LVU356
 1251 013a 0860     		str	r0, [r1]	@ float
 205:keys.cpp      ****         // hw.SetLed(true);
 1252              		.loc 9 205 9 is_stmt 1 view .LVU357
 1253              	.LVL103:
 1254              	.LBB336:
 1255              	.LBI331:
  64:../DaisyExamples/DaisySP/Source/Control/adenv.h ****     /** Sets the length of time (in seconds) for a specific segment. */
 1256              		.loc 1 64 17 view .LVU358
 1257              	.LBB334:
  64:../DaisyExamples/DaisySP/Source/Control/adenv.h ****     /** Sets the length of time (in seconds) for a specific segment. */
 1258              		.loc 1 64 29 view .LVU359
  64:../DaisyExamples/DaisySP/Source/Control/adenv.h ****     /** Sets the length of time (in seconds) for a specific segment. */
ARM GAS  /var/folders/7c/668hyr3s7rlgsbdftclf3hsr0000gn/T//ccdjQHJK.s 			page 40


 1259              		.loc 1 64 38 is_stmt 0 view .LVU360
 1260 013c 83F83420 		strb	r2, [r3, #52]
  64:../DaisyExamples/DaisySP/Source/Control/adenv.h ****     /** Sets the length of time (in seconds) for a specific segment. */
 1261              		.loc 1 64 43 view .LVU361
 1262 0140 BFE7     		b	.L24
 1263              	.LVL104:
 1264              	.L76:
  64:../DaisyExamples/DaisySP/Source/Control/adenv.h ****     /** Sets the length of time (in seconds) for a specific segment. */
 1265              		.loc 1 64 43 view .LVU362
 1266              	.LBE334:
 1267              	.LBE336:
 196:keys.cpp      ****         ad.Trigger();
 1268              		.loc 9 196 9 is_stmt 1 view .LVU363
 196:keys.cpp      ****         ad.Trigger();
 1269              		.loc 9 196 17 is_stmt 0 view .LVU364
 1270 0142 2D49     		ldr	r1, .L81+52
 1271              	.LBB337:
 1272              	.LBB338:
  64:../DaisyExamples/DaisySP/Source/Control/adenv.h ****     /** Sets the length of time (in seconds) for a specific segment. */
 1273              		.loc 1 64 38 view .LVU365
 1274 0144 0122     		movs	r2, #1
 1275              	.LBE338:
 1276              	.LBE337:
 196:keys.cpp      ****         ad.Trigger();
 1277              		.loc 9 196 17 view .LVU366
 1278 0146 3348     		ldr	r0, .L81+80
 1279              	.LBB341:
 1280              	.LBB339:
  64:../DaisyExamples/DaisySP/Source/Control/adenv.h ****     /** Sets the length of time (in seconds) for a specific segment. */
 1281              		.loc 1 64 38 view .LVU367
 1282 0148 2D4B     		ldr	r3, .L81+60
 1283              	.LBE339:
 1284              	.LBE341:
 196:keys.cpp      ****         ad.Trigger();
 1285              		.loc 9 196 17 view .LVU368
 1286 014a 0860     		str	r0, [r1]	@ float
 197:keys.cpp      ****         // hw.SetLed(true);
 1287              		.loc 9 197 9 is_stmt 1 view .LVU369
 1288              	.LVL105:
 1289              	.LBB342:
 1290              	.LBI337:
  64:../DaisyExamples/DaisySP/Source/Control/adenv.h ****     /** Sets the length of time (in seconds) for a specific segment. */
 1291              		.loc 1 64 17 view .LVU370
 1292              	.LBB340:
  64:../DaisyExamples/DaisySP/Source/Control/adenv.h ****     /** Sets the length of time (in seconds) for a specific segment. */
 1293              		.loc 1 64 29 view .LVU371
  64:../DaisyExamples/DaisySP/Source/Control/adenv.h ****     /** Sets the length of time (in seconds) for a specific segment. */
 1294              		.loc 1 64 38 is_stmt 0 view .LVU372
 1295 014c 83F83420 		strb	r2, [r3, #52]
  64:../DaisyExamples/DaisySP/Source/Control/adenv.h ****     /** Sets the length of time (in seconds) for a specific segment. */
 1296              		.loc 1 64 43 view .LVU373
 1297 0150 B1E7     		b	.L23
 1298              	.LVL106:
 1299              	.L75:
  64:../DaisyExamples/DaisySP/Source/Control/adenv.h ****     /** Sets the length of time (in seconds) for a specific segment. */
 1300              		.loc 1 64 43 view .LVU374
 1301              	.LBE340:
ARM GAS  /var/folders/7c/668hyr3s7rlgsbdftclf3hsr0000gn/T//ccdjQHJK.s 			page 41


 1302              	.LBE342:
 188:keys.cpp      ****         // oscFreq = 277.18f; //C#
 1303              		.loc 9 188 9 is_stmt 1 view .LVU375
 188:keys.cpp      ****         // oscFreq = 277.18f; //C#
 1304              		.loc 9 188 17 is_stmt 0 view .LVU376
 1305 0152 2949     		ldr	r1, .L81+52
 1306              	.LBB343:
 1307              	.LBB344:
  64:../DaisyExamples/DaisySP/Source/Control/adenv.h ****     /** Sets the length of time (in seconds) for a specific segment. */
 1308              		.loc 1 64 38 view .LVU377
 1309 0154 0122     		movs	r2, #1
 1310              	.LBE344:
 1311              	.LBE343:
 188:keys.cpp      ****         // oscFreq = 277.18f; //C#
 1312              		.loc 9 188 17 view .LVU378
 1313 0156 3048     		ldr	r0, .L81+84
 1314              	.LBB347:
 1315              	.LBB345:
  64:../DaisyExamples/DaisySP/Source/Control/adenv.h ****     /** Sets the length of time (in seconds) for a specific segment. */
 1316              		.loc 1 64 38 view .LVU379
 1317 0158 294B     		ldr	r3, .L81+60
 1318              	.LBE345:
 1319              	.LBE347:
 188:keys.cpp      ****         // oscFreq = 277.18f; //C#
 1320              		.loc 9 188 17 view .LVU380
 1321 015a 0860     		str	r0, [r1]	@ float
 190:keys.cpp      ****         // hw.SetLed(true);
 1322              		.loc 9 190 9 is_stmt 1 view .LVU381
 1323              	.LVL107:
 1324              	.LBB348:
 1325              	.LBI343:
  64:../DaisyExamples/DaisySP/Source/Control/adenv.h ****     /** Sets the length of time (in seconds) for a specific segment. */
 1326              		.loc 1 64 17 view .LVU382
 1327              	.LBB346:
  64:../DaisyExamples/DaisySP/Source/Control/adenv.h ****     /** Sets the length of time (in seconds) for a specific segment. */
 1328              		.loc 1 64 29 view .LVU383
  64:../DaisyExamples/DaisySP/Source/Control/adenv.h ****     /** Sets the length of time (in seconds) for a specific segment. */
 1329              		.loc 1 64 38 is_stmt 0 view .LVU384
 1330 015c 83F83420 		strb	r2, [r3, #52]
  64:../DaisyExamples/DaisySP/Source/Control/adenv.h ****     /** Sets the length of time (in seconds) for a specific segment. */
 1331              		.loc 1 64 43 view .LVU385
 1332 0160 A3E7     		b	.L22
 1333              	.LVL108:
 1334              	.L74:
  64:../DaisyExamples/DaisySP/Source/Control/adenv.h ****     /** Sets the length of time (in seconds) for a specific segment. */
 1335              		.loc 1 64 43 view .LVU386
 1336              	.LBE346:
 1337              	.LBE348:
 179:keys.cpp      ****         // oscFreq = 369.99f; // F#
 1338              		.loc 9 179 9 is_stmt 1 view .LVU387
 179:keys.cpp      ****         // oscFreq = 369.99f; // F#
 1339              		.loc 9 179 17 is_stmt 0 view .LVU388
 1340 0162 2549     		ldr	r1, .L81+52
 1341              	.LBB349:
 1342              	.LBB350:
  64:../DaisyExamples/DaisySP/Source/Control/adenv.h ****     /** Sets the length of time (in seconds) for a specific segment. */
 1343              		.loc 1 64 38 view .LVU389
ARM GAS  /var/folders/7c/668hyr3s7rlgsbdftclf3hsr0000gn/T//ccdjQHJK.s 			page 42


 1344 0164 0122     		movs	r2, #1
 1345              	.LBE350:
 1346              	.LBE349:
 179:keys.cpp      ****         // oscFreq = 369.99f; // F#
 1347              		.loc 9 179 17 view .LVU390
 1348 0166 2D48     		ldr	r0, .L81+88
 1349              	.LBB353:
 1350              	.LBB351:
  64:../DaisyExamples/DaisySP/Source/Control/adenv.h ****     /** Sets the length of time (in seconds) for a specific segment. */
 1351              		.loc 1 64 38 view .LVU391
 1352 0168 254B     		ldr	r3, .L81+60
 1353              	.LBE351:
 1354              	.LBE353:
 179:keys.cpp      ****         // oscFreq = 369.99f; // F#
 1355              		.loc 9 179 17 view .LVU392
 1356 016a 0860     		str	r0, [r1]	@ float
 182:keys.cpp      ****         // hw.SetLed(true);
 1357              		.loc 9 182 9 is_stmt 1 view .LVU393
 1358              	.LVL109:
 1359              	.LBB354:
 1360              	.LBI349:
  64:../DaisyExamples/DaisySP/Source/Control/adenv.h ****     /** Sets the length of time (in seconds) for a specific segment. */
 1361              		.loc 1 64 17 view .LVU394
 1362              	.LBB352:
  64:../DaisyExamples/DaisySP/Source/Control/adenv.h ****     /** Sets the length of time (in seconds) for a specific segment. */
 1363              		.loc 1 64 29 view .LVU395
  64:../DaisyExamples/DaisySP/Source/Control/adenv.h ****     /** Sets the length of time (in seconds) for a specific segment. */
 1364              		.loc 1 64 38 is_stmt 0 view .LVU396
 1365 016c 83F83420 		strb	r2, [r3, #52]
  64:../DaisyExamples/DaisySP/Source/Control/adenv.h ****     /** Sets the length of time (in seconds) for a specific segment. */
 1366              		.loc 1 64 43 view .LVU397
 1367 0170 95E7     		b	.L21
 1368              	.LVL110:
 1369              	.L73:
  64:../DaisyExamples/DaisySP/Source/Control/adenv.h ****     /** Sets the length of time (in seconds) for a specific segment. */
 1370              		.loc 1 64 43 view .LVU398
 1371              	.LBE352:
 1372              	.LBE354:
 172:keys.cpp      ****         ad.Trigger();
 1373              		.loc 9 172 9 is_stmt 1 view .LVU399
 172:keys.cpp      ****         ad.Trigger();
 1374              		.loc 9 172 17 is_stmt 0 view .LVU400
 1375 0172 2149     		ldr	r1, .L81+52
 1376              	.LBB355:
 1377              	.LBB356:
  64:../DaisyExamples/DaisySP/Source/Control/adenv.h ****     /** Sets the length of time (in seconds) for a specific segment. */
 1378              		.loc 1 64 38 view .LVU401
 1379 0174 0122     		movs	r2, #1
 1380              	.LBE356:
 1381              	.LBE355:
 172:keys.cpp      ****         ad.Trigger();
 1382              		.loc 9 172 17 view .LVU402
 1383 0176 2A48     		ldr	r0, .L81+92
 1384              	.LBB359:
 1385              	.LBB357:
  64:../DaisyExamples/DaisySP/Source/Control/adenv.h ****     /** Sets the length of time (in seconds) for a specific segment. */
 1386              		.loc 1 64 38 view .LVU403
ARM GAS  /var/folders/7c/668hyr3s7rlgsbdftclf3hsr0000gn/T//ccdjQHJK.s 			page 43


 1387 0178 214B     		ldr	r3, .L81+60
 1388              	.LBE357:
 1389              	.LBE359:
 172:keys.cpp      ****         ad.Trigger();
 1390              		.loc 9 172 17 view .LVU404
 1391 017a 0860     		str	r0, [r1]	@ float
 173:keys.cpp      ****         // hw.SetLed(true);
 1392              		.loc 9 173 9 is_stmt 1 view .LVU405
 1393              	.LVL111:
 1394              	.LBB360:
 1395              	.LBI355:
  64:../DaisyExamples/DaisySP/Source/Control/adenv.h ****     /** Sets the length of time (in seconds) for a specific segment. */
 1396              		.loc 1 64 17 view .LVU406
 1397              	.LBB358:
  64:../DaisyExamples/DaisySP/Source/Control/adenv.h ****     /** Sets the length of time (in seconds) for a specific segment. */
 1398              		.loc 1 64 29 view .LVU407
  64:../DaisyExamples/DaisySP/Source/Control/adenv.h ****     /** Sets the length of time (in seconds) for a specific segment. */
 1399              		.loc 1 64 38 is_stmt 0 view .LVU408
 1400 017c 83F83420 		strb	r2, [r3, #52]
  64:../DaisyExamples/DaisySP/Source/Control/adenv.h ****     /** Sets the length of time (in seconds) for a specific segment. */
 1401              		.loc 1 64 43 view .LVU409
 1402 0180 87E7     		b	.L20
 1403              	.LVL112:
 1404              	.L72:
  64:../DaisyExamples/DaisySP/Source/Control/adenv.h ****     /** Sets the length of time (in seconds) for a specific segment. */
 1405              		.loc 1 64 43 view .LVU410
 1406              	.LBE358:
 1407              	.LBE360:
 164:keys.cpp      ****         // oscFreq = 277.18f; //C#
 1408              		.loc 9 164 9 is_stmt 1 view .LVU411
 164:keys.cpp      ****         // oscFreq = 277.18f; //C#
 1409              		.loc 9 164 17 is_stmt 0 view .LVU412
 1410 0182 1D49     		ldr	r1, .L81+52
 1411              	.LBB361:
 1412              	.LBB362:
  64:../DaisyExamples/DaisySP/Source/Control/adenv.h ****     /** Sets the length of time (in seconds) for a specific segment. */
 1413              		.loc 1 64 38 view .LVU413
 1414 0184 0122     		movs	r2, #1
 1415              	.LBE362:
 1416              	.LBE361:
 164:keys.cpp      ****         // oscFreq = 277.18f; //C#
 1417              		.loc 9 164 17 view .LVU414
 1418 0186 2748     		ldr	r0, .L81+96
 1419              	.LBB365:
 1420              	.LBB363:
  64:../DaisyExamples/DaisySP/Source/Control/adenv.h ****     /** Sets the length of time (in seconds) for a specific segment. */
 1421              		.loc 1 64 38 view .LVU415
 1422 0188 1D4B     		ldr	r3, .L81+60
 1423              	.LBE363:
 1424              	.LBE365:
 164:keys.cpp      ****         // oscFreq = 277.18f; //C#
 1425              		.loc 9 164 17 view .LVU416
 1426 018a 0860     		str	r0, [r1]	@ float
 166:keys.cpp      ****         // hw.SetLed(true);
 1427              		.loc 9 166 9 is_stmt 1 view .LVU417
 1428              	.LVL113:
 1429              	.LBB366:
ARM GAS  /var/folders/7c/668hyr3s7rlgsbdftclf3hsr0000gn/T//ccdjQHJK.s 			page 44


 1430              	.LBI361:
  64:../DaisyExamples/DaisySP/Source/Control/adenv.h ****     /** Sets the length of time (in seconds) for a specific segment. */
 1431              		.loc 1 64 17 view .LVU418
 1432              	.LBB364:
  64:../DaisyExamples/DaisySP/Source/Control/adenv.h ****     /** Sets the length of time (in seconds) for a specific segment. */
 1433              		.loc 1 64 29 view .LVU419
  64:../DaisyExamples/DaisySP/Source/Control/adenv.h ****     /** Sets the length of time (in seconds) for a specific segment. */
 1434              		.loc 1 64 38 is_stmt 0 view .LVU420
 1435 018c 83F83420 		strb	r2, [r3, #52]
  64:../DaisyExamples/DaisySP/Source/Control/adenv.h ****     /** Sets the length of time (in seconds) for a specific segment. */
 1436              		.loc 1 64 43 view .LVU421
 1437 0190 79E7     		b	.L19
 1438              	.LVL114:
 1439              	.L71:
  64:../DaisyExamples/DaisySP/Source/Control/adenv.h ****     /** Sets the length of time (in seconds) for a specific segment. */
 1440              		.loc 1 64 43 view .LVU422
 1441              	.LBE364:
 1442              	.LBE366:
 157:keys.cpp      ****         ad.Trigger();
 1443              		.loc 9 157 9 is_stmt 1 view .LVU423
 157:keys.cpp      ****         ad.Trigger();
 1444              		.loc 9 157 17 is_stmt 0 view .LVU424
 1445 0192 1949     		ldr	r1, .L81+52
 1446              	.LBB367:
 1447              	.LBB368:
  64:../DaisyExamples/DaisySP/Source/Control/adenv.h ****     /** Sets the length of time (in seconds) for a specific segment. */
 1448              		.loc 1 64 38 view .LVU425
 1449 0194 0122     		movs	r2, #1
 1450              	.LBE368:
 1451              	.LBE367:
 157:keys.cpp      ****         ad.Trigger();
 1452              		.loc 9 157 17 view .LVU426
 1453 0196 2448     		ldr	r0, .L81+100
 1454              	.LBB371:
 1455              	.LBB369:
  64:../DaisyExamples/DaisySP/Source/Control/adenv.h ****     /** Sets the length of time (in seconds) for a specific segment. */
 1456              		.loc 1 64 38 view .LVU427
 1457 0198 194B     		ldr	r3, .L81+60
 1458              	.LBE369:
 1459              	.LBE371:
 157:keys.cpp      ****         ad.Trigger();
 1460              		.loc 9 157 17 view .LVU428
 1461 019a 0860     		str	r0, [r1]	@ float
 158:keys.cpp      ****         // hw.SetLed(true);
 1462              		.loc 9 158 9 is_stmt 1 view .LVU429
 1463              	.LVL115:
 1464              	.LBB372:
 1465              	.LBI367:
  64:../DaisyExamples/DaisySP/Source/Control/adenv.h ****     /** Sets the length of time (in seconds) for a specific segment. */
 1466              		.loc 1 64 17 view .LVU430
 1467              	.LBB370:
  64:../DaisyExamples/DaisySP/Source/Control/adenv.h ****     /** Sets the length of time (in seconds) for a specific segment. */
 1468              		.loc 1 64 29 view .LVU431
  64:../DaisyExamples/DaisySP/Source/Control/adenv.h ****     /** Sets the length of time (in seconds) for a specific segment. */
 1469              		.loc 1 64 38 is_stmt 0 view .LVU432
 1470 019c 83F83420 		strb	r2, [r3, #52]
  64:../DaisyExamples/DaisySP/Source/Control/adenv.h ****     /** Sets the length of time (in seconds) for a specific segment. */
ARM GAS  /var/folders/7c/668hyr3s7rlgsbdftclf3hsr0000gn/T//ccdjQHJK.s 			page 45


 1471              		.loc 1 64 43 view .LVU433
 1472 01a0 6BE7     		b	.L18
 1473              	.LVL116:
 1474              	.L70:
  64:../DaisyExamples/DaisySP/Source/Control/adenv.h ****     /** Sets the length of time (in seconds) for a specific segment. */
 1475              		.loc 1 64 43 view .LVU434
 1476              	.LBE370:
 1477              	.LBE372:
 149:keys.cpp      ****         // oscFreq = 277.18f; //C#
 1478              		.loc 9 149 9 is_stmt 1 view .LVU435
 149:keys.cpp      ****         // oscFreq = 277.18f; //C#
 1479              		.loc 9 149 17 is_stmt 0 view .LVU436
 1480 01a2 1549     		ldr	r1, .L81+52
 1481              	.LBB373:
 1482              	.LBB374:
  64:../DaisyExamples/DaisySP/Source/Control/adenv.h ****     /** Sets the length of time (in seconds) for a specific segment. */
 1483              		.loc 1 64 38 view .LVU437
 1484 01a4 0122     		movs	r2, #1
 1485              	.LBE374:
 1486              	.LBE373:
 149:keys.cpp      ****         // oscFreq = 277.18f; //C#
 1487              		.loc 9 149 17 view .LVU438
 1488 01a6 2148     		ldr	r0, .L81+104
 1489              	.LBB377:
 1490              	.LBB375:
  64:../DaisyExamples/DaisySP/Source/Control/adenv.h ****     /** Sets the length of time (in seconds) for a specific segment. */
 1491              		.loc 1 64 38 view .LVU439
 1492 01a8 154B     		ldr	r3, .L81+60
 1493              	.LBE375:
 1494              	.LBE377:
 149:keys.cpp      ****         // oscFreq = 277.18f; //C#
 1495              		.loc 9 149 17 view .LVU440
 1496 01aa 0860     		str	r0, [r1]	@ float
 151:keys.cpp      ****         // hw.SetLed(true);
 1497              		.loc 9 151 9 is_stmt 1 view .LVU441
 1498              	.LVL117:
 1499              	.LBB378:
 1500              	.LBI373:
  64:../DaisyExamples/DaisySP/Source/Control/adenv.h ****     /** Sets the length of time (in seconds) for a specific segment. */
 1501              		.loc 1 64 17 view .LVU442
 1502              	.LBB376:
  64:../DaisyExamples/DaisySP/Source/Control/adenv.h ****     /** Sets the length of time (in seconds) for a specific segment. */
 1503              		.loc 1 64 29 view .LVU443
  64:../DaisyExamples/DaisySP/Source/Control/adenv.h ****     /** Sets the length of time (in seconds) for a specific segment. */
 1504              		.loc 1 64 38 is_stmt 0 view .LVU444
 1505 01ac 83F83420 		strb	r2, [r3, #52]
  64:../DaisyExamples/DaisySP/Source/Control/adenv.h ****     /** Sets the length of time (in seconds) for a specific segment. */
 1506              		.loc 1 64 43 view .LVU445
 1507 01b0 5CE7     		b	.L17
 1508              	.LVL118:
 1509              	.L69:
  64:../DaisyExamples/DaisySP/Source/Control/adenv.h ****     /** Sets the length of time (in seconds) for a specific segment. */
 1510              		.loc 1 64 43 view .LVU446
 1511              	.LBE376:
 1512              	.LBE378:
 141:keys.cpp      ****         // oscFreq = 277.18f; //C#
 1513              		.loc 9 141 9 is_stmt 1 view .LVU447
ARM GAS  /var/folders/7c/668hyr3s7rlgsbdftclf3hsr0000gn/T//ccdjQHJK.s 			page 46


 141:keys.cpp      ****         // oscFreq = 277.18f; //C#
 1514              		.loc 9 141 17 is_stmt 0 view .LVU448
 1515 01b2 1149     		ldr	r1, .L81+52
 1516              	.LBB379:
 1517              	.LBB380:
  64:../DaisyExamples/DaisySP/Source/Control/adenv.h ****     /** Sets the length of time (in seconds) for a specific segment. */
 1518              		.loc 1 64 38 view .LVU449
 1519 01b4 0122     		movs	r2, #1
 1520              	.LBE380:
 1521              	.LBE379:
 141:keys.cpp      ****         // oscFreq = 277.18f; //C#
 1522              		.loc 9 141 17 view .LVU450
 1523 01b6 1E48     		ldr	r0, .L81+108
 1524              	.LBB383:
 1525              	.LBB381:
  64:../DaisyExamples/DaisySP/Source/Control/adenv.h ****     /** Sets the length of time (in seconds) for a specific segment. */
 1526              		.loc 1 64 38 view .LVU451
 1527 01b8 114B     		ldr	r3, .L81+60
 1528              	.LBE381:
 1529              	.LBE383:
 141:keys.cpp      ****         // oscFreq = 277.18f; //C#
 1530              		.loc 9 141 17 view .LVU452
 1531 01ba 0860     		str	r0, [r1]	@ float
 143:keys.cpp      ****         // hw.SetLed(true);
 1532              		.loc 9 143 9 is_stmt 1 view .LVU453
 1533              	.LVL119:
 1534              	.LBB384:
 1535              	.LBI379:
  64:../DaisyExamples/DaisySP/Source/Control/adenv.h ****     /** Sets the length of time (in seconds) for a specific segment. */
 1536              		.loc 1 64 17 view .LVU454
 1537              	.LBB382:
  64:../DaisyExamples/DaisySP/Source/Control/adenv.h ****     /** Sets the length of time (in seconds) for a specific segment. */
 1538              		.loc 1 64 29 view .LVU455
  64:../DaisyExamples/DaisySP/Source/Control/adenv.h ****     /** Sets the length of time (in seconds) for a specific segment. */
 1539              		.loc 1 64 38 is_stmt 0 view .LVU456
 1540 01bc 83F83420 		strb	r2, [r3, #52]
  64:../DaisyExamples/DaisySP/Source/Control/adenv.h ****     /** Sets the length of time (in seconds) for a specific segment. */
 1541              		.loc 1 64 43 view .LVU457
 1542 01c0 4DE7     		b	.L16
 1543              	.L82:
 1544 01c2 00BF     		.align	2
 1545              	.L81:
 1546 01c4 00000000 		.word	.LANCHOR16
 1547 01c8 00000000 		.word	.LANCHOR15
 1548 01cc 00000000 		.word	.LANCHOR14
 1549 01d0 00000000 		.word	.LANCHOR13
 1550 01d4 00000000 		.word	.LANCHOR12
 1551 01d8 00000000 		.word	.LANCHOR11
 1552 01dc 00000000 		.word	.LANCHOR10
 1553 01e0 00000000 		.word	.LANCHOR9
 1554 01e4 00000000 		.word	.LANCHOR8
 1555 01e8 00000000 		.word	.LANCHOR7
 1556 01ec 00000000 		.word	.LANCHOR6
 1557 01f0 00000000 		.word	.LANCHOR5
 1558 01f4 00000000 		.word	.LANCHOR4
 1559 01f8 00000000 		.word	.LANCHOR1
 1560 01fc 00D00244 		.word	1141035008
ARM GAS  /var/folders/7c/668hyr3s7rlgsbdftclf3hsr0000gn/T//ccdjQHJK.s 			page 47


 1561 0200 00000000 		.word	.LANCHOR0
 1562 0204 A4F0F643 		.word	1140256932
 1563 0208 7B14E943 		.word	1139348603
 1564 020c 0000DC43 		.word	1138491392
 1565 0210 66A6CF43 		.word	1137682022
 1566 0214 0000C443 		.word	1136918528
 1567 0218 B8FEB843 		.word	1136197304
 1568 021c 719DAE43 		.word	1135517041
 1569 0220 A4D0A443 		.word	1134874788
 1570 0224 A4909B43 		.word	1134268580
 1571 0228 7BD49243 		.word	1133696123
 1572 022c 0A978A43 		.word	1133156106
 1573 0230 A4D08243 		.word	1132646564
 1574              	.LBE382:
 1575              	.LBE384:
 1576              		.cfi_endproc
 1577              	.LFE4685:
 1579              		.section	.text._ZL13AudioCallbackPKfPfj,"ax",%progbits
 1580              		.align	1
 1581              		.p2align 2,,3
 1582              		.syntax unified
 1583              		.thumb
 1584              		.thumb_func
 1586              	_ZL13AudioCallbackPKfPfj:
 1587              	.LVL120:
 1588              	.LFB4683:
  49:keys.cpp      ****     Controls();
 1589              		.loc 9 49 1 is_stmt 1 view -0
 1590              		.cfi_startproc
 1591              		@ args = 0, pretend = 0, frame = 0
 1592              		@ frame_needed = 0, uses_anonymous_args = 0
  50:keys.cpp      **** 
 1593              		.loc 9 50 5 view .LVU459
 1594              	.LBB393:
 1595              	.LBI393:
 241:keys.cpp      **** 
 242:keys.cpp      **** void Controls()
 1596              		.loc 9 242 6 view .LVU460
 1597              	.LBB394:
 243:keys.cpp      **** {
 244:keys.cpp      ****     // pod.ProcessAnalogControls();
 245:keys.cpp      ****     // pod.ProcessDigitalControls();
 246:keys.cpp      **** 
 247:keys.cpp      ****     // UpdateEncoder();
 248:keys.cpp      **** 
 249:keys.cpp      ****     // UpdateKnobs();
 250:keys.cpp      **** 
 251:keys.cpp      ****     // UpdateLeds();
 252:keys.cpp      **** 
 253:keys.cpp      ****     UpdateButtons();
 1598              		.loc 9 253 5 view .LVU461
 1599              	.LBE394:
 1600              	.LBE393:
  49:keys.cpp      ****     Controls();
 1601              		.loc 9 49 1 is_stmt 0 view .LVU462
 1602 0000 2DE9F041 		push	{r4, r5, r6, r7, r8, lr}
 1603              		.cfi_def_cfa_offset 24
ARM GAS  /var/folders/7c/668hyr3s7rlgsbdftclf3hsr0000gn/T//ccdjQHJK.s 			page 48


 1604              		.cfi_offset 4, -24
 1605              		.cfi_offset 5, -20
 1606              		.cfi_offset 6, -16
 1607              		.cfi_offset 7, -12
 1608              		.cfi_offset 8, -8
 1609              		.cfi_offset 14, -4
 1610 0004 1746     		mov	r7, r2
 1611 0006 0C46     		mov	r4, r1
 1612 0008 2DED028B 		vpush.64	{d8}
 1613              		.cfi_def_cfa_offset 32
 1614              		.cfi_offset 80, -32
 1615              		.cfi_offset 81, -28
 1616              	.LBB396:
 1617              	.LBB395:
 1618              		.loc 9 253 18 view .LVU463
 1619 000c FFF7FEFF 		bl	_Z13UpdateButtonsv
 1620              	.LVL121:
 1621              		.loc 9 253 18 view .LVU464
 1622              	.LBE395:
 1623              	.LBE396:
  53:keys.cpp      ****     {
 1624              		.loc 9 53 5 is_stmt 1 view .LVU465
 1625              	.LBB397:
  53:keys.cpp      ****     {
 1626              		.loc 9 53 25 view .LVU466
 1627 0010 1FB3     		cbz	r7, .L83
 1628 0012 013F     		subs	r7, r7, #1
 1629              	.LVL122:
  53:keys.cpp      ****     {
 1630              		.loc 9 53 25 is_stmt 0 view .LVU467
 1631 0014 0025     		movs	r5, #0
 1632 0016 DFF85480 		ldr	r8, .L91+8
 1633 001a 7F08     		lsrs	r7, r7, #1
 1634              	.LVL123:
  53:keys.cpp      ****     {
 1635              		.loc 9 53 25 view .LVU468
 1636 001c 114E     		ldr	r6, .L91
 1637              	.LVL124:
 1638              	.L85:
 1639              	.LBB398:
  55:keys.cpp      ****         NextSamples(sig);
 1640              		.loc 9 55 9 is_stmt 1 view .LVU469
  56:keys.cpp      **** 
 1641              		.loc 9 56 9 view .LVU470
 1642              	.LBB399:
 1643              	.LBI399:
  33:keys.cpp      **** {
 1644              		.loc 9 33 6 view .LVU471
 1645              	.LBB400:
  35:keys.cpp      ****     // vibrato      = lfo.Process();
 1646              		.loc 9 35 5 view .LVU472
  35:keys.cpp      ****     // vibrato      = lfo.Process();
 1647              		.loc 9 35 30 is_stmt 0 view .LVU473
 1648 001e 1248     		ldr	r0, .L91+4
 1649              	.LBE400:
 1650              	.LBE399:
 1651              	.LBE398:
ARM GAS  /var/folders/7c/668hyr3s7rlgsbdftclf3hsr0000gn/T//ccdjQHJK.s 			page 49


  53:keys.cpp      ****     {
 1652              		.loc 9 53 25 view .LVU474
 1653 0020 0834     		adds	r4, r4, #8
 1654              	.LBB407:
 1655              	.LBB406:
 1656              	.LBB405:
  35:keys.cpp      ****     // vibrato      = lfo.Process();
 1657              		.loc 9 35 30 view .LVU475
 1658 0022 FFF7FEFF 		bl	_ZN7daisysp5AdEnv7ProcessEv
 1659              	.LVL125:
  39:keys.cpp      **** 
 1660              		.loc 9 39 16 view .LVU476
 1661 0026 D8ED007A 		vldr.32	s15, [r8]
  35:keys.cpp      ****     // vibrato      = lfo.Process();
 1662              		.loc 9 35 30 view .LVU477
 1663 002a B0EE408A 		vmov.f32	s16, s0
 1664              	.LVL126:
  39:keys.cpp      **** 
 1665              		.loc 9 39 5 is_stmt 1 view .LVU478
 1666              	.LBB401:
 1667              	.LBI401:
  67:../DaisyExamples/DaisySP/Source/Synthesis/oscillator.h ****     {
 1668              		.loc 2 67 17 view .LVU479
 1669              	.LBB402:
  69:../DaisyExamples/DaisySP/Source/Synthesis/oscillator.h ****         phase_inc_ = CalcPhaseInc(f);
 1670              		.loc 2 69 9 view .LVU480
  70:../DaisyExamples/DaisySP/Source/Synthesis/oscillator.h ****     }
 1671              		.loc 2 70 34 is_stmt 0 view .LVU481
 1672 002e 0D48     		ldr	r0, .L91
 1673 0030 B0EE670A 		vmov.f32	s0, s15
 1674              	.LVL127:
  69:../DaisyExamples/DaisySP/Source/Synthesis/oscillator.h ****         phase_inc_ = CalcPhaseInc(f);
 1675              		.loc 2 69 20 view .LVU482
 1676 0034 C6ED027A 		vstr.32	s15, [r6, #8]
  70:../DaisyExamples/DaisySP/Source/Synthesis/oscillator.h ****     }
 1677              		.loc 2 70 9 is_stmt 1 view .LVU483
  70:../DaisyExamples/DaisySP/Source/Synthesis/oscillator.h ****     }
 1678              		.loc 2 70 34 is_stmt 0 view .LVU484
 1679 0038 FFF7FEFF 		bl	_ZN7daisysp10Oscillator12CalcPhaseIncEf
 1680              	.LVL128:
  70:../DaisyExamples/DaisySP/Source/Synthesis/oscillator.h ****     }
 1681              		.loc 2 70 34 view .LVU485
 1682              	.LBE402:
 1683              	.LBE401:
  41:keys.cpp      ****     // sig = flt.Process(sig);
 1684              		.loc 9 41 22 view .LVU486
 1685 003c 0948     		ldr	r0, .L91
 1686              	.LBB404:
 1687              	.LBB403:
  70:../DaisyExamples/DaisySP/Source/Synthesis/oscillator.h ****     }
 1688              		.loc 2 70 20 view .LVU487
 1689 003e 86ED070A 		vstr.32	s0, [r6, #28]
 1690              	.LVL129:
  70:../DaisyExamples/DaisySP/Source/Synthesis/oscillator.h ****     }
 1691              		.loc 2 70 20 view .LVU488
 1692              	.LBE403:
 1693              	.LBE404:
ARM GAS  /var/folders/7c/668hyr3s7rlgsbdftclf3hsr0000gn/T//ccdjQHJK.s 			page 50


  41:keys.cpp      ****     // sig = flt.Process(sig);
 1694              		.loc 9 41 5 is_stmt 1 view .LVU489
  41:keys.cpp      ****     // sig = flt.Process(sig);
 1695              		.loc 9 41 22 is_stmt 0 view .LVU490
 1696 0042 FFF7FEFF 		bl	_ZN7daisysp10Oscillator7ProcessEv
 1697              	.LVL130:
  43:keys.cpp      **** }
 1698              		.loc 9 43 5 is_stmt 1 view .LVU491
  43:keys.cpp      **** }
 1699              		.loc 9 43 9 is_stmt 0 view .LVU492
 1700 0046 28EE000A 		vmul.f32	s0, s16, s0
 1701              	.LVL131:
  43:keys.cpp      **** }
 1702              		.loc 9 43 9 view .LVU493
 1703              	.LBE405:
 1704              	.LBE406:
  59:keys.cpp      **** 
 1705              		.loc 9 59 9 is_stmt 1 view .LVU494
 1706              	.LBE407:
  53:keys.cpp      ****     {
 1707              		.loc 9 53 25 is_stmt 0 view .LVU495
 1708 004a BD42     		cmp	r5, r7
 1709 004c 05F10105 		add	r5, r5, #1
 1710              	.LVL132:
 1711              	.LBB408:
  59:keys.cpp      **** 
 1712              		.loc 9 59 16 view .LVU496
 1713 0050 04ED020A 		vstr.32	s0, [r4, #-8]
  62:keys.cpp      ****     }
 1714              		.loc 9 62 9 is_stmt 1 view .LVU497
  62:keys.cpp      ****     }
 1715              		.loc 9 62 20 is_stmt 0 view .LVU498
 1716 0054 04ED010A 		vstr.32	s0, [r4, #-4]
 1717              	.LVL133:
  62:keys.cpp      ****     }
 1718              		.loc 9 62 20 view .LVU499
 1719              	.LBE408:
  53:keys.cpp      ****     {
 1720              		.loc 9 53 5 is_stmt 1 view .LVU500
  53:keys.cpp      ****     {
 1721              		.loc 9 53 25 view .LVU501
 1722 0058 E1D1     		bne	.L85
 1723              	.L83:
 1724              	.LBE397:
  64:keys.cpp      **** 
 1725              		.loc 9 64 1 is_stmt 0 view .LVU502
 1726 005a BDEC028B 		vldm	sp!, {d8}
 1727              		.cfi_restore 80
 1728              		.cfi_restore 81
 1729              		.cfi_def_cfa_offset 24
 1730 005e BDE8F081 		pop	{r4, r5, r6, r7, r8, pc}
 1731              	.L92:
 1732 0062 00BF     		.align	2
 1733              	.L91:
 1734 0064 00000000 		.word	.LANCHOR2
 1735 0068 00000000 		.word	.LANCHOR0
 1736 006c 00000000 		.word	.LANCHOR1
ARM GAS  /var/folders/7c/668hyr3s7rlgsbdftclf3hsr0000gn/T//ccdjQHJK.s 			page 51


 1737              		.cfi_endproc
 1738              	.LFE4683:
 1740              		.section	.text._Z8Controlsv,"ax",%progbits
 1741              		.align	1
 1742              		.p2align 2,,3
 1743              		.global	_Z8Controlsv
 1744              		.syntax unified
 1745              		.thumb
 1746              		.thumb_func
 1748              	_Z8Controlsv:
 1749              	.LFB4686:
 243:keys.cpp      ****     // pod.ProcessAnalogControls();
 1750              		.loc 9 243 1 is_stmt 1 view -0
 1751              		.cfi_startproc
 1752              		@ args = 0, pretend = 0, frame = 0
 1753              		@ frame_needed = 0, uses_anonymous_args = 0
 1754              		@ link register save eliminated.
 1755              		.loc 9 253 5 view .LVU504
 1756              		.loc 9 253 18 is_stmt 0 view .LVU505
 1757 0000 FFF7FEBF 		b	_Z13UpdateButtonsv
 1758              	.LVL134:
 1759              		.cfi_endproc
 1760              	.LFE4686:
 1762              		.section	.text.startup._GLOBAL__sub_I_wave,"ax",%progbits
 1763              		.align	1
 1764              		.p2align 2,,3
 1765              		.syntax unified
 1766              		.thumb
 1767              		.thumb_func
 1769              	_GLOBAL__sub_I_wave:
 1770              	.LFB5249:
 254:keys.cpp      **** }...
 1771              		.loc 9 254 1 is_stmt 1 view -0
 1772              		.cfi_startproc
 1773              		@ args = 0, pretend = 0, frame = 0
 1774              		@ frame_needed = 0, uses_anonymous_args = 0
 1775              	.LBB460:
 1776              	.LBI460:
 1777              		.loc 9 254 1 view .LVU507
 1778              	.LVL135:
 1779              	.LBB461:
 1780              	.LBB462:
 1781              	.LBI462:
  21:../DaisyExamples/libDaisy/src/daisy_seed.h ****     ~DaisySeed() {}
 1782              		.loc 4 21 5 view .LVU508
 1783              	.LBB463:
 1784              	.LBB464:
 1785              	.LBI464:
 1786              		.file 10 "../DaisyExamples/libDaisy/src/per/qspi.h"
   1:../DaisyExamples/libDaisy/src/per/qspi.h **** #ifndef DSY_QSPI
   2:../DaisyExamples/libDaisy/src/per/qspi.h **** #define DSY_QSPI /**< Macro */
   3:../DaisyExamples/libDaisy/src/per/qspi.h **** 
   4:../DaisyExamples/libDaisy/src/per/qspi.h **** #ifndef UNIT_TEST // for unit tests, a dummy implementation
   5:../DaisyExamples/libDaisy/src/per/qspi.h **** 
   6:../DaisyExamples/libDaisy/src/per/qspi.h **** #include <cstdint>
   7:../DaisyExamples/libDaisy/src/per/qspi.h **** #include "daisy_core.h" // Added for dsy_gpio_pin typedef
   8:../DaisyExamples/libDaisy/src/per/qspi.h **** 
ARM GAS  /var/folders/7c/668hyr3s7rlgsbdftclf3hsr0000gn/T//ccdjQHJK.s 			page 52


   9:../DaisyExamples/libDaisy/src/per/qspi.h **** #define DSY_QSPI_TEXT       \
  10:../DaisyExamples/libDaisy/src/per/qspi.h ****     __attribute__((section( \
  11:../DaisyExamples/libDaisy/src/per/qspi.h ****         ".qspiflash_text"))) /**< used for reading memory in memory_mapped mode. */
  12:../DaisyExamples/libDaisy/src/per/qspi.h **** #define DSY_QSPI_DATA       \
  13:../DaisyExamples/libDaisy/src/per/qspi.h ****     __attribute__((section( \
  14:../DaisyExamples/libDaisy/src/per/qspi.h ****         ".qspiflash_data"))) /**< used for reading memory in memory_mapped mode. */
  15:../DaisyExamples/libDaisy/src/per/qspi.h **** #define DSY_QSPI_BSS        \
  16:../DaisyExamples/libDaisy/src/per/qspi.h ****     __attribute__((section( \
  17:../DaisyExamples/libDaisy/src/per/qspi.h ****         ".qspiflash_bss"))) /**< used for reading memory in memory_mapped mode. */
  18:../DaisyExamples/libDaisy/src/per/qspi.h **** 
  19:../DaisyExamples/libDaisy/src/per/qspi.h **** namespace daisy
  20:../DaisyExamples/libDaisy/src/per/qspi.h **** {
  21:../DaisyExamples/libDaisy/src/per/qspi.h **** /** @addtogroup serial
  22:../DaisyExamples/libDaisy/src/per/qspi.h **** @{
  23:../DaisyExamples/libDaisy/src/per/qspi.h **** */
  24:../DaisyExamples/libDaisy/src/per/qspi.h **** 
  25:../DaisyExamples/libDaisy/src/per/qspi.h **** /** 
  26:../DaisyExamples/libDaisy/src/per/qspi.h ****  Driver for QSPI peripheral to interface with external flash memory. \n 
  27:../DaisyExamples/libDaisy/src/per/qspi.h ****     Currently supported QSPI Devices: \n 
  28:../DaisyExamples/libDaisy/src/per/qspi.h ****     * IS25LP080D
  29:../DaisyExamples/libDaisy/src/per/qspi.h **** */
  30:../DaisyExamples/libDaisy/src/per/qspi.h **** class QSPIHandle
  31:../DaisyExamples/libDaisy/src/per/qspi.h **** {
  32:../DaisyExamples/libDaisy/src/per/qspi.h ****   public:
  33:../DaisyExamples/libDaisy/src/per/qspi.h ****     enum Result
  34:../DaisyExamples/libDaisy/src/per/qspi.h ****     {
  35:../DaisyExamples/libDaisy/src/per/qspi.h ****         OK = 0,
  36:../DaisyExamples/libDaisy/src/per/qspi.h ****         ERR
  37:../DaisyExamples/libDaisy/src/per/qspi.h ****     };
  38:../DaisyExamples/libDaisy/src/per/qspi.h **** 
  39:../DaisyExamples/libDaisy/src/per/qspi.h ****     /** Indicates the current status of the module. 
  40:../DaisyExamples/libDaisy/src/per/qspi.h ****          *  Warnings are indicated by a leading W.
  41:../DaisyExamples/libDaisy/src/per/qspi.h ****          *  Errors are indicated by a leading E and cause an immediate exit.
  42:../DaisyExamples/libDaisy/src/per/qspi.h ****          * 
  43:../DaisyExamples/libDaisy/src/per/qspi.h ****          *  \param GOOD - No errors have been reported.
  44:../DaisyExamples/libDaisy/src/per/qspi.h ****          *  \param E_HAL_ERROR - HAL code did not return HAL_OK.
  45:../DaisyExamples/libDaisy/src/per/qspi.h ****          *  \param E_SWITCHING_MODES - An error was encountered while switching QSPI peripheral mod
  46:../DaisyExamples/libDaisy/src/per/qspi.h ****          *  \param E_INVALID_MODE - QSPI should not be written to while the program is executing fr
  47:../DaisyExamples/libDaisy/src/per/qspi.h ****          */
  48:../DaisyExamples/libDaisy/src/per/qspi.h ****     enum Status
  49:../DaisyExamples/libDaisy/src/per/qspi.h ****     {
  50:../DaisyExamples/libDaisy/src/per/qspi.h ****         GOOD = 0,
  51:../DaisyExamples/libDaisy/src/per/qspi.h ****         E_HAL_ERROR,
  52:../DaisyExamples/libDaisy/src/per/qspi.h ****         E_SWITCHING_MODES,
  53:../DaisyExamples/libDaisy/src/per/qspi.h ****         E_INVALID_MODE,
  54:../DaisyExamples/libDaisy/src/per/qspi.h ****     };
  55:../DaisyExamples/libDaisy/src/per/qspi.h **** 
  56:../DaisyExamples/libDaisy/src/per/qspi.h ****     /** Configuration structure for interfacing with QSPI Driver */
  57:../DaisyExamples/libDaisy/src/per/qspi.h ****     struct Config
  58:../DaisyExamples/libDaisy/src/per/qspi.h ****     {
  59:../DaisyExamples/libDaisy/src/per/qspi.h ****         /** Flash Devices supported. (Both of these are more-or-less the same, just different sizes
  60:../DaisyExamples/libDaisy/src/per/qspi.h ****         enum Device
  61:../DaisyExamples/libDaisy/src/per/qspi.h ****         {
  62:../DaisyExamples/libDaisy/src/per/qspi.h ****             IS25LP080D,  /**< & */
  63:../DaisyExamples/libDaisy/src/per/qspi.h ****             IS25LP064A,  /**< & */
  64:../DaisyExamples/libDaisy/src/per/qspi.h ****             DEVICE_LAST, /**< & */
  65:../DaisyExamples/libDaisy/src/per/qspi.h ****         };
ARM GAS  /var/folders/7c/668hyr3s7rlgsbdftclf3hsr0000gn/T//ccdjQHJK.s 			page 53


  66:../DaisyExamples/libDaisy/src/per/qspi.h **** 
  67:../DaisyExamples/libDaisy/src/per/qspi.h ****         /** 
  68:../DaisyExamples/libDaisy/src/per/qspi.h ****         Modes of operation.
  69:../DaisyExamples/libDaisy/src/per/qspi.h ****         Memory Mapped mode: QSPI configured so that the QSPI can be
  70:../DaisyExamples/libDaisy/src/per/qspi.h ****         read from starting address 0x90000000. Writing is not
  71:../DaisyExamples/libDaisy/src/per/qspi.h ****         possible in this mode. \n 
  72:../DaisyExamples/libDaisy/src/per/qspi.h ****         Indirect Polling mode: Device driver enabled. 
  73:../DaisyExamples/libDaisy/src/per/qspi.h ****         */
  74:../DaisyExamples/libDaisy/src/per/qspi.h ****         enum Mode
  75:../DaisyExamples/libDaisy/src/per/qspi.h ****         {
  76:../DaisyExamples/libDaisy/src/per/qspi.h ****             MEMORY_MAPPED,    /**< & */
  77:../DaisyExamples/libDaisy/src/per/qspi.h ****             INDIRECT_POLLING, /**< & */
  78:../DaisyExamples/libDaisy/src/per/qspi.h ****             MODE_LAST,
  79:../DaisyExamples/libDaisy/src/per/qspi.h ****         };
  80:../DaisyExamples/libDaisy/src/per/qspi.h **** 
  81:../DaisyExamples/libDaisy/src/per/qspi.h ****         //SCK,  CE# (active low)
  82:../DaisyExamples/libDaisy/src/per/qspi.h ****         struct
  83:../DaisyExamples/libDaisy/src/per/qspi.h ****         {
  84:../DaisyExamples/libDaisy/src/per/qspi.h ****             dsy_gpio_pin io0; /**< & */
  85:../DaisyExamples/libDaisy/src/per/qspi.h ****             dsy_gpio_pin io1; /**< & */
  86:../DaisyExamples/libDaisy/src/per/qspi.h ****             dsy_gpio_pin io2; /**< & */
  87:../DaisyExamples/libDaisy/src/per/qspi.h ****             dsy_gpio_pin io3; /**< & */
  88:../DaisyExamples/libDaisy/src/per/qspi.h ****             dsy_gpio_pin clk; /**< & */
  89:../DaisyExamples/libDaisy/src/per/qspi.h ****             dsy_gpio_pin ncs; /**< & */
  90:../DaisyExamples/libDaisy/src/per/qspi.h ****         } pin_config;
  91:../DaisyExamples/libDaisy/src/per/qspi.h **** 
  92:../DaisyExamples/libDaisy/src/per/qspi.h ****         Device device;
  93:../DaisyExamples/libDaisy/src/per/qspi.h ****         Mode   mode;
  94:../DaisyExamples/libDaisy/src/per/qspi.h ****     };
  95:../DaisyExamples/libDaisy/src/per/qspi.h **** 
  96:../DaisyExamples/libDaisy/src/per/qspi.h ****     /** 
  97:../DaisyExamples/libDaisy/src/per/qspi.h ****         Initializes QSPI peripheral, and Resets, and prepares memory for access.
  98:../DaisyExamples/libDaisy/src/per/qspi.h ****         \param config should be populated with the mode, device and pin_config before calling this 
  99:../DaisyExamples/libDaisy/src/per/qspi.h ****         \return Result::OK or Result::ERR
 100:../DaisyExamples/libDaisy/src/per/qspi.h ****         */
 101:../DaisyExamples/libDaisy/src/per/qspi.h ****     Result Init(const Config& config);
 102:../DaisyExamples/libDaisy/src/per/qspi.h **** 
 103:../DaisyExamples/libDaisy/src/per/qspi.h ****     /** Returns the current config. */
 104:../DaisyExamples/libDaisy/src/per/qspi.h ****     const Config& GetConfig() const;
 105:../DaisyExamples/libDaisy/src/per/qspi.h **** 
 106:../DaisyExamples/libDaisy/src/per/qspi.h ****     // Couldn't this just be called before anything else in init? That
 107:../DaisyExamples/libDaisy/src/per/qspi.h ****     // would make manually calling it unnecessary.
 108:../DaisyExamples/libDaisy/src/per/qspi.h ****     /** 
 109:../DaisyExamples/libDaisy/src/per/qspi.h ****         Deinitializes the peripheral
 110:../DaisyExamples/libDaisy/src/per/qspi.h ****         This should be called before reinitializing QSPI in a different mode.
 111:../DaisyExamples/libDaisy/src/per/qspi.h ****         \return Result::OK or Result::ERR
 112:../DaisyExamples/libDaisy/src/per/qspi.h ****         */
 113:../DaisyExamples/libDaisy/src/per/qspi.h ****     Result DeInit();
 114:../DaisyExamples/libDaisy/src/per/qspi.h **** 
 115:../DaisyExamples/libDaisy/src/per/qspi.h ****     /** 
 116:../DaisyExamples/libDaisy/src/per/qspi.h ****         Writes a single page to to the specified address on the QSPI chip.
 117:../DaisyExamples/libDaisy/src/per/qspi.h ****         For IS25LP*, page size is 256 bytes.
 118:../DaisyExamples/libDaisy/src/per/qspi.h ****         \param address Address to write to
 119:../DaisyExamples/libDaisy/src/per/qspi.h ****         \param size Buffer size
 120:../DaisyExamples/libDaisy/src/per/qspi.h ****         \param buffer Buffer to write
 121:../DaisyExamples/libDaisy/src/per/qspi.h ****         \return Result::OK or Result::ERR
 122:../DaisyExamples/libDaisy/src/per/qspi.h ****         */
ARM GAS  /var/folders/7c/668hyr3s7rlgsbdftclf3hsr0000gn/T//ccdjQHJK.s 			page 54


 123:../DaisyExamples/libDaisy/src/per/qspi.h ****     Result WritePage(uint32_t address, uint32_t size, uint8_t* buffer);
 124:../DaisyExamples/libDaisy/src/per/qspi.h **** 
 125:../DaisyExamples/libDaisy/src/per/qspi.h ****     /** 
 126:../DaisyExamples/libDaisy/src/per/qspi.h ****         Writes data in buffer to to the QSPI. Starting at address to address+size 
 127:../DaisyExamples/libDaisy/src/per/qspi.h ****         \param address Address to write to
 128:../DaisyExamples/libDaisy/src/per/qspi.h ****         \param size Buffer size
 129:../DaisyExamples/libDaisy/src/per/qspi.h ****         \param buffer Buffer to write
 130:../DaisyExamples/libDaisy/src/per/qspi.h ****         \return Result::OK or Result::ERR
 131:../DaisyExamples/libDaisy/src/per/qspi.h ****         */
 132:../DaisyExamples/libDaisy/src/per/qspi.h ****     Result Write(uint32_t address, uint32_t size, uint8_t* buffer);
 133:../DaisyExamples/libDaisy/src/per/qspi.h **** 
 134:../DaisyExamples/libDaisy/src/per/qspi.h ****     /** 
 135:../DaisyExamples/libDaisy/src/per/qspi.h ****         Erases the area specified on the chip.
 136:../DaisyExamples/libDaisy/src/per/qspi.h ****         Erasures will happen by 4K, 32K or 64K increments.
 137:../DaisyExamples/libDaisy/src/per/qspi.h ****         Smallest erase possible is 4kB at a time. (on IS25LP*)
 138:../DaisyExamples/libDaisy/src/per/qspi.h ****         \param start_addr Address to begin erasing from
 139:../DaisyExamples/libDaisy/src/per/qspi.h ****         \param end_addr  Address to stop erasing at
 140:../DaisyExamples/libDaisy/src/per/qspi.h ****         \return Result::OK or Result::ERR
 141:../DaisyExamples/libDaisy/src/per/qspi.h ****         */
 142:../DaisyExamples/libDaisy/src/per/qspi.h ****     Result Erase(uint32_t start_addr, uint32_t end_addr);
 143:../DaisyExamples/libDaisy/src/per/qspi.h **** 
 144:../DaisyExamples/libDaisy/src/per/qspi.h ****     /**  
 145:../DaisyExamples/libDaisy/src/per/qspi.h ****          Erases a single sector of the chip.  
 146:../DaisyExamples/libDaisy/src/per/qspi.h ****         TODO: Document the size of this function. 
 147:../DaisyExamples/libDaisy/src/per/qspi.h ****         \param address Address of sector to erase
 148:../DaisyExamples/libDaisy/src/per/qspi.h ****         \return Result::OK or Result::ERR
 149:../DaisyExamples/libDaisy/src/per/qspi.h ****         */
 150:../DaisyExamples/libDaisy/src/per/qspi.h ****     Result EraseSector(uint32_t address);
 151:../DaisyExamples/libDaisy/src/per/qspi.h **** 
 152:../DaisyExamples/libDaisy/src/per/qspi.h ****     /** Returns the current class status. Useful for debugging.
 153:../DaisyExamples/libDaisy/src/per/qspi.h ****      *  \returns Status
 154:../DaisyExamples/libDaisy/src/per/qspi.h ****      */
 155:../DaisyExamples/libDaisy/src/per/qspi.h ****     Status GetStatus();
 156:../DaisyExamples/libDaisy/src/per/qspi.h **** 
 157:../DaisyExamples/libDaisy/src/per/qspi.h ****     /** Returns a pointer to the actual memory used 
 158:../DaisyExamples/libDaisy/src/per/qspi.h ****      *  The memory at this address is read-only
 159:../DaisyExamples/libDaisy/src/per/qspi.h ****      *  to write to it use the Write function.
 160:../DaisyExamples/libDaisy/src/per/qspi.h ****      * 
 161:../DaisyExamples/libDaisy/src/per/qspi.h ****      *  \param offset returns the pointer starting this 
 162:../DaisyExamples/libDaisy/src/per/qspi.h ****      *                many bytes into the memory
 163:../DaisyExamples/libDaisy/src/per/qspi.h ****     */
 164:../DaisyExamples/libDaisy/src/per/qspi.h ****     void* GetData(uint32_t offset = 0);
 165:../DaisyExamples/libDaisy/src/per/qspi.h **** 
 166:../DaisyExamples/libDaisy/src/per/qspi.h ****     QSPIHandle() : pimpl_(nullptr) {}
 1787              		.loc 10 166 5 view .LVU509
 1788              	.LBE464:
 1789              	.LBE463:
 1790              	.LBE462:
 1791              	.LBE461:
 1792              	.LBE460:
 1793              		.loc 9 254 1 is_stmt 0 view .LVU510
 1794 0000 38B5     		push	{r3, r4, r5, lr}
 1795              		.cfi_def_cfa_offset 16
 1796              		.cfi_offset 3, -16
 1797              		.cfi_offset 4, -12
 1798              		.cfi_offset 5, -8
 1799              		.cfi_offset 14, -4
ARM GAS  /var/folders/7c/668hyr3s7rlgsbdftclf3hsr0000gn/T//ccdjQHJK.s 			page 55


 1800              	.LBB507:
 1801              	.LBB505:
 1802              	.LBB487:
 1803              	.LBB484:
 1804              	.LBB469:
 1805              	.LBB465:
 1806              	.LBB466:
 1807              		.loc 10 166 34 view .LVU511
 1808 0002 2C48     		ldr	r0, .L96
 1809 0004 0023     		movs	r3, #0
 1810              	.LBE466:
 1811              	.LBE465:
 1812              	.LBE469:
 1813              	.LBE484:
 1814              	.LBE487:
  10:keys.cpp      **** static DaisySeed hw;
 1815              		.loc 9 10 18 view .LVU512
 1816 0006 2C4C     		ldr	r4, .L96+4
 1817              	.LBB488:
 1818              	.LBB485:
 1819              	.LBB470:
 1820              	.LBB468:
 1821              	.LBB467:
 1822              		.loc 10 166 34 view .LVU513
 1823 0008 0360     		str	r3, [r0]
 1824              	.LVL136:
 1825              		.loc 10 166 34 view .LVU514
 1826              	.LBE467:
 1827              	.LBE468:
 1828              	.LBE470:
 1829              	.LBB471:
 1830              	.LBI471:
  95:../DaisyExamples/libDaisy/src/hid/audio.h ****     ~AudioHandle() {}
 1831              		.loc 8 95 5 is_stmt 1 view .LVU515
 1832              	.LBB472:
 1833              	.LBB473:
  95:../DaisyExamples/libDaisy/src/hid/audio.h ****     ~AudioHandle() {}
 1834              		.loc 8 95 35 is_stmt 0 view .LVU516
 1835 000a 4361     		str	r3, [r0, #20]
 1836              	.LVL137:
  95:../DaisyExamples/libDaisy/src/hid/audio.h ****     ~AudioHandle() {}
 1837              		.loc 8 95 35 view .LVU517
 1838              	.LBE473:
 1839              	.LBE472:
 1840              	.LBE471:
 1841              	.LBB474:
 1842              	.LBI474:
 109:../DaisyExamples/libDaisy/src/per/adc.h ****     ~AdcHandle() {}
 1843              		.loc 7 109 5 is_stmt 1 view .LVU518
 109:../DaisyExamples/libDaisy/src/per/adc.h ****     ~AdcHandle() {}
 1844              		.loc 7 109 5 is_stmt 0 view .LVU519
 1845              	.LBE474:
 1846              	.LBB475:
 1847              	.LBI475:
 1848              		.file 11 "../DaisyExamples/libDaisy/src/per/dac.h"
   1:../DaisyExamples/libDaisy/src/per/dac.h **** #pragma once
   2:../DaisyExamples/libDaisy/src/per/dac.h **** #ifndef DSY_DAC_H
ARM GAS  /var/folders/7c/668hyr3s7rlgsbdftclf3hsr0000gn/T//ccdjQHJK.s 			page 56


   3:../DaisyExamples/libDaisy/src/per/dac.h **** #define DSY_DAC_H
   4:../DaisyExamples/libDaisy/src/per/dac.h **** 
   5:../DaisyExamples/libDaisy/src/per/dac.h **** #include "daisy_core.h"
   6:../DaisyExamples/libDaisy/src/per/dac.h **** 
   7:../DaisyExamples/libDaisy/src/per/dac.h **** namespace daisy
   8:../DaisyExamples/libDaisy/src/per/dac.h **** {
   9:../DaisyExamples/libDaisy/src/per/dac.h **** /** @brief DAC handle for Built-in DAC Peripheral 
  10:../DaisyExamples/libDaisy/src/per/dac.h ****  *  @ingroup per_analog
  11:../DaisyExamples/libDaisy/src/per/dac.h ****  ** 
  12:../DaisyExamples/libDaisy/src/per/dac.h ****  ** For now only Normal Mode is supported,
  13:../DaisyExamples/libDaisy/src/per/dac.h ****  ** Sample and hold mode provides reduced power consumption, but requires a bit more setup.
  14:../DaisyExamples/libDaisy/src/per/dac.h ****  **
  15:../DaisyExamples/libDaisy/src/per/dac.h ****  ** For now connecting the DAC through other internal peripherals is also not supported.
  16:../DaisyExamples/libDaisy/src/per/dac.h ****  **
  17:../DaisyExamples/libDaisy/src/per/dac.h ****  ** Since the DAC channels have dedicated pins we don't need to pass in a pin config like with
  18:../DaisyExamples/libDaisy/src/per/dac.h ****  ** other modules. However, it is still important to not try to use the DAC pins for anything else.
  19:../DaisyExamples/libDaisy/src/per/dac.h ****  ** DAC Channel 1 is on PA4, and DAC Channel 2 is on PA5
  20:../DaisyExamples/libDaisy/src/per/dac.h ****  ***/
  21:../DaisyExamples/libDaisy/src/per/dac.h **** class DacHandle
  22:../DaisyExamples/libDaisy/src/per/dac.h **** {
  23:../DaisyExamples/libDaisy/src/per/dac.h ****   public:
  24:../DaisyExamples/libDaisy/src/per/dac.h ****     /** Return Values for the DacHandle class */
  25:../DaisyExamples/libDaisy/src/per/dac.h ****     enum class Result
  26:../DaisyExamples/libDaisy/src/per/dac.h ****     {
  27:../DaisyExamples/libDaisy/src/per/dac.h ****         OK,
  28:../DaisyExamples/libDaisy/src/per/dac.h ****         ERR,
  29:../DaisyExamples/libDaisy/src/per/dac.h ****     };
  30:../DaisyExamples/libDaisy/src/per/dac.h **** 
  31:../DaisyExamples/libDaisy/src/per/dac.h ****     /** Selects which channel(s) will be configured for use. */
  32:../DaisyExamples/libDaisy/src/per/dac.h ****     enum class Channel
  33:../DaisyExamples/libDaisy/src/per/dac.h ****     {
  34:../DaisyExamples/libDaisy/src/per/dac.h ****         ONE,
  35:../DaisyExamples/libDaisy/src/per/dac.h ****         TWO,
  36:../DaisyExamples/libDaisy/src/per/dac.h ****         BOTH,
  37:../DaisyExamples/libDaisy/src/per/dac.h ****     };
  38:../DaisyExamples/libDaisy/src/per/dac.h **** 
  39:../DaisyExamples/libDaisy/src/per/dac.h ****     /** Sets the Mode for the DAC channels.
  40:../DaisyExamples/libDaisy/src/per/dac.h ****      **
  41:../DaisyExamples/libDaisy/src/per/dac.h ****      ** Polling mode uses the blocking mode to transmit a single value at a time.
  42:../DaisyExamples/libDaisy/src/per/dac.h ****      **
  43:../DaisyExamples/libDaisy/src/per/dac.h ****      ** DMA mode uses a buffer, and periodically transmits it triggering a 
  44:../DaisyExamples/libDaisy/src/per/dac.h ****      ** callback to fill the buffer when it is ready for more samples.
  45:../DaisyExamples/libDaisy/src/per/dac.h ****      ***/
  46:../DaisyExamples/libDaisy/src/per/dac.h ****     enum class Mode
  47:../DaisyExamples/libDaisy/src/per/dac.h ****     {
  48:../DaisyExamples/libDaisy/src/per/dac.h ****         POLLING,
  49:../DaisyExamples/libDaisy/src/per/dac.h ****         DMA,
  50:../DaisyExamples/libDaisy/src/per/dac.h ****     };
  51:../DaisyExamples/libDaisy/src/per/dac.h **** 
  52:../DaisyExamples/libDaisy/src/per/dac.h ****     /** Sets the number of bits per sample transmitted out of the DAC.
  53:../DaisyExamples/libDaisy/src/per/dac.h ****      ** The output range will be: 0V - VDDA
  54:../DaisyExamples/libDaisy/src/per/dac.h ****      ** The resolution will be roughly: bitdepth / (VDDA - 0V) 
  55:../DaisyExamples/libDaisy/src/per/dac.h ****      ***/
  56:../DaisyExamples/libDaisy/src/per/dac.h ****     enum class BitDepth
  57:../DaisyExamples/libDaisy/src/per/dac.h ****     {
  58:../DaisyExamples/libDaisy/src/per/dac.h ****         BITS_8,
  59:../DaisyExamples/libDaisy/src/per/dac.h ****         BITS_12
ARM GAS  /var/folders/7c/668hyr3s7rlgsbdftclf3hsr0000gn/T//ccdjQHJK.s 			page 57


  60:../DaisyExamples/libDaisy/src/per/dac.h ****     };
  61:../DaisyExamples/libDaisy/src/per/dac.h **** 
  62:../DaisyExamples/libDaisy/src/per/dac.h ****     /** Sets whether the DAC output is buffered for higher drive ability. */
  63:../DaisyExamples/libDaisy/src/per/dac.h ****     enum class BufferState
  64:../DaisyExamples/libDaisy/src/per/dac.h ****     {
  65:../DaisyExamples/libDaisy/src/per/dac.h ****         ENABLED,
  66:../DaisyExamples/libDaisy/src/per/dac.h ****         DISABLED,
  67:../DaisyExamples/libDaisy/src/per/dac.h ****     };
  68:../DaisyExamples/libDaisy/src/per/dac.h **** 
  69:../DaisyExamples/libDaisy/src/per/dac.h ****     /** Configuration structure for initializing the DAC structure. */
  70:../DaisyExamples/libDaisy/src/per/dac.h ****     struct Config
  71:../DaisyExamples/libDaisy/src/per/dac.h ****     {
  72:../DaisyExamples/libDaisy/src/per/dac.h ****         /** Target Samplerate in Hz used to configure the internal 
  73:../DaisyExamples/libDaisy/src/per/dac.h ****          ** timebase for DMA mode. Does nothing in POLLING mode.
  74:../DaisyExamples/libDaisy/src/per/dac.h ****          ** If the value is 0 at Init time this will default to 48000Hz 
  75:../DaisyExamples/libDaisy/src/per/dac.h ****          ** otherwise the driver will attempt meet the target.*/
  76:../DaisyExamples/libDaisy/src/per/dac.h ****         uint32_t target_samplerate;
  77:../DaisyExamples/libDaisy/src/per/dac.h **** 
  78:../DaisyExamples/libDaisy/src/per/dac.h ****         Channel     chn;
  79:../DaisyExamples/libDaisy/src/per/dac.h ****         Mode        mode;
  80:../DaisyExamples/libDaisy/src/per/dac.h ****         BitDepth    bitdepth;
  81:../DaisyExamples/libDaisy/src/per/dac.h ****         BufferState buff_state;
  82:../DaisyExamples/libDaisy/src/per/dac.h ****     };
  83:../DaisyExamples/libDaisy/src/per/dac.h **** 
  84:../DaisyExamples/libDaisy/src/per/dac.h ****     DacHandle() : pimpl_(nullptr) {}
 1849              		.loc 11 84 5 is_stmt 1 view .LVU520
 1850              	.LBE475:
 1851              	.LBE485:
 1852              	.LBE488:
  10:keys.cpp      **** static DaisySeed hw;
 1853              		.loc 9 10 18 is_stmt 0 view .LVU521
 1854 000c 2246     		mov	r2, r4
 1855              	.LBB489:
 1856              	.LBB486:
 1857              	.LBB478:
 1858              	.LBB476:
 1859              	.LBB477:
 1860              		.loc 11 84 33 view .LVU522
 1861 000e 0362     		str	r3, [r0, #32]
 1862              	.LVL138:
 1863              		.loc 11 84 33 view .LVU523
 1864              	.LBE477:
 1865              	.LBE476:
 1866              	.LBE478:
 1867              	.LBB479:
 1868              	.LBI479:
  40:../DaisyExamples/libDaisy/src/hid/usb.h **** 
 1869              		.loc 6 40 5 is_stmt 1 view .LVU524
  40:../DaisyExamples/libDaisy/src/hid/usb.h **** 
 1870              		.loc 6 40 5 is_stmt 0 view .LVU525
 1871              	.LBE479:
 1872              	.LBB480:
 1873              	.LBI480:
  96:../DaisyExamples/libDaisy/src/sys/system.h ****     ~System() {}
 1874              		.loc 5 96 5 is_stmt 1 view .LVU526
  96:../DaisyExamples/libDaisy/src/sys/system.h ****     ~System() {}
 1875              		.loc 5 96 5 is_stmt 0 view .LVU527
ARM GAS  /var/folders/7c/668hyr3s7rlgsbdftclf3hsr0000gn/T//ccdjQHJK.s 			page 58


 1876              	.LBE480:
 1877              	.LBB481:
 1878              	.LBI481:
 1879              		.file 12 "../DaisyExamples/libDaisy/src/per/sai.h"
   1:../DaisyExamples/libDaisy/src/per/sai.h **** #pragma once
   2:../DaisyExamples/libDaisy/src/per/sai.h **** #ifndef DSY_SAI_H
   3:../DaisyExamples/libDaisy/src/per/sai.h **** #define DSY_SAI_H
   4:../DaisyExamples/libDaisy/src/per/sai.h **** 
   5:../DaisyExamples/libDaisy/src/per/sai.h **** #include "daisy_core.h"
   6:../DaisyExamples/libDaisy/src/per/sai.h **** 
   7:../DaisyExamples/libDaisy/src/per/sai.h **** namespace daisy
   8:../DaisyExamples/libDaisy/src/per/sai.h **** {
   9:../DaisyExamples/libDaisy/src/per/sai.h **** /** 
  10:../DaisyExamples/libDaisy/src/per/sai.h ****  * Support for I2S Audio Protocol with different bit-depth, samplerate options
  11:../DaisyExamples/libDaisy/src/per/sai.h ****  * Allows for master or slave, as well as freedom of selecting direction, 
  12:../DaisyExamples/libDaisy/src/per/sai.h ****  * and other behavior for each peripheral, and block.
  13:../DaisyExamples/libDaisy/src/per/sai.h ****  * 
  14:../DaisyExamples/libDaisy/src/per/sai.h ****  * DMA Transfer commands must use buffers located within non-cached memory or use cache maintenance
  15:../DaisyExamples/libDaisy/src/per/sai.h ****  * To declare an unitialized global element in the DMA memory section:
  16:../DaisyExamples/libDaisy/src/per/sai.h ****  *    int32_t DSY_DMA_BUFFER_SECTOR my_buffer[96];
  17:../DaisyExamples/libDaisy/src/per/sai.h ****  *
  18:../DaisyExamples/libDaisy/src/per/sai.h ****  * Callback functions will be called once per half of the buffer. In the above example, 
  19:../DaisyExamples/libDaisy/src/per/sai.h ****  * the callback function would be called once for every 48 samples.
  20:../DaisyExamples/libDaisy/src/per/sai.h ****  * 
  21:../DaisyExamples/libDaisy/src/per/sai.h ****  * Use SAI Handle like this:
  22:../DaisyExamples/libDaisy/src/per/sai.h ****  * 
  23:../DaisyExamples/libDaisy/src/per/sai.h ****  *  SaiHandle::Config sai_config;
  24:../DaisyExamples/libDaisy/src/per/sai.h ****  *  sai_config.periph          = SaiHandle::Config::Peripheral::SAI_1;
  25:../DaisyExamples/libDaisy/src/per/sai.h ****  *  sai_config.sr              = SaiHandle::Config::SampleRate::SAI_48KHZ;
  26:../DaisyExamples/libDaisy/src/per/sai.h ****  *  sai_config.bit_depth       = SaiHandle::Config::BitDepth::SAI_24BIT;
  27:../DaisyExamples/libDaisy/src/per/sai.h ****  *  sai_config.a_sync          = SaiHandle::Config::Sync::MASTER;
  28:../DaisyExamples/libDaisy/src/per/sai.h ****  *  sai_config.b_sync          = SaiHandle::Config::Sync::SLAVE;
  29:../DaisyExamples/libDaisy/src/per/sai.h ****  *  sai_config.a_dir           = SaiHandle::Config::Direction::RECEIVE;
  30:../DaisyExamples/libDaisy/src/per/sai.h ****  *  sai_config.b_dir           = SaiHandle::Config::Direction::TRANSMIT;
  31:../DaisyExamples/libDaisy/src/per/sai.h ****  *  sai_config.pin_config.fs   = {DSY_GPIOE, 4};
  32:../DaisyExamples/libDaisy/src/per/sai.h ****  *  sai_config.pin_config.mclk = {DSY_GPIOE, 2};
  33:../DaisyExamples/libDaisy/src/per/sai.h ****  *  sai_config.pin_config.sck  = {DSY_GPIOE, 5};
  34:../DaisyExamples/libDaisy/src/per/sai.h ****  *  sai_config.pin_config.sa   = {DSY_GPIOE, 6};
  35:../DaisyExamples/libDaisy/src/per/sai.h ****  *  sai_config.pin_config.sb   = {DSY_GPIOE, 3};
  36:../DaisyExamples/libDaisy/src/per/sai.h ****  *  // Then Initialize
  37:../DaisyExamples/libDaisy/src/per/sai.h ****  *  SaiHandle sai;
  38:../DaisyExamples/libDaisy/src/per/sai.h ****  *  sai.Init(sai_config);
  39:../DaisyExamples/libDaisy/src/per/sai.h ****  *  // Now you can use it:
  40:../DaisyExamples/libDaisy/src/per/sai.h ****  *  sai.StartDma(. . .);
  41:../DaisyExamples/libDaisy/src/per/sai.h ****  */
  42:../DaisyExamples/libDaisy/src/per/sai.h **** class SaiHandle
  43:../DaisyExamples/libDaisy/src/per/sai.h **** {
  44:../DaisyExamples/libDaisy/src/per/sai.h ****   public:
  45:../DaisyExamples/libDaisy/src/per/sai.h ****     /** Contains settings for initialising an SAI Interface */
  46:../DaisyExamples/libDaisy/src/per/sai.h ****     struct Config
  47:../DaisyExamples/libDaisy/src/per/sai.h ****     {
  48:../DaisyExamples/libDaisy/src/per/sai.h ****         /** Specifies the internal peripheral to use (mapped to different hardware pins) */
  49:../DaisyExamples/libDaisy/src/per/sai.h ****         enum class Peripheral
  50:../DaisyExamples/libDaisy/src/per/sai.h ****         {
  51:../DaisyExamples/libDaisy/src/per/sai.h ****             SAI_1,
  52:../DaisyExamples/libDaisy/src/per/sai.h ****             SAI_2,
  53:../DaisyExamples/libDaisy/src/per/sai.h ****         };
ARM GAS  /var/folders/7c/668hyr3s7rlgsbdftclf3hsr0000gn/T//ccdjQHJK.s 			page 59


  54:../DaisyExamples/libDaisy/src/per/sai.h **** 
  55:../DaisyExamples/libDaisy/src/per/sai.h ****         /** Rate at which samples will be streaming to/from the device. */
  56:../DaisyExamples/libDaisy/src/per/sai.h ****         enum class SampleRate
  57:../DaisyExamples/libDaisy/src/per/sai.h ****         {
  58:../DaisyExamples/libDaisy/src/per/sai.h ****             SAI_8KHZ,
  59:../DaisyExamples/libDaisy/src/per/sai.h ****             SAI_16KHZ,
  60:../DaisyExamples/libDaisy/src/per/sai.h ****             SAI_32KHZ,
  61:../DaisyExamples/libDaisy/src/per/sai.h ****             SAI_48KHZ,
  62:../DaisyExamples/libDaisy/src/per/sai.h ****             SAI_96KHZ,
  63:../DaisyExamples/libDaisy/src/per/sai.h ****         };
  64:../DaisyExamples/libDaisy/src/per/sai.h **** 
  65:../DaisyExamples/libDaisy/src/per/sai.h ****         /** Bit Depth that the hardware expects to be transferred to/from the device. */
  66:../DaisyExamples/libDaisy/src/per/sai.h ****         enum class BitDepth
  67:../DaisyExamples/libDaisy/src/per/sai.h ****         {
  68:../DaisyExamples/libDaisy/src/per/sai.h ****             SAI_16BIT,
  69:../DaisyExamples/libDaisy/src/per/sai.h ****             SAI_24BIT,
  70:../DaisyExamples/libDaisy/src/per/sai.h ****             SAI_32BIT,
  71:../DaisyExamples/libDaisy/src/per/sai.h ****         };
  72:../DaisyExamples/libDaisy/src/per/sai.h **** 
  73:../DaisyExamples/libDaisy/src/per/sai.h ****         /** Specifies whether a particular block is the master or the slave 
  74:../DaisyExamples/libDaisy/src/per/sai.h ****          ** If both are set to slave, no MCLK signal will be used, and it is
  75:../DaisyExamples/libDaisy/src/per/sai.h ****          ** expected that the codec will have its own xtal.
  76:../DaisyExamples/libDaisy/src/per/sai.h ****          */
  77:../DaisyExamples/libDaisy/src/per/sai.h ****         enum class Sync
  78:../DaisyExamples/libDaisy/src/per/sai.h ****         {
  79:../DaisyExamples/libDaisy/src/per/sai.h ****             MASTER,
  80:../DaisyExamples/libDaisy/src/per/sai.h ****             SLAVE,
  81:../DaisyExamples/libDaisy/src/per/sai.h ****         };
  82:../DaisyExamples/libDaisy/src/per/sai.h **** 
  83:../DaisyExamples/libDaisy/src/per/sai.h ****         /** Specifies the direction for each peripheral block. */
  84:../DaisyExamples/libDaisy/src/per/sai.h ****         enum class Direction
  85:../DaisyExamples/libDaisy/src/per/sai.h ****         {
  86:../DaisyExamples/libDaisy/src/per/sai.h ****             TRANSMIT,
  87:../DaisyExamples/libDaisy/src/per/sai.h ****             RECEIVE,
  88:../DaisyExamples/libDaisy/src/per/sai.h ****         };
  89:../DaisyExamples/libDaisy/src/per/sai.h **** 
  90:../DaisyExamples/libDaisy/src/per/sai.h ****         Peripheral periph;
  91:../DaisyExamples/libDaisy/src/per/sai.h ****         struct
  92:../DaisyExamples/libDaisy/src/per/sai.h ****         {
  93:../DaisyExamples/libDaisy/src/per/sai.h ****             dsy_gpio_pin mclk, fs, sck, sa, sb;
  94:../DaisyExamples/libDaisy/src/per/sai.h ****         } pin_config;
  95:../DaisyExamples/libDaisy/src/per/sai.h ****         SampleRate sr;
  96:../DaisyExamples/libDaisy/src/per/sai.h ****         BitDepth   bit_depth;
  97:../DaisyExamples/libDaisy/src/per/sai.h ****         Sync       a_sync, b_sync;
  98:../DaisyExamples/libDaisy/src/per/sai.h ****         Direction  a_dir, b_dir;
  99:../DaisyExamples/libDaisy/src/per/sai.h ****     };
 100:../DaisyExamples/libDaisy/src/per/sai.h **** 
 101:../DaisyExamples/libDaisy/src/per/sai.h ****     /** Return values for SAI functions */
 102:../DaisyExamples/libDaisy/src/per/sai.h ****     enum class Result
 103:../DaisyExamples/libDaisy/src/per/sai.h ****     {
 104:../DaisyExamples/libDaisy/src/per/sai.h ****         OK,
 105:../DaisyExamples/libDaisy/src/per/sai.h ****         ERR,
 106:../DaisyExamples/libDaisy/src/per/sai.h ****     };
 107:../DaisyExamples/libDaisy/src/per/sai.h **** 
 108:../DaisyExamples/libDaisy/src/per/sai.h ****     SaiHandle() : pimpl_(nullptr) {}
 1880              		.loc 12 108 5 is_stmt 1 view .LVU528
 1881              	.LBB482:
ARM GAS  /var/folders/7c/668hyr3s7rlgsbdftclf3hsr0000gn/T//ccdjQHJK.s 			page 60


 1882              	.LBB483:
 1883              		.loc 12 108 33 is_stmt 0 view .LVU529
 1884 0010 C363     		str	r3, [r0, #60]
 1885              	.LVL139:
 1886              		.loc 12 108 33 view .LVU530
 1887              	.LBE483:
 1888              	.LBE482:
 1889              	.LBE481:
 1890              	.LBE486:
 1891              	.LBE489:
  10:keys.cpp      **** static DaisySeed hw;
 1892              		.loc 9 10 18 view .LVU531
 1893 0012 2A49     		ldr	r1, .L96+8
  17:keys.cpp      **** Switch C;
 1894              		.loc 9 17 8 view .LVU532
 1895 0014 2A4D     		ldr	r5, .L96+12
  10:keys.cpp      **** static DaisySeed hw;
 1896              		.loc 9 10 18 view .LVU533
 1897 0016 FFF7FEFF 		bl	__aeabi_atexit
 1898              	.LVL140:
 1899              	.LBB490:
 1900              	.LBI490:
  23:../DaisyExamples/DaisySP/Source/Synthesis/oscillator.h ****     ~Oscillator() {}
 1901              		.loc 2 23 5 is_stmt 1 view .LVU534
  23:../DaisyExamples/DaisySP/Source/Synthesis/oscillator.h ****     ~Oscillator() {}
 1902              		.loc 2 23 5 is_stmt 0 view .LVU535
 1903              	.LBE490:
  11:keys.cpp      **** static Oscillator osc;
 1904              		.loc 9 11 19 view .LVU536
 1905 001a 2246     		mov	r2, r4
 1906 001c 2949     		ldr	r1, .L96+16
 1907 001e 2A48     		ldr	r0, .L96+20
 1908 0020 FFF7FEFF 		bl	__aeabi_atexit
 1909              	.LVL141:
 1910              	.LBB491:
 1911              	.LBI491:
  42:../DaisyExamples/DaisySP/Source/Control/adenv.h ****     ~AdEnv() {}
 1912              		.loc 1 42 5 is_stmt 1 view .LVU537
  42:../DaisyExamples/DaisySP/Source/Control/adenv.h ****     ~AdEnv() {}
 1913              		.loc 1 42 5 is_stmt 0 view .LVU538
 1914              	.LBE491:
  12:keys.cpp      **** static AdEnv      ad;
 1915              		.loc 9 12 19 view .LVU539
 1916 0024 2246     		mov	r2, r4
 1917 0026 2949     		ldr	r1, .L96+24
 1918 0028 2948     		ldr	r0, .L96+28
 1919 002a FFF7FEFF 		bl	__aeabi_atexit
 1920              	.LVL142:
 1921              	.LBB492:
 1922              	.LBI492:
  41:../DaisyExamples/libDaisy/src/hid/switch.h ****     ~Switch() {}
 1923              		.loc 3 41 5 is_stmt 1 view .LVU540
  41:../DaisyExamples/libDaisy/src/hid/switch.h ****     ~Switch() {}
 1924              		.loc 3 41 5 is_stmt 0 view .LVU541
 1925              	.LBE492:
  17:keys.cpp      **** Switch C;
 1926              		.loc 9 17 8 view .LVU542
ARM GAS  /var/folders/7c/668hyr3s7rlgsbdftclf3hsr0000gn/T//ccdjQHJK.s 			page 61


 1927 002e 2246     		mov	r2, r4
 1928 0030 2946     		mov	r1, r5
 1929 0032 2848     		ldr	r0, .L96+32
 1930 0034 FFF7FEFF 		bl	__aeabi_atexit
 1931              	.LVL143:
 1932              	.LBB493:
 1933              	.LBI493:
  41:../DaisyExamples/libDaisy/src/hid/switch.h ****     ~Switch() {}
 1934              		.loc 3 41 5 is_stmt 1 view .LVU543
  41:../DaisyExamples/libDaisy/src/hid/switch.h ****     ~Switch() {}
 1935              		.loc 3 41 5 is_stmt 0 view .LVU544
 1936              	.LBE493:
  18:keys.cpp      **** Switch CS;
 1937              		.loc 9 18 8 view .LVU545
 1938 0038 2246     		mov	r2, r4
 1939 003a 2946     		mov	r1, r5
 1940 003c 2648     		ldr	r0, .L96+36
 1941 003e FFF7FEFF 		bl	__aeabi_atexit
 1942              	.LVL144:
 1943              	.LBB494:
 1944              	.LBI494:
  41:../DaisyExamples/libDaisy/src/hid/switch.h ****     ~Switch() {}
 1945              		.loc 3 41 5 is_stmt 1 view .LVU546
  41:../DaisyExamples/libDaisy/src/hid/switch.h ****     ~Switch() {}
 1946              		.loc 3 41 5 is_stmt 0 view .LVU547
 1947              	.LBE494:
  19:keys.cpp      **** Switch D;
 1948              		.loc 9 19 8 view .LVU548
 1949 0042 2246     		mov	r2, r4
 1950 0044 2946     		mov	r1, r5
 1951 0046 2548     		ldr	r0, .L96+40
 1952 0048 FFF7FEFF 		bl	__aeabi_atexit
 1953              	.LVL145:
 1954              	.LBB495:
 1955              	.LBI495:
  41:../DaisyExamples/libDaisy/src/hid/switch.h ****     ~Switch() {}
 1956              		.loc 3 41 5 is_stmt 1 view .LVU549
  41:../DaisyExamples/libDaisy/src/hid/switch.h ****     ~Switch() {}
 1957              		.loc 3 41 5 is_stmt 0 view .LVU550
 1958              	.LBE495:
  20:keys.cpp      **** Switch DS;
 1959              		.loc 9 20 8 view .LVU551
 1960 004c 2246     		mov	r2, r4
 1961 004e 2946     		mov	r1, r5
 1962 0050 2348     		ldr	r0, .L96+44
 1963 0052 FFF7FEFF 		bl	__aeabi_atexit
 1964              	.LVL146:
 1965              	.LBB496:
 1966              	.LBI496:
  41:../DaisyExamples/libDaisy/src/hid/switch.h ****     ~Switch() {}
 1967              		.loc 3 41 5 is_stmt 1 view .LVU552
  41:../DaisyExamples/libDaisy/src/hid/switch.h ****     ~Switch() {}
 1968              		.loc 3 41 5 is_stmt 0 view .LVU553
 1969              	.LBE496:
  21:keys.cpp      **** Switch E;
 1970              		.loc 9 21 8 view .LVU554
 1971 0056 2246     		mov	r2, r4
ARM GAS  /var/folders/7c/668hyr3s7rlgsbdftclf3hsr0000gn/T//ccdjQHJK.s 			page 62


 1972 0058 2946     		mov	r1, r5
 1973 005a 2248     		ldr	r0, .L96+48
 1974 005c FFF7FEFF 		bl	__aeabi_atexit
 1975              	.LVL147:
 1976              	.LBB497:
 1977              	.LBI497:
  41:../DaisyExamples/libDaisy/src/hid/switch.h ****     ~Switch() {}
 1978              		.loc 3 41 5 is_stmt 1 view .LVU555
  41:../DaisyExamples/libDaisy/src/hid/switch.h ****     ~Switch() {}
 1979              		.loc 3 41 5 is_stmt 0 view .LVU556
 1980              	.LBE497:
  22:keys.cpp      **** Switch F;
 1981              		.loc 9 22 8 view .LVU557
 1982 0060 2246     		mov	r2, r4
 1983 0062 2946     		mov	r1, r5
 1984 0064 2048     		ldr	r0, .L96+52
 1985 0066 FFF7FEFF 		bl	__aeabi_atexit
 1986              	.LVL148:
 1987              	.LBB498:
 1988              	.LBI498:
  41:../DaisyExamples/libDaisy/src/hid/switch.h ****     ~Switch() {}
 1989              		.loc 3 41 5 is_stmt 1 view .LVU558
  41:../DaisyExamples/libDaisy/src/hid/switch.h ****     ~Switch() {}
 1990              		.loc 3 41 5 is_stmt 0 view .LVU559
 1991              	.LBE498:
  23:keys.cpp      **** Switch FS;
 1992              		.loc 9 23 8 view .LVU560
 1993 006a 2246     		mov	r2, r4
 1994 006c 2946     		mov	r1, r5
 1995 006e 1F48     		ldr	r0, .L96+56
 1996 0070 FFF7FEFF 		bl	__aeabi_atexit
 1997              	.LVL149:
 1998              	.LBB499:
 1999              	.LBI499:
  41:../DaisyExamples/libDaisy/src/hid/switch.h ****     ~Switch() {}
 2000              		.loc 3 41 5 is_stmt 1 view .LVU561
  41:../DaisyExamples/libDaisy/src/hid/switch.h ****     ~Switch() {}
 2001              		.loc 3 41 5 is_stmt 0 view .LVU562
 2002              	.LBE499:
  24:keys.cpp      **** Switch G;
 2003              		.loc 9 24 8 view .LVU563
 2004 0074 2246     		mov	r2, r4
 2005 0076 2946     		mov	r1, r5
 2006 0078 1D48     		ldr	r0, .L96+60
 2007 007a FFF7FEFF 		bl	__aeabi_atexit
 2008              	.LVL150:
 2009              	.LBB500:
 2010              	.LBI500:
  41:../DaisyExamples/libDaisy/src/hid/switch.h ****     ~Switch() {}
 2011              		.loc 3 41 5 is_stmt 1 view .LVU564
  41:../DaisyExamples/libDaisy/src/hid/switch.h ****     ~Switch() {}
 2012              		.loc 3 41 5 is_stmt 0 view .LVU565
 2013              	.LBE500:
  25:keys.cpp      **** Switch GS;
 2014              		.loc 9 25 8 view .LVU566
 2015 007e 2246     		mov	r2, r4
 2016 0080 2946     		mov	r1, r5
ARM GAS  /var/folders/7c/668hyr3s7rlgsbdftclf3hsr0000gn/T//ccdjQHJK.s 			page 63


 2017 0082 1C48     		ldr	r0, .L96+64
 2018 0084 FFF7FEFF 		bl	__aeabi_atexit
 2019              	.LVL151:
 2020              	.LBB501:
 2021              	.LBI501:
  41:../DaisyExamples/libDaisy/src/hid/switch.h ****     ~Switch() {}
 2022              		.loc 3 41 5 is_stmt 1 view .LVU567
  41:../DaisyExamples/libDaisy/src/hid/switch.h ****     ~Switch() {}
 2023              		.loc 3 41 5 is_stmt 0 view .LVU568
 2024              	.LBE501:
  26:keys.cpp      **** Switch A;
 2025              		.loc 9 26 8 view .LVU569
 2026 0088 2246     		mov	r2, r4
 2027 008a 2946     		mov	r1, r5
 2028 008c 1A48     		ldr	r0, .L96+68
 2029 008e FFF7FEFF 		bl	__aeabi_atexit
 2030              	.LVL152:
 2031              	.LBB502:
 2032              	.LBI502:
  41:../DaisyExamples/libDaisy/src/hid/switch.h ****     ~Switch() {}
 2033              		.loc 3 41 5 is_stmt 1 view .LVU570
  41:../DaisyExamples/libDaisy/src/hid/switch.h ****     ~Switch() {}
 2034              		.loc 3 41 5 is_stmt 0 view .LVU571
 2035              	.LBE502:
  27:keys.cpp      **** Switch AS;
 2036              		.loc 9 27 8 view .LVU572
 2037 0092 2246     		mov	r2, r4
 2038 0094 2946     		mov	r1, r5
 2039 0096 1948     		ldr	r0, .L96+72
 2040 0098 FFF7FEFF 		bl	__aeabi_atexit
 2041              	.LVL153:
 2042              	.LBB503:
 2043              	.LBI503:
  41:../DaisyExamples/libDaisy/src/hid/switch.h ****     ~Switch() {}
 2044              		.loc 3 41 5 is_stmt 1 view .LVU573
  41:../DaisyExamples/libDaisy/src/hid/switch.h ****     ~Switch() {}
 2045              		.loc 3 41 5 is_stmt 0 view .LVU574
 2046              	.LBE503:
  28:keys.cpp      **** Switch B;
 2047              		.loc 9 28 8 view .LVU575
 2048 009c 2246     		mov	r2, r4
 2049 009e 2946     		mov	r1, r5
 2050 00a0 1748     		ldr	r0, .L96+76
 2051 00a2 FFF7FEFF 		bl	__aeabi_atexit
 2052              	.LVL154:
 2053              	.LBB504:
 2054              	.LBI504:
  41:../DaisyExamples/libDaisy/src/hid/switch.h ****     ~Switch() {}
 2055              		.loc 3 41 5 is_stmt 1 view .LVU576
  41:../DaisyExamples/libDaisy/src/hid/switch.h ****     ~Switch() {}
 2056              		.loc 3 41 5 is_stmt 0 view .LVU577
 2057              	.LBE504:
  29:keys.cpp      **** Switch C2;
 2058              		.loc 9 29 8 view .LVU578
 2059 00a6 2246     		mov	r2, r4
 2060 00a8 2946     		mov	r1, r5
 2061 00aa 1648     		ldr	r0, .L96+80
ARM GAS  /var/folders/7c/668hyr3s7rlgsbdftclf3hsr0000gn/T//ccdjQHJK.s 			page 64


 2062              	.LBE505:
 2063              	.LBE507:
 2064              		.loc 9 254 1 view .LVU579
 2065 00ac BDE83840 		pop	{r3, r4, r5, lr}
 2066              		.cfi_restore 14
 2067              		.cfi_restore 5
 2068              		.cfi_restore 4
 2069              		.cfi_restore 3
 2070              		.cfi_def_cfa_offset 0
 2071              	.LBB508:
 2072              	.LBB506:
  29:keys.cpp      **** Switch C2;
 2073              		.loc 9 29 8 view .LVU580
 2074 00b0 FFF7FEBF 		b	__aeabi_atexit
 2075              	.LVL155:
 2076              	.L97:
 2077              		.align	2
 2078              	.L96:
 2079 00b4 00000000 		.word	.LANCHOR3
 2080 00b8 00000000 		.word	__dso_handle
 2081 00bc 00000000 		.word	_ZN5daisy9DaisySeedD1Ev
 2082 00c0 00000000 		.word	_ZN5daisy6SwitchD1Ev
 2083 00c4 00000000 		.word	_ZN7daisysp10OscillatorD1Ev
 2084 00c8 00000000 		.word	.LANCHOR2
 2085 00cc 00000000 		.word	_ZN7daisysp5AdEnvD1Ev
 2086 00d0 00000000 		.word	.LANCHOR0
 2087 00d4 00000000 		.word	.LANCHOR16
 2088 00d8 00000000 		.word	.LANCHOR15
 2089 00dc 00000000 		.word	.LANCHOR14
 2090 00e0 00000000 		.word	.LANCHOR13
 2091 00e4 00000000 		.word	.LANCHOR12
 2092 00e8 00000000 		.word	.LANCHOR11
 2093 00ec 00000000 		.word	.LANCHOR10
 2094 00f0 00000000 		.word	.LANCHOR9
 2095 00f4 00000000 		.word	.LANCHOR8
 2096 00f8 00000000 		.word	.LANCHOR7
 2097 00fc 00000000 		.word	.LANCHOR6
 2098 0100 00000000 		.word	.LANCHOR5
 2099 0104 00000000 		.word	.LANCHOR4
 2100              	.LBE506:
 2101              	.LBE508:
 2102              		.cfi_endproc
 2103              	.LFE5249:
 2105              		.section	.init_array,"aw",%init_array
 2106              		.align	2
 2107 0000 00000000 		.word	_GLOBAL__sub_I_wave(target1)
 2108              		.global	C2
 2109              		.global	B
 2110              		.global	AS
 2111              		.global	A
 2112              		.global	GS
 2113              		.global	G
 2114              		.global	FS
 2115              		.global	F
 2116              		.global	E
 2117              		.global	DS
 2118              		.global	D
ARM GAS  /var/folders/7c/668hyr3s7rlgsbdftclf3hsr0000gn/T//ccdjQHJK.s 			page 65


 2119              		.global	CS
 2120              		.global	C
 2121              		.global	oscFreq
 2122              		.global	vibrato
 2123              		.global	mode
 2124              		.global	wave
 2125              		.section	.bss.A,"aw",%nobits
 2126              		.align	2
 2127              		.set	.LANCHOR7,. + 0
 2130              	A:
 2131 0000 00000000 		.space	16
 2131      00000000 
 2131      00000000 
 2131      00000000 
 2132              		.section	.bss.AS,"aw",%nobits
 2133              		.align	2
 2134              		.set	.LANCHOR6,. + 0
 2137              	AS:
 2138 0000 00000000 		.space	16
 2138      00000000 
 2138      00000000 
 2138      00000000 
 2139              		.section	.bss.B,"aw",%nobits
 2140              		.align	2
 2141              		.set	.LANCHOR5,. + 0
 2144              	B:
 2145 0000 00000000 		.space	16
 2145      00000000 
 2145      00000000 
 2145      00000000 
 2146              		.section	.bss.C,"aw",%nobits
 2147              		.align	2
 2148              		.set	.LANCHOR16,. + 0
 2151              	C:
 2152 0000 00000000 		.space	16
 2152      00000000 
 2152      00000000 
 2152      00000000 
 2153              		.section	.bss.C2,"aw",%nobits
 2154              		.align	2
 2155              		.set	.LANCHOR4,. + 0
 2158              	C2:
 2159 0000 00000000 		.space	16
 2159      00000000 
 2159      00000000 
 2159      00000000 
 2160              		.section	.bss.CS,"aw",%nobits
 2161              		.align	2
 2162              		.set	.LANCHOR15,. + 0
 2165              	CS:
 2166 0000 00000000 		.space	16
 2166      00000000 
 2166      00000000 
 2166      00000000 
 2167              		.section	.bss.D,"aw",%nobits
 2168              		.align	2
 2169              		.set	.LANCHOR14,. + 0
ARM GAS  /var/folders/7c/668hyr3s7rlgsbdftclf3hsr0000gn/T//ccdjQHJK.s 			page 66


 2172              	D:
 2173 0000 00000000 		.space	16
 2173      00000000 
 2173      00000000 
 2173      00000000 
 2174              		.section	.bss.DS,"aw",%nobits
 2175              		.align	2
 2176              		.set	.LANCHOR13,. + 0
 2179              	DS:
 2180 0000 00000000 		.space	16
 2180      00000000 
 2180      00000000 
 2180      00000000 
 2181              		.section	.bss.E,"aw",%nobits
 2182              		.align	2
 2183              		.set	.LANCHOR12,. + 0
 2186              	E:
 2187 0000 00000000 		.space	16
 2187      00000000 
 2187      00000000 
 2187      00000000 
 2188              		.section	.bss.F,"aw",%nobits
 2189              		.align	2
 2190              		.set	.LANCHOR11,. + 0
 2193              	F:
 2194 0000 00000000 		.space	16
 2194      00000000 
 2194      00000000 
 2194      00000000 
 2195              		.section	.bss.FS,"aw",%nobits
 2196              		.align	2
 2197              		.set	.LANCHOR10,. + 0
 2200              	FS:
 2201 0000 00000000 		.space	16
 2201      00000000 
 2201      00000000 
 2201      00000000 
 2202              		.section	.bss.G,"aw",%nobits
 2203              		.align	2
 2204              		.set	.LANCHOR9,. + 0
 2207              	G:
 2208 0000 00000000 		.space	16
 2208      00000000 
 2208      00000000 
 2208      00000000 
 2209              		.section	.bss.GS,"aw",%nobits
 2210              		.align	2
 2211              		.set	.LANCHOR8,. + 0
 2214              	GS:
 2215 0000 00000000 		.space	16
 2215      00000000 
 2215      00000000 
 2215      00000000 
 2216              		.section	.bss._ZL2ad,"aw",%nobits
 2217              		.align	2
 2218              		.set	.LANCHOR0,. + 0
 2221              	_ZL2ad:
ARM GAS  /var/folders/7c/668hyr3s7rlgsbdftclf3hsr0000gn/T//ccdjQHJK.s 			page 67


 2222 0000 00000000 		.space	56
 2222      00000000 
 2222      00000000 
 2222      00000000 
 2222      00000000 
 2223              		.section	.bss._ZL2hw,"aw",%nobits
 2224              		.align	2
 2225              		.set	.LANCHOR3,. + 0
 2228              	_ZL2hw:
 2229 0000 00000000 		.space	64
 2229      00000000 
 2229      00000000 
 2229      00000000 
 2229      00000000 
 2230              		.section	.bss._ZL3osc,"aw",%nobits
 2231              		.align	2
 2232              		.set	.LANCHOR2,. + 0
 2235              	_ZL3osc:
 2236 0000 00000000 		.space	44
 2236      00000000 
 2236      00000000 
 2236      00000000 
 2236      00000000 
 2237              		.section	.bss.mode,"aw",%nobits
 2238              		.align	2
 2241              	mode:
 2242 0000 00000000 		.space	4
 2243              		.section	.bss.oscFreq,"aw",%nobits
 2244              		.align	2
 2245              		.set	.LANCHOR1,. + 0
 2248              	oscFreq:
 2249 0000 00000000 		.space	4
 2250              		.section	.bss.vibrato,"aw",%nobits
 2251              		.align	2
 2254              	vibrato:
 2255 0000 00000000 		.space	4
 2256              		.section	.bss.wave,"aw",%nobits
 2257              		.align	2
 2258              		.set	.LANCHOR17,. + 0
 2261              	wave:
 2262 0000 00000000 		.space	4
 2263              		.text
 2264              	.Letext0:
 2265              		.file 13 "/Library/DaisyToolchain/0.2.0/arm/arm-none-eabi/include/machine/_default_types.h"
 2266              		.file 14 "/Library/DaisyToolchain/0.2.0/arm/arm-none-eabi/include/sys/_stdint.h"
 2267              		.file 15 "/Library/DaisyToolchain/0.2.0/arm/arm-none-eabi/include/stdint.h"
 2268              		.file 16 "/Library/DaisyToolchain/0.2.0/arm/lib/gcc/arm-none-eabi/10.3.1/include/stddef.h"
 2269              		.file 17 "/Library/DaisyToolchain/0.2.0/arm/arm-none-eabi/include/c++/10.3.1/cmath"
 2270              		.file 18 "/Library/DaisyToolchain/0.2.0/arm/arm-none-eabi/include/c++/10.3.1/bits/std_abs.h"
 2271              		.file 19 "/Library/DaisyToolchain/0.2.0/arm/arm-none-eabi/include/c++/10.3.1/cstdint"
 2272              		.file 20 "/Library/DaisyToolchain/0.2.0/arm/arm-none-eabi/include/c++/10.3.1/cstdlib"
 2273              		.file 21 "/Library/DaisyToolchain/0.2.0/arm/arm-none-eabi/include/c++/10.3.1/type_traits"
 2274              		.file 22 "/Library/DaisyToolchain/0.2.0/arm/arm-none-eabi/include/c++/10.3.1/debug/debug.h"
 2275              		.file 23 "/Library/DaisyToolchain/0.2.0/arm/arm-none-eabi/include/c++/10.3.1/cwchar"
 2276              		.file 24 "/Library/DaisyToolchain/0.2.0/arm/arm-none-eabi/include/c++/10.3.1/bits/stl_pair.h"
 2277              		.file 25 "/Library/DaisyToolchain/0.2.0/arm/arm-none-eabi/include/c++/10.3.1/bits/exception_ptr.h"
 2278              		.file 26 "/Library/DaisyToolchain/0.2.0/arm/arm-none-eabi/include/c++/10.3.1/arm-none-eabi/thumb/v
ARM GAS  /var/folders/7c/668hyr3s7rlgsbdftclf3hsr0000gn/T//ccdjQHJK.s 			page 68


 2279              		.file 27 "/Library/DaisyToolchain/0.2.0/arm/arm-none-eabi/include/c++/10.3.1/clocale"
 2280              		.file 28 "/Library/DaisyToolchain/0.2.0/arm/arm-none-eabi/include/c++/10.3.1/cstdio"
 2281              		.file 29 "/Library/DaisyToolchain/0.2.0/arm/arm-none-eabi/include/c++/10.3.1/bits/basic_string.h"
 2282              		.file 30 "/Library/DaisyToolchain/0.2.0/arm/arm-none-eabi/include/c++/10.3.1/bits/stl_iterator.h"
 2283              		.file 31 "/Library/DaisyToolchain/0.2.0/arm/arm-none-eabi/include/c++/10.3.1/bits/algorithmfwd.h"
 2284              		.file 32 "/Library/DaisyToolchain/0.2.0/arm/arm-none-eabi/include/c++/10.3.1/cstring"
 2285              		.file 33 "/Library/DaisyToolchain/0.2.0/arm/arm-none-eabi/include/c++/10.3.1/cstdarg"
 2286              		.file 34 "/Library/DaisyToolchain/0.2.0/arm/arm-none-eabi/include/c++/10.3.1/bits/predefined_ops.h
 2287              		.file 35 "/Library/DaisyToolchain/0.2.0/arm/arm-none-eabi/include/sys/_types.h"
 2288              		.file 36 "/Library/DaisyToolchain/0.2.0/arm/arm-none-eabi/include/sys/reent.h"
 2289              		.file 37 "/Library/DaisyToolchain/0.2.0/arm/arm-none-eabi/include/sys/lock.h"
 2290              		.file 38 "/Library/DaisyToolchain/0.2.0/arm/arm-none-eabi/include/math.h"
 2291              		.file 39 "/Library/DaisyToolchain/0.2.0/arm/arm-none-eabi/include/stdlib.h"
 2292              		.file 40 "/Library/DaisyToolchain/0.2.0/arm/arm-none-eabi/include/c++/10.3.1/math.h"
 2293              		.file 41 "../DaisyExamples/DaisySP/Source/Utility/dsp.h"
 2294              		.file 42 "/Library/DaisyToolchain/0.2.0/arm/lib/gcc/arm-none-eabi/10.3.1/include/stdarg.h"
 2295              		.file 43 "/Library/DaisyToolchain/0.2.0/arm/arm-none-eabi/include/wchar.h"
 2296              		.file 44 "/Library/DaisyToolchain/0.2.0/arm/arm-none-eabi/include/locale.h"
 2297              		.file 45 "/Library/DaisyToolchain/0.2.0/arm/arm-none-eabi/include/stdio.h"
 2298              		.file 46 "/Library/DaisyToolchain/0.2.0/arm/arm-none-eabi/include/c++/10.3.1/stdlib.h"
 2299              		.file 47 "/Library/DaisyToolchain/0.2.0/arm/arm-none-eabi/include/string.h"
 2300              		.file 48 "../DaisyExamples/libDaisy/src/daisy_core.h"
 2301              		.file 49 "../DaisyExamples/libDaisy/src/per/tim.h"
 2302              		.file 50 "../DaisyExamples/libDaisy/src/util/wav_format.h"
 2303              		.file 51 "../DaisyExamples/libDaisy/src/dev/max11300.h"
 2304              		.file 52 "../DaisyExamples/libDaisy/src/per/gpio.h"
 2305              		.file 53 "../DaisyExamples/libDaisy/src/dev/sdram.h"
 2306              		.file 54 "<built-in>"
 2307              		.file 55 "../DaisyExamples/libDaisy/src/dev/sr_595.h"
ARM GAS  /var/folders/7c/668hyr3s7rlgsbdftclf3hsr0000gn/T//ccdjQHJK.s 			page 69


DEFINED SYMBOLS
                            *ABS*:0000000000000000 keys.cpp
/var/folders/7c/668hyr3s7rlgsbdftclf3hsr0000gn/T//ccdjQHJK.s:19     .text._ZN7daisysp5AdEnvD2Ev:0000000000000000 $t
/var/folders/7c/668hyr3s7rlgsbdftclf3hsr0000gn/T//ccdjQHJK.s:26     .text._ZN7daisysp5AdEnvD2Ev:0000000000000000 _ZN7daisysp5AdEnvD2Ev
/var/folders/7c/668hyr3s7rlgsbdftclf3hsr0000gn/T//ccdjQHJK.s:26     .text._ZN7daisysp5AdEnvD2Ev:0000000000000000 _ZN7daisysp5AdEnvD1Ev
/var/folders/7c/668hyr3s7rlgsbdftclf3hsr0000gn/T//ccdjQHJK.s:43     .text._ZN7daisysp10OscillatorD2Ev:0000000000000000 $t
/var/folders/7c/668hyr3s7rlgsbdftclf3hsr0000gn/T//ccdjQHJK.s:50     .text._ZN7daisysp10OscillatorD2Ev:0000000000000000 _ZN7daisysp10OscillatorD2Ev
/var/folders/7c/668hyr3s7rlgsbdftclf3hsr0000gn/T//ccdjQHJK.s:50     .text._ZN7daisysp10OscillatorD2Ev:0000000000000000 _ZN7daisysp10OscillatorD1Ev
/var/folders/7c/668hyr3s7rlgsbdftclf3hsr0000gn/T//ccdjQHJK.s:67     .text._ZN5daisy6SwitchD2Ev:0000000000000000 $t
/var/folders/7c/668hyr3s7rlgsbdftclf3hsr0000gn/T//ccdjQHJK.s:74     .text._ZN5daisy6SwitchD2Ev:0000000000000000 _ZN5daisy6SwitchD2Ev
/var/folders/7c/668hyr3s7rlgsbdftclf3hsr0000gn/T//ccdjQHJK.s:74     .text._ZN5daisy6SwitchD2Ev:0000000000000000 _ZN5daisy6SwitchD1Ev
/var/folders/7c/668hyr3s7rlgsbdftclf3hsr0000gn/T//ccdjQHJK.s:91     .text._ZN5daisy9DaisySeedD2Ev:0000000000000000 $t
/var/folders/7c/668hyr3s7rlgsbdftclf3hsr0000gn/T//ccdjQHJK.s:98     .text._ZN5daisy9DaisySeedD2Ev:0000000000000000 _ZN5daisy9DaisySeedD2Ev
/var/folders/7c/668hyr3s7rlgsbdftclf3hsr0000gn/T//ccdjQHJK.s:98     .text._ZN5daisy9DaisySeedD2Ev:0000000000000000 _ZN5daisy9DaisySeedD1Ev
/var/folders/7c/668hyr3s7rlgsbdftclf3hsr0000gn/T//ccdjQHJK.s:139    .text._Z11NextSamplesRf:0000000000000000 $t
/var/folders/7c/668hyr3s7rlgsbdftclf3hsr0000gn/T//ccdjQHJK.s:146    .text._Z11NextSamplesRf:0000000000000000 _Z11NextSamplesRf
/var/folders/7c/668hyr3s7rlgsbdftclf3hsr0000gn/T//ccdjQHJK.s:244    .text._Z11NextSamplesRf:0000000000000040 $d
/var/folders/7c/668hyr3s7rlgsbdftclf3hsr0000gn/T//ccdjQHJK.s:251    .text.startup.main:0000000000000000 $t
/var/folders/7c/668hyr3s7rlgsbdftclf3hsr0000gn/T//ccdjQHJK.s:258    .text.startup.main:0000000000000000 main
/var/folders/7c/668hyr3s7rlgsbdftclf3hsr0000gn/T//ccdjQHJK.s:711    .text.startup.main:00000000000001d8 $d
/var/folders/7c/668hyr3s7rlgsbdftclf3hsr0000gn/T//ccdjQHJK.s:1586   .text._ZL13AudioCallbackPKfPfj:0000000000000000 _ZL13AudioCallbackPKfPfj
/var/folders/7c/668hyr3s7rlgsbdftclf3hsr0000gn/T//ccdjQHJK.s:739    .text._Z13UpdateButtonsv:0000000000000000 $t
/var/folders/7c/668hyr3s7rlgsbdftclf3hsr0000gn/T//ccdjQHJK.s:746    .text._Z13UpdateButtonsv:0000000000000000 _Z13UpdateButtonsv
/var/folders/7c/668hyr3s7rlgsbdftclf3hsr0000gn/T//ccdjQHJK.s:1546   .text._Z13UpdateButtonsv:00000000000001c4 $d
/var/folders/7c/668hyr3s7rlgsbdftclf3hsr0000gn/T//ccdjQHJK.s:1580   .text._ZL13AudioCallbackPKfPfj:0000000000000000 $t
/var/folders/7c/668hyr3s7rlgsbdftclf3hsr0000gn/T//ccdjQHJK.s:1734   .text._ZL13AudioCallbackPKfPfj:0000000000000064 $d
/var/folders/7c/668hyr3s7rlgsbdftclf3hsr0000gn/T//ccdjQHJK.s:1741   .text._Z8Controlsv:0000000000000000 $t
/var/folders/7c/668hyr3s7rlgsbdftclf3hsr0000gn/T//ccdjQHJK.s:1748   .text._Z8Controlsv:0000000000000000 _Z8Controlsv
/var/folders/7c/668hyr3s7rlgsbdftclf3hsr0000gn/T//ccdjQHJK.s:1763   .text.startup._GLOBAL__sub_I_wave:0000000000000000 $t
/var/folders/7c/668hyr3s7rlgsbdftclf3hsr0000gn/T//ccdjQHJK.s:1769   .text.startup._GLOBAL__sub_I_wave:0000000000000000 _GLOBAL__sub_I_wave
/var/folders/7c/668hyr3s7rlgsbdftclf3hsr0000gn/T//ccdjQHJK.s:2079   .text.startup._GLOBAL__sub_I_wave:00000000000000b4 $d
/var/folders/7c/668hyr3s7rlgsbdftclf3hsr0000gn/T//ccdjQHJK.s:2106   .init_array:0000000000000000 $d
/var/folders/7c/668hyr3s7rlgsbdftclf3hsr0000gn/T//ccdjQHJK.s:2158   .bss.C2:0000000000000000 C2
/var/folders/7c/668hyr3s7rlgsbdftclf3hsr0000gn/T//ccdjQHJK.s:2144   .bss.B:0000000000000000 B
/var/folders/7c/668hyr3s7rlgsbdftclf3hsr0000gn/T//ccdjQHJK.s:2137   .bss.AS:0000000000000000 AS
/var/folders/7c/668hyr3s7rlgsbdftclf3hsr0000gn/T//ccdjQHJK.s:2130   .bss.A:0000000000000000 A
/var/folders/7c/668hyr3s7rlgsbdftclf3hsr0000gn/T//ccdjQHJK.s:2214   .bss.GS:0000000000000000 GS
/var/folders/7c/668hyr3s7rlgsbdftclf3hsr0000gn/T//ccdjQHJK.s:2207   .bss.G:0000000000000000 G
/var/folders/7c/668hyr3s7rlgsbdftclf3hsr0000gn/T//ccdjQHJK.s:2200   .bss.FS:0000000000000000 FS
/var/folders/7c/668hyr3s7rlgsbdftclf3hsr0000gn/T//ccdjQHJK.s:2193   .bss.F:0000000000000000 F
/var/folders/7c/668hyr3s7rlgsbdftclf3hsr0000gn/T//ccdjQHJK.s:2186   .bss.E:0000000000000000 E
/var/folders/7c/668hyr3s7rlgsbdftclf3hsr0000gn/T//ccdjQHJK.s:2179   .bss.DS:0000000000000000 DS
/var/folders/7c/668hyr3s7rlgsbdftclf3hsr0000gn/T//ccdjQHJK.s:2172   .bss.D:0000000000000000 D
/var/folders/7c/668hyr3s7rlgsbdftclf3hsr0000gn/T//ccdjQHJK.s:2165   .bss.CS:0000000000000000 CS
/var/folders/7c/668hyr3s7rlgsbdftclf3hsr0000gn/T//ccdjQHJK.s:2151   .bss.C:0000000000000000 C
/var/folders/7c/668hyr3s7rlgsbdftclf3hsr0000gn/T//ccdjQHJK.s:2248   .bss.oscFreq:0000000000000000 oscFreq
/var/folders/7c/668hyr3s7rlgsbdftclf3hsr0000gn/T//ccdjQHJK.s:2254   .bss.vibrato:0000000000000000 vibrato
/var/folders/7c/668hyr3s7rlgsbdftclf3hsr0000gn/T//ccdjQHJK.s:2241   .bss.mode:0000000000000000 mode
/var/folders/7c/668hyr3s7rlgsbdftclf3hsr0000gn/T//ccdjQHJK.s:2261   .bss.wave:0000000000000000 wave
/var/folders/7c/668hyr3s7rlgsbdftclf3hsr0000gn/T//ccdjQHJK.s:2126   .bss.A:0000000000000000 $d
/var/folders/7c/668hyr3s7rlgsbdftclf3hsr0000gn/T//ccdjQHJK.s:2133   .bss.AS:0000000000000000 $d
/var/folders/7c/668hyr3s7rlgsbdftclf3hsr0000gn/T//ccdjQHJK.s:2140   .bss.B:0000000000000000 $d
/var/folders/7c/668hyr3s7rlgsbdftclf3hsr0000gn/T//ccdjQHJK.s:2147   .bss.C:0000000000000000 $d
/var/folders/7c/668hyr3s7rlgsbdftclf3hsr0000gn/T//ccdjQHJK.s:2154   .bss.C2:0000000000000000 $d
/var/folders/7c/668hyr3s7rlgsbdftclf3hsr0000gn/T//ccdjQHJK.s:2161   .bss.CS:0000000000000000 $d
/var/folders/7c/668hyr3s7rlgsbdftclf3hsr0000gn/T//ccdjQHJK.s:2168   .bss.D:0000000000000000 $d
/var/folders/7c/668hyr3s7rlgsbdftclf3hsr0000gn/T//ccdjQHJK.s:2175   .bss.DS:0000000000000000 $d
ARM GAS  /var/folders/7c/668hyr3s7rlgsbdftclf3hsr0000gn/T//ccdjQHJK.s 			page 70


/var/folders/7c/668hyr3s7rlgsbdftclf3hsr0000gn/T//ccdjQHJK.s:2182   .bss.E:0000000000000000 $d
/var/folders/7c/668hyr3s7rlgsbdftclf3hsr0000gn/T//ccdjQHJK.s:2189   .bss.F:0000000000000000 $d
/var/folders/7c/668hyr3s7rlgsbdftclf3hsr0000gn/T//ccdjQHJK.s:2196   .bss.FS:0000000000000000 $d
/var/folders/7c/668hyr3s7rlgsbdftclf3hsr0000gn/T//ccdjQHJK.s:2203   .bss.G:0000000000000000 $d
/var/folders/7c/668hyr3s7rlgsbdftclf3hsr0000gn/T//ccdjQHJK.s:2210   .bss.GS:0000000000000000 $d
/var/folders/7c/668hyr3s7rlgsbdftclf3hsr0000gn/T//ccdjQHJK.s:2217   .bss._ZL2ad:0000000000000000 $d
/var/folders/7c/668hyr3s7rlgsbdftclf3hsr0000gn/T//ccdjQHJK.s:2221   .bss._ZL2ad:0000000000000000 _ZL2ad
/var/folders/7c/668hyr3s7rlgsbdftclf3hsr0000gn/T//ccdjQHJK.s:2224   .bss._ZL2hw:0000000000000000 $d
/var/folders/7c/668hyr3s7rlgsbdftclf3hsr0000gn/T//ccdjQHJK.s:2228   .bss._ZL2hw:0000000000000000 _ZL2hw
/var/folders/7c/668hyr3s7rlgsbdftclf3hsr0000gn/T//ccdjQHJK.s:2231   .bss._ZL3osc:0000000000000000 $d
/var/folders/7c/668hyr3s7rlgsbdftclf3hsr0000gn/T//ccdjQHJK.s:2235   .bss._ZL3osc:0000000000000000 _ZL3osc
/var/folders/7c/668hyr3s7rlgsbdftclf3hsr0000gn/T//ccdjQHJK.s:2238   .bss.mode:0000000000000000 $d
/var/folders/7c/668hyr3s7rlgsbdftclf3hsr0000gn/T//ccdjQHJK.s:2244   .bss.oscFreq:0000000000000000 $d
/var/folders/7c/668hyr3s7rlgsbdftclf3hsr0000gn/T//ccdjQHJK.s:2251   .bss.vibrato:0000000000000000 $d
/var/folders/7c/668hyr3s7rlgsbdftclf3hsr0000gn/T//ccdjQHJK.s:2257   .bss.wave:0000000000000000 $d
                           .group:0000000000000000 _ZN7daisysp5AdEnvD5Ev
                           .group:0000000000000000 _ZN7daisysp10OscillatorD5Ev
                           .group:0000000000000000 _ZN5daisy6SwitchD5Ev
                           .group:0000000000000000 _ZN5daisy9DaisySeedD5Ev

UNDEFINED SYMBOLS
_ZN7daisysp5AdEnv7ProcessEv
_ZN7daisysp10Oscillator12CalcPhaseIncEf
_ZN7daisysp10Oscillator7ProcessEv
_ZN5daisy9DaisySeed9ConfigureEv
_ZN5daisy9DaisySeed4InitEb
_ZN5daisy9DaisySeed17SetAudioBlockSizeEj
_ZN5daisy9DaisySeed15AudioSampleRateEv
_ZN7daisysp5AdEnv4InitEf
_ZN5daisy9DaisySeed6GetPinEh
_ZN5daisy6Switch4InitE12dsy_gpio_pinf
_ZN5daisy9DaisySeed10StartAudioEPFvPKfPfjE
_ZN5daisy6Switch8DebounceEv
__aeabi_atexit
__dso_handle
